 VIP Linker 7.5.
  Module 'D:\Basic Topic\Fcih\Subjects\3 rd year\AI_Materials\2015\project prolog Excellent\AI\BMC\Exe\BMC.exe' Map. Tue Oct 11 10:50:01 2016

Frame 001000   Size 13DB00.  Name=<   .text>, 	Chars=60000020h. [CER]
Frame 13F000   Size 116010.  Name=<  .rdata>, 	Chars=40000040h. [IR]
Frame 256000   Size 0004B0.  Name=<   .data>, 	Chars=C0000040h. [IRW]
Frame 257000   Size 0005D0.  Name=<  PRODBG>, 	Chars=40000040h. [IR]
Frame 258000   Size 000CC0.  Name=<  VIPini>, 	Chars=40000040h. [IR]
Frame 259000   Size 000010.  Name=<  VIPsym>, 	Chars=40000040h. [IR]
Frame 25A000   Size 0020C0.  Name=<  VIPtpd>, 	Chars=40000040h. [IR]
Frame 25D000   Size 0023E0.  Name=<  VIPtpl>, 	Chars=40000040h. [IR]
Frame 260000   Size 000260.  Name=< .gcroot>, 	Chars=C0000040h. [IRW]

	--- S e g m e n t s : ---

Frame 001000   Size 13DB00.  Name=<   .text>, 	Chars=60000020h. [CER]
001000:000000 13D920   .text::CODE::<no group> F=4
   001000   Module 'Obj\exe.C97AE185.obj'
   001310   Module 'Obj\binary.BAFC21B3.obj'
   006290   Module 'Obj\boolean.71CAE6F2.obj'
   0063C0   Module 'Obj\redblackset.3F8B50C6.obj'
   008580   Module 'Obj\redblacktree.899B933C.obj'
   00B0A0   Module 'Obj\collectionsupport.792149C1.obj'
   00B240   Module 'Obj\arraym_inline.60FB7E94.obj'
   00C580   Module 'Obj\mapm_redblack.8B32AE36.obj'
   00CCB0   Module 'Obj\queuem_fact.FE73A17F.obj'
   00D1B0   Module 'Obj\setm_redblack.93B863A3.obj'
   00D710   Module 'Obj\collectionmsupport.C8B1DC6C.obj'
   00DA10   Module 'Obj\mapmsupport.7A794CBB.obj'
   00E120   Module 'Obj\core.C03ED02F.obj'
   00E500   Module 'Obj\event.7F9DC97F.obj'
   011DD0   Module 'Obj\exception.D4690B8C.obj'
   014050   Module 'Obj\exceptiondump.F629D2CA.obj'
   015660   Module 'Obj\filesystem.7029601A.obj'
   01DA80   Module 'Obj\clipboard.A25DD7BF.obj'
   01E180   Module 'Obj\checkcommand.BB3E3892.obj'
   01E590   Module 'Obj\command.CA3EB146.obj'
   01EF10   Module 'Obj\customcommand.AE11A505.obj'
   01F240   Module 'Obj\menucommand.74DA7E1F.obj'
   020A60   Module 'Obj\commondialogs.04295316.obj'
   022C20   Module 'Obj\controls.363FB18E.obj'
   056240   Module 'Obj\controlsupport.BED97958.obj'
   066430   Module 'Obj\listviewcontrol.85E99595.obj'
   06E790   Module 'Obj\messagecontrol.71EAC8FF.obj'
   079870   Module 'Obj\navigationoverlay.DB25AE7D.obj'
   07DD00   Module 'Obj\ribboncontrol.D20F9C1C.obj'
   08E790   Module 'Obj\ribbondesignerdlg.56B6615E.obj'
   09AE00   Module 'Obj\scilexer.3C7EBDAC.obj'
   0AD9C0   Module 'Obj\scilexersupport.81F1978C.obj'
   0B6B50   Module 'Obj\splittercontrol.3D396B1A.obj'
   0B98B0   Module 'Obj\statusbarcontrol.5D8188C3.obj'
   0BD980   Module 'Obj\dragndrop.6F2C210A.obj'
   0BF980   Module 'Obj\errorpresentationdialog.0BD1CEB3.obj'
   0C3090   Module 'Obj\gdiplus.A4A4230C.obj'
   0DA540   Module 'Obj\gui.EF789F46.obj'
   0F9600   Module 'Obj\guisupport.49D10144.obj'
   0FB070   Module 'Obj\imagelist.03D8657B.obj'
   0FC1D0   Module 'Obj\messageloop.E05665C7.obj'
   0FC470   Module 'Obj\tooltip.E96A6F3C.obj'
   0FD7C0   Module 'Obj\tooltipsupport.00079999.obj'
   0FF2A0   Module 'Obj\list.123C0D09.obj'
   105E60   Module 'Obj\math.F67DDF29.obj'
   1074F0   Module 'Obj\memory.292AC40E.obj'
   109640   Module 'Obj\monitorqueue.9EE6368B.obj'
   109C40   Module 'Obj\multithread.7430C03B.obj'
   10B9C0   Module 'Obj\namedvalue.D582E632.obj'
   10CE10   Module 'Obj\programcontrol.1FA27824.obj'
   10CE50   Module 'Obj\reflection.C011C112.obj'
   10D2F0   Module 'Obj\regex.AC53B9AD.obj'
   10D720   Module 'Obj\registry.BB9D824C.obj'
   10E5D0   Module 'Obj\std.368AEC64.obj'
   10EFC0   Module 'Obj\inputstreamsupport.984B8D03.obj'
   10F390   Module 'Obj\outputstreamsupport.F233041A.obj'
   10F8A0   Module 'Obj\stream.B56EF16E.obj'
   110760   Module 'Obj\string.F9F3830B.obj'
   1163E0   Module 'Obj\string8.0C66F215.obj'
   116D10   Module 'Obj\templateexpander.24BA74A8.obj'
   1171E0   Module 'Obj\varm.7798368B.obj'
   118910   Module 'Obj\vpi.957343EE.obj'
   11B980   Module 'Obj\vpi_native.AB94E07A.obj'
   11BAB0   Module 'Obj\vpidomains.B7DBD831.obj'
   11BB70   Module 'Obj\vpitoolbar.D6B81945.obj'
   125130   Module 'Obj\istream_api.DFD1972C.obj'
   125240   Module 'Obj\commoncontrols_api.611053EE.obj'
   125270   Module 'Obj\exe_api.BA152356.obj'
   125800   Module 'Obj\filesystem_api.8DE14D9B.obj'
   127F10   Module 'Obj\gdiplus_api.C31FA6A1.obj'
   127FB0   Module 'Obj\gui_api.34C97AA6.obj'
   12BB60   Module 'Obj\header_api.B45CAFF1.obj'
   12CE70   Module 'Obj\icondirectory_api.6E2FBE44.obj'
   12D350   Module 'Obj\locale_api.5A96E013.obj'
   12D5E0   Module 'Obj\memory_api.91A25169.obj'
   12DD50   Module 'Obj\multithread_api.0FAFDF41.obj'
   12ED60   Module 'Obj\registry_api.FC65A32A.obj'
   130080   Module 'Obj\runtime_api.D29D3F6F.obj'
   130C70   Module 'Obj\scilexer_api.B9C68FFA.obj'
   135980   Module 'Obj\shell_api.8228437A.obj'
   135D50   Module 'Obj\string8_api.BA610187.obj'
   135F00   Module 'Obj\systeminformation_api.529C76B8.obj'
   1364B0   Module 'Obj\time_api.F873F3B3.obj'
   1378B0   Module 'Obj\uxtheme_api.B5024176.obj'
   137A30   Module 'Obj\windowsapi.7E7E0718.obj'
   137CE0   Module 'Obj\aboutdialog.C4CC6B1D.obj'
   139440   Module 'Obj\binarycircuits.C39DDAAA.obj'
   13ABB0   Module 'Obj\bmcform.6A63E4AF.obj'
   13E8D0   Module 'Obj\main.A22FE9BF.obj'
001000:13D920 0001E0   .text$mn::CODE::<no group> F=4
   13E920   Module '..\..\..\_intermediate\sourceVS\vipInit\Win32\ReleasePE\VIPMain.obj'
   13E990   Module '..\..\..\_intermediate\sourceVS\vipInit\Win32\ReleasePE\VIPDll.obj'
   13EAE0   Module '..\..\..\_intermediate\sourceVS\vipInit\Win32\ReleasePE\VIPPE.obj'

Frame 13F000   Size 116010.  Name=<  .rdata>, 	Chars=40000040h. [IR]
13F000:000000 00BB90   VIPConst::VIPConst::.rdata F=4
   13F000   Module 'Obj\binary.BAFC21B3.obj'
   13F250   Module 'Obj\exception.D4690B8C.obj'
   1425F0   Module 'Obj\filesystem.7029601A.obj'
   1427E0   Module 'Obj\clipboard.A25DD7BF.obj'
   1427F0   Module 'Obj\controls.363FB18E.obj'
   142DE0   Module 'Obj\listviewcontrol.85E99595.obj'
   143080   Module 'Obj\navigationoverlay.DB25AE7D.obj'
   143090   Module 'Obj\ribboncontrol.D20F9C1C.obj'
   1430B0   Module 'Obj\ribbondesignerdlg.56B6615E.obj'
   1430D0   Module 'Obj\gdiplus.A4A4230C.obj'
   143130   Module 'Obj\gui.EF789F46.obj'
   145BD0   Module 'Obj\guisupport.49D10144.obj'
   145F90   Module 'Obj\math.F67DDF29.obj'
   1462F0   Module 'Obj\namedvalue.D582E632.obj'
   146380   Module 'Obj\regex.AC53B9AD.obj'
   146410   Module 'Obj\registry.BB9D824C.obj'
   1465B0   Module 'Obj\stream.B56EF16E.obj'
   1468B0   Module 'Obj\string.F9F3830B.obj'
   146AB0   Module 'Obj\vpi.957343EE.obj'
   14A890   Module 'Obj\filesystem_api.8DE14D9B.obj'
   14AA40   Module 'Obj\time_api.F873F3B3.obj'
13F000:00BB90 005410   VIPTypeL::VIPTypeL::.rdata F=4
   14AB90   Module 'Obj\exe.C97AE185.obj'
   14AD30   Module 'Obj\binary.BAFC21B3.obj'
   14AE00   Module 'Obj\redblackset.3F8B50C6.obj'
   14AE10   Module 'Obj\redblacktree.899B933C.obj'
   14AE40   Module 'Obj\collectionsupport.792149C1.obj'
   14AE60   Module 'Obj\arraym_inline.60FB7E94.obj'
   14AEF0   Module 'Obj\mapm_redblack.8B32AE36.obj'
   14AF10   Module 'Obj\queuem_fact.FE73A17F.obj'
   14AF30   Module 'Obj\setm_redblack.93B863A3.obj'
   14AF50   Module 'Obj\collectionmsupport.C8B1DC6C.obj'
   14AF70   Module 'Obj\mapmsupport.7A794CBB.obj'
   14AF90   Module 'Obj\core.C03ED02F.obj'
   14B5B0   Module 'Obj\event.7F9DC97F.obj'
   14B9E0   Module 'Obj\exception.D4690B8C.obj'
   14BAB0   Module 'Obj\exceptiondump.F629D2CA.obj'
   14BAE0   Module 'Obj\filesystem.7029601A.obj'
   14BC20   Module 'Obj\clipboard.A25DD7BF.obj'
   14C6D0   Module 'Obj\checkcommand.BB3E3892.obj'
   14C6F0   Module 'Obj\command.CA3EB146.obj'
   14C720   Module 'Obj\customcommand.AE11A505.obj'
   14C740   Module 'Obj\menucommand.74DA7E1F.obj'
   14C7B0   Module 'Obj\commondialogs.04295316.obj'
   14C850   Module 'Obj\controls.363FB18E.obj'
   14CB30   Module 'Obj\controlsupport.BED97958.obj'
   14CBF0   Module 'Obj\listviewcontrol.85E99595.obj'
   14CEC0   Module 'Obj\messagecontrol.71EAC8FF.obj'
   14D020   Module 'Obj\navigationoverlay.DB25AE7D.obj'
   14D120   Module 'Obj\ribboncontrol.D20F9C1C.obj'
   14D400   Module 'Obj\ribbondesignerdlg.56B6615E.obj'
   14D670   Module 'Obj\scilexer.3C7EBDAC.obj'
   14D6B0   Module 'Obj\scilexersupport.81F1978C.obj'
   14D780   Module 'Obj\splittercontrol.3D396B1A.obj'
   14D790   Module 'Obj\statusbarcontrol.5D8188C3.obj'
   14D820   Module 'Obj\dragndrop.6F2C210A.obj'
   14D8B0   Module 'Obj\errorpresentationdialog.0BD1CEB3.obj'
   14D930   Module 'Obj\gdiplus.A4A4230C.obj'
   14DC00   Module 'Obj\gui.EF789F46.obj'
   14E030   Module 'Obj\guisupport.49D10144.obj'
   14E060   Module 'Obj\imagelist.03D8657B.obj'
   14E080   Module 'Obj\messageloop.E05665C7.obj'
   14E0A0   Module 'Obj\tooltip.E96A6F3C.obj'
   14E100   Module 'Obj\tooltipsupport.00079999.obj'
   14E140   Module 'Obj\list.123C0D09.obj'
   14E200   Module 'Obj\math.F67DDF29.obj'
   14E230   Module 'Obj\memory.292AC40E.obj'
   14E440   Module 'Obj\monitorqueue.9EE6368B.obj'
   14E470   Module 'Obj\multithread.7430C03B.obj'
   14E4E0   Module 'Obj\programcontrol.1FA27824.obj'
   14E500   Module 'Obj\reflection.C011C112.obj'
   14E570   Module 'Obj\regex.AC53B9AD.obj'
   14E5C0   Module 'Obj\registry.BB9D824C.obj'
   14E5E0   Module 'Obj\inputstreamsupport.984B8D03.obj'
   14E5F0   Module 'Obj\outputstreamsupport.F233041A.obj'
   14E600   Module 'Obj\stream.B56EF16E.obj'
   14E640   Module 'Obj\string.F9F3830B.obj'
   14E6F0   Module 'Obj\templateexpander.24BA74A8.obj'
   14E730   Module 'Obj\varm.7798368B.obj'
   14E7D0   Module 'Obj\vpi.957343EE.obj'
   14E800   Module 'Obj\vpi_native.AB94E07A.obj'
   14E940   Module 'Obj\vpidomains.B7DBD831.obj'
   14EA40   Module 'Obj\vpitoolbar.D6B81945.obj'
   14EAF0   Module 'Obj\commoncontrols_api.611053EE.obj'
   14F490   Module 'Obj\exe_api.BA152356.obj'
   14F4B0   Module 'Obj\filesystem_api.8DE14D9B.obj'
   14F5D0   Module 'Obj\gdiplus_api.C31FA6A1.obj'
   14F730   Module 'Obj\gui_api.34C97AA6.obj'
   14FB70   Module 'Obj\header_api.B45CAFF1.obj'
   14FB80   Module 'Obj\icondirectory_api.6E2FBE44.obj'
   14FBD0   Module 'Obj\locale_api.5A96E013.obj'
   14FC20   Module 'Obj\memory_api.91A25169.obj'
   14FC40   Module 'Obj\multithread_api.0FAFDF41.obj'
   14FCE0   Module 'Obj\registry_api.FC65A32A.obj'
   14FCF0   Module 'Obj\runtime_api.D29D3F6F.obj'
   14FD00   Module 'Obj\scilexer_api.B9C68FFA.obj'
   14FD60   Module 'Obj\shell_api.8228437A.obj'
   14FE00   Module 'Obj\systeminformation_api.529C76B8.obj'
   14FE60   Module 'Obj\time_api.F873F3B3.obj'
   14FEA0   Module 'Obj\windowsapi.7E7E0718.obj'
   14FED0   Module 'Obj\aboutdialog.C4CC6B1D.obj'
   14FEF0   Module 'Obj\bmcform.6A63E4AF.obj'
   14FF20   Module 'Obj\main.A22FE9BF.obj'
13F000:010FA0 00D770   VIPInter::VIPInter::.rdata F=4
   14FFA0   Module 'Obj\exe.C97AE185.obj'
   151360   Module 'Obj\binary.BAFC21B3.obj'
   1517A0   Module 'Obj\collection.F916C46D.obj'
   151FA0   Module 'Obj\collectionsupport.792149C1.obj'
   152230   Module 'Obj\arraym_inline.60FB7E94.obj'
   152BA0   Module 'Obj\core.C03ED02F.obj'
   152C60   Module 'Obj\exception.D4690B8C.obj'
   1531E0   Module 'Obj\filesystem.7029601A.obj'
   1533B0   Module 'Obj\clipboard.A25DD7BF.obj'
   1593C0   Module 'Obj\checkcommand.BB3E3892.obj'
   1594A0   Module 'Obj\customcommand.AE11A505.obj'
   159580   Module 'Obj\menucommand.74DA7E1F.obj'
   159810   Module 'Obj\commondialogs.04295316.obj'
   1599D0   Module 'Obj\controls.363FB18E.obj'
   15A300   Module 'Obj\listviewcontrol.85E99595.obj'
   15AE90   Module 'Obj\messagecontrol.71EAC8FF.obj'
   15BD70   Module 'Obj\navigationoverlay.DB25AE7D.obj'
   15BE70   Module 'Obj\ribboncontrol.D20F9C1C.obj'
   15C790   Module 'Obj\ribbondesignerdlg.56B6615E.obj'
   15CC60   Module 'Obj\statusbarcontrol.5D8188C3.obj'
   15CE40   Module 'Obj\errorpresentationdialog.0BD1CEB3.obj'
   15CF60   Module 'Obj\gui.EF789F46.obj'
   15D4F0   Module 'Obj\tooltip.E96A6F3C.obj'
   15D5E0   Module 'Obj\aboutdialog.C4CC6B1D.obj'
   15D680   Module 'Obj\bmcform.6A63E4AF.obj'
13F000:01E710 0364C0   .rdata::.rdata::.rdata F=4
   15D710   Module 'Obj\exe.C97AE185.obj'
   15D7A0   Module 'Obj\binary.BAFC21B3.obj'
   15DE00   Module 'Obj\boolean.71CAE6F2.obj'
   15DE80   Module 'Obj\redblackset.3F8B50C6.obj'
   15E060   Module 'Obj\redblacktree.899B933C.obj'
   15E200   Module 'Obj\collection.F916C46D.obj'
   15E290   Module 'Obj\collectionsupport.792149C1.obj'
   15E350   Module 'Obj\arraym_inline.60FB7E94.obj'
   15E580   Module 'Obj\mapm_redblack.8B32AE36.obj'
   15E630   Module 'Obj\queuem_fact.FE73A17F.obj'
   15E6D0   Module 'Obj\setm_redblack.93B863A3.obj'
   15E780   Module 'Obj\collectionmsupport.C8B1DC6C.obj'
   15E850   Module 'Obj\mapmsupport.7A794CBB.obj'
   15E9E0   Module 'Obj\core.C03ED02F.obj'
   15EAA0   Module 'Obj\event.7F9DC97F.obj'
   15EB10   Module 'Obj\exception.D4690B8C.obj'
   15F000   Module 'Obj\exceptiondump.F629D2CA.obj'
   15F460   Module 'Obj\filesystem.7029601A.obj'
   160240   Module 'Obj\clipboard.A25DD7BF.obj'
   160420   Module 'Obj\checkcommand.BB3E3892.obj'
   1604D0   Module 'Obj\command.CA3EB146.obj'
   1606B0   Module 'Obj\customcommand.AE11A505.obj'
   160760   Module 'Obj\menucommand.74DA7E1F.obj'
   1609C0   Module 'Obj\commondialogs.04295316.obj'
   160BA0   Module 'Obj\controls.363FB18E.obj'
   162590   Module 'Obj\controlsupport.BED97958.obj'
   163490   Module 'Obj\listviewcontrol.85E99595.obj'
   164410   Module 'Obj\messagecontrol.71EAC8FF.obj'
   164820   Module 'Obj\navigationoverlay.DB25AE7D.obj'
   164B00   Module 'Obj\ribboncontrol.D20F9C1C.obj'
   165390   Module 'Obj\ribbondesignerdlg.56B6615E.obj'
   17AB60   Module 'Obj\scilexer.3C7EBDAC.obj'
   17E8D0   Module 'Obj\scilexersupport.81F1978C.obj'
   17EED0   Module 'Obj\splittercontrol.3D396B1A.obj'
   17F430   Module 'Obj\statusbarcontrol.5D8188C3.obj'
   17F730   Module 'Obj\dragndrop.6F2C210A.obj'
   17F940   Module 'Obj\errorpresentationdialog.0BD1CEB3.obj'
   17FF10   Module 'Obj\gdiplus.A4A4230C.obj'
   187A40   Module 'Obj\gui.EF789F46.obj'
   1893D0   Module 'Obj\guisupport.49D10144.obj'
   189560   Module 'Obj\imagelist.03D8657B.obj'
   189740   Module 'Obj\messageloop.E05665C7.obj'
   1897E0   Module 'Obj\tooltip.E96A6F3C.obj'
   189860   Module 'Obj\tooltipsupport.00079999.obj'
   189B20   Module 'Obj\list.123C0D09.obj'
   189F20   Module 'Obj\math.F67DDF29.obj'
   18A140   Module 'Obj\memory.292AC40E.obj'
   18A1C0   Module 'Obj\monitorqueue.9EE6368B.obj'
   18A360   Module 'Obj\multithread.7430C03B.obj'
   18A8A0   Module 'Obj\namedvalue.D582E632.obj'
   18AC70   Module 'Obj\programcontrol.1FA27824.obj'
   18AD10   Module 'Obj\reflection.C011C112.obj'
   18AFB0   Module 'Obj\typelibrary.BBCCD01B.obj'
   18B050   Module 'Obj\regex.AC53B9AD.obj'
   18B130   Module 'Obj\registry.BB9D824C.obj'
   18B3B0   Module 'Obj\std.368AEC64.obj'
   18B420   Module 'Obj\inputstreamsupport.984B8D03.obj'
   18B650   Module 'Obj\outputstreamsupport.F233041A.obj'
   18B8C0   Module 'Obj\stream.B56EF16E.obj'
   18BE00   Module 'Obj\string.F9F3830B.obj'
   18C760   Module 'Obj\string8.0C66F215.obj'
   18C7E0   Module 'Obj\templateexpander.24BA74A8.obj'
   18C8A0   Module 'Obj\varm.7798368B.obj'
   18C990   Module 'Obj\vpi.957343EE.obj'
   18D020   Module 'Obj\vpi_native.AB94E07A.obj'
   18D0B0   Module 'Obj\vpidomains.B7DBD831.obj'
   18D140   Module 'Obj\vpitoolbar.D6B81945.obj'
   18D520   Module 'Obj\istream_api.DFD1972C.obj'
   18D6A0   Module 'Obj\commoncontrols_api.611053EE.obj'
   18D760   Module 'Obj\exe_api.BA152356.obj'
   18D980   Module 'Obj\filesystem_api.8DE14D9B.obj'
   18E5A0   Module 'Obj\gdiplus_api.C31FA6A1.obj'
   18E640   Module 'Obj\gui_api.34C97AA6.obj'
   18FB00   Module 'Obj\header_api.B45CAFF1.obj'
   190410   Module 'Obj\icondirectory_api.6E2FBE44.obj'
   1905A0   Module 'Obj\imagelist_api.9161E3DD.obj'
   190650   Module 'Obj\locale_api.5A96E013.obj'
   1906F0   Module 'Obj\memory_api.91A25169.obj'
   1909E0   Module 'Obj\multithread_api.0FAFDF41.obj'
   191190   Module 'Obj\registry_api.FC65A32A.obj'
   1915B0   Module 'Obj\runtime_api.D29D3F6F.obj'
   191E70   Module 'Obj\scilexer_api.B9C68FFA.obj'
   191F30   Module 'Obj\shell_api.8228437A.obj'
   192730   Module 'Obj\string_api.1AD1B52D.obj'
   1927D0   Module 'Obj\string8_api.BA610187.obj'
   1929E0   Module 'Obj\systeminformation_api.529C76B8.obj'
   192CD0   Module 'Obj\time_api.F873F3B3.obj'
   1931F0   Module 'Obj\uxtheme_api.B5024176.obj'
   193360   Module 'Obj\windowsapi.7E7E0718.obj'
   1933F0   Module 'Obj\aboutdialog.C4CC6B1D.obj'
   1936D0   Module 'Obj\binarycircuits.C39DDAAA.obj'
   193720   Module 'Obj\bmcform.6A63E4AF.obj'
   193AE0   Module 'Obj\main.A22FE9BF.obj'
   193B20   Module '..\..\..\_intermediate\sourceVS\vipInit\Win32\ReleasePE\VIPPE.obj'
13F000:054BD0 0C1440   VIPClass::VIPClass::.rdata F=4
   193BD0   Module 'Obj\exe.C97AE185.obj'
   193CC0   Module 'Obj\binary.BAFC21B3.obj'
   1947E0   Module 'Obj\boolean.71CAE6F2.obj'
   194850   Module 'Obj\redblackset.3F8B50C6.obj'
   194AB0   Module 'Obj\redblacktree.899B933C.obj'
   194ED0   Module 'Obj\collectionsupport.792149C1.obj'
   195120   Module 'Obj\arraym_inline.60FB7E94.obj'
   1961F0   Module 'Obj\mapm_redblack.8B32AE36.obj'
   1969F0   Module 'Obj\queuem_fact.FE73A17F.obj'
   196E90   Module 'Obj\setm_redblack.93B863A3.obj'
   197390   Module 'Obj\collectionmsupport.C8B1DC6C.obj'
   1976A0   Module 'Obj\mapmsupport.7A794CBB.obj'
   197B00   Module 'Obj\core.C03ED02F.obj'
   198FF0   Module 'Obj\event.7F9DC97F.obj'
   19F2D0   Module 'Obj\exception.D4690B8C.obj'
   19F9A0   Module 'Obj\exceptiondump.F629D2CA.obj'
   19FA40   Module 'Obj\filesystem.7029601A.obj'
   1A1330   Module 'Obj\clipboard.A25DD7BF.obj'
   1A1430   Module 'Obj\checkcommand.BB3E3892.obj'
   1A19B0   Module 'Obj\command.CA3EB146.obj'
   1A1F20   Module 'Obj\customcommand.AE11A505.obj'
   1A2490   Module 'Obj\menucommand.74DA7E1F.obj'
   1A2C20   Module 'Obj\commondialogs.04295316.obj'
   1A5540   Module 'Obj\controls.363FB18E.obj'
   1E0390   Module 'Obj\controlsupport.BED97958.obj'
   1EF2E0   Module 'Obj\listviewcontrol.85E99595.obj'
   1F2730   Module 'Obj\messagecontrol.71EAC8FF.obj'
   200480   Module 'Obj\navigationoverlay.DB25AE7D.obj'
   2029E0   Module 'Obj\ribboncontrol.D20F9C1C.obj'
   207290   Module 'Obj\ribbondesignerdlg.56B6615E.obj'
   20B730   Module 'Obj\scilexer.3C7EBDAC.obj'
   211030   Module 'Obj\scilexersupport.81F1978C.obj'
   218270   Module 'Obj\splittercontrol.3D396B1A.obj'
   21B2D0   Module 'Obj\statusbarcontrol.5D8188C3.obj'
   21FE20   Module 'Obj\dragndrop.6F2C210A.obj'
   2207F0   Module 'Obj\errorpresentationdialog.0BD1CEB3.obj'
   2232E0   Module 'Obj\gdiplus.A4A4230C.obj'
   2277B0   Module 'Obj\gui.EF789F46.obj'
   238E30   Module 'Obj\guisupport.49D10144.obj'
   239490   Module 'Obj\imagelist.03D8657B.obj'
   239770   Module 'Obj\messageloop.E05665C7.obj'
   2398B0   Module 'Obj\tooltip.E96A6F3C.obj'
   23AA40   Module 'Obj\tooltipsupport.00079999.obj'
   23B020   Module 'Obj\list.123C0D09.obj'
   23B940   Module 'Obj\math.F67DDF29.obj'
   23BAD0   Module 'Obj\memory.292AC40E.obj'
   23C7D0   Module 'Obj\monitorqueue.9EE6368B.obj'
   23CA80   Module 'Obj\multithread.7430C03B.obj'
   23D9B0   Module 'Obj\namedvalue.D582E632.obj'
   23DA30   Module 'Obj\programcontrol.1FA27824.obj'
   23DB40   Module 'Obj\reflection.C011C112.obj'
   23E460   Module 'Obj\regex.AC53B9AD.obj'
   23E5B0   Module 'Obj\registry.BB9D824C.obj'
   23E8A0   Module 'Obj\std.368AEC64.obj'
   23E8F0   Module 'Obj\inputstreamsupport.984B8D03.obj'
   23EB30   Module 'Obj\outputstreamsupport.F233041A.obj'
   23EDF0   Module 'Obj\stream.B56EF16E.obj'
   23F470   Module 'Obj\string.F9F3830B.obj'
   240650   Module 'Obj\string8.0C66F215.obj'
   2406C0   Module 'Obj\templateexpander.24BA74A8.obj'
   240A90   Module 'Obj\varm.7798368B.obj'
   241A00   Module 'Obj\vpi.957343EE.obj'
   241E50   Module 'Obj\vpi_native.AB94E07A.obj'
   2427B0   Module 'Obj\vpidomains.B7DBD831.obj'
   243DA0   Module 'Obj\vpitoolbar.D6B81945.obj'
   244870   Module 'Obj\istream_api.DFD1972C.obj'
   244910   Module 'Obj\commoncontrols_api.611053EE.obj'
   248D30   Module 'Obj\exe_api.BA152356.obj'
   248F90   Module 'Obj\filesystem_api.8DE14D9B.obj'
   24A220   Module 'Obj\gdiplus_api.C31FA6A1.obj'
   24AB70   Module 'Obj\gui_api.34C97AA6.obj'
   24CA70   Module 'Obj\header_api.B45CAFF1.obj'
   24CC30   Module 'Obj\icondirectory_api.6E2FBE44.obj'
   24CF40   Module 'Obj\imagelist_api.9161E3DD.obj'
   24CFF0   Module 'Obj\locale_api.5A96E013.obj'
   24D1F0   Module 'Obj\memory_api.91A25169.obj'
   24D420   Module 'Obj\multithread_api.0FAFDF41.obj'
   24D9F0   Module 'Obj\registry_api.FC65A32A.obj'
   24DB90   Module 'Obj\runtime_api.D29D3F6F.obj'
   24DCE0   Module 'Obj\scilexer_api.B9C68FFA.obj'
   24E100   Module 'Obj\shell_api.8228437A.obj'
   24E920   Module 'Obj\string_api.1AD1B52D.obj'
   24E9C0   Module 'Obj\string8_api.BA610187.obj'
   24EAF0   Module 'Obj\systeminformation_api.529C76B8.obj'
   24F0D0   Module 'Obj\time_api.F873F3B3.obj'
   24F400   Module 'Obj\uxtheme_api.B5024176.obj'
   24F490   Module 'Obj\windowsapi.7E7E0718.obj'
   24F640   Module 'Obj\aboutdialog.C4CC6B1D.obj'
   2516F0   Module 'Obj\binarycircuits.C39DDAAA.obj'
   251780   Module 'Obj\bmcform.6A63E4AF.obj'
   2549E0   Module 'Obj\main.A22FE9BF.obj'

Frame 256000   Size 0004B0.  Name=<   .data>, 	Chars=C0000040h. [IRW]
256000:000000 000498   .data::DATA::DGROUP F=4
   256000   Module 'Obj\binary.BAFC21B3.obj'
   256010   Module 'Obj\collectionsupport.792149C1.obj'
   256018   Module 'Obj\arraym_inline.60FB7E94.obj'
   256028   Module 'Obj\mapm_redblack.8B32AE36.obj'
   256030   Module 'Obj\queuem_fact.FE73A17F.obj'
   256038   Module 'Obj\setm_redblack.93B863A3.obj'
   256040   Module 'Obj\collectionmsupport.C8B1DC6C.obj'
   256048   Module 'Obj\mapmsupport.7A794CBB.obj'
   256050   Module 'Obj\event.7F9DC97F.obj'
   256090   Module 'Obj\exception.D4690B8C.obj'
   256098   Module 'Obj\filesystem.7029601A.obj'
   2560B0   Module 'Obj\checkcommand.BB3E3892.obj'
   2560B8   Module 'Obj\command.CA3EB146.obj'
   2560C4   Module 'Obj\customcommand.AE11A505.obj'
   2560CC   Module 'Obj\menucommand.74DA7E1F.obj'
   2560D4   Module 'Obj\commondialogs.04295316.obj'
   2560DC   Module 'Obj\controls.363FB18E.obj'
   256164   Module 'Obj\controlsupport.BED97958.obj'
   256198   Module 'Obj\listviewcontrol.85E99595.obj'
   2561A0   Module 'Obj\messagecontrol.71EAC8FF.obj'
   2561B8   Module 'Obj\navigationoverlay.DB25AE7D.obj'
   2561C4   Module 'Obj\ribboncontrol.D20F9C1C.obj'
   2561D8   Module 'Obj\ribbondesignerdlg.56B6615E.obj'
   2561E0   Module 'Obj\scilexer.3C7EBDAC.obj'
   2561E8   Module 'Obj\scilexersupport.81F1978C.obj'
   2561F8   Module 'Obj\splittercontrol.3D396B1A.obj'
   256200   Module 'Obj\statusbarcontrol.5D8188C3.obj'
   256210   Module 'Obj\dragndrop.6F2C210A.obj'
   256218   Module 'Obj\errorpresentationdialog.0BD1CEB3.obj'
   256220   Module 'Obj\gdiplus.A4A4230C.obj'
   2562F8   Module 'Obj\gui.EF789F46.obj'
   25634C   Module 'Obj\guisupport.49D10144.obj'
   256354   Module 'Obj\imagelist.03D8657B.obj'
   25635C   Module 'Obj\tooltip.E96A6F3C.obj'
   256374   Module 'Obj\tooltipsupport.00079999.obj'
   25637C   Module 'Obj\memory.292AC40E.obj'
   25638C   Module 'Obj\monitorqueue.9EE6368B.obj'
   256394   Module 'Obj\multithread.7430C03B.obj'
   2563D4   Module 'Obj\regex.AC53B9AD.obj'
   2563D8   Module 'Obj\inputstreamsupport.984B8D03.obj'
   2563E0   Module 'Obj\outputstreamsupport.F233041A.obj'
   2563E8   Module 'Obj\stream.B56EF16E.obj'
   256400   Module 'Obj\string.F9F3830B.obj'
   256410   Module 'Obj\templateexpander.24BA74A8.obj'
   256418   Module 'Obj\varm.7798368B.obj'
   256448   Module 'Obj\vpi.957343EE.obj'
   256454   Module 'Obj\filesystem_api.8DE14D9B.obj'
   25645C   Module 'Obj\gui_api.34C97AA6.obj'
   256464   Module 'Obj\header_api.B45CAFF1.obj'
   25646C   Module 'Obj\multithread_api.0FAFDF41.obj'
   256474   Module 'Obj\registry_api.FC65A32A.obj'
   256478   Module 'Obj\runtime_api.D29D3F6F.obj'
   25647C   Module 'Obj\systeminformation_api.529C76B8.obj'
   256480   Module 'Obj\time_api.F873F3B3.obj'
   256488   Module 'Obj\aboutdialog.C4CC6B1D.obj'
   256490   Module 'Obj\bmcform.6A63E4AF.obj'
256000:000498 00000C   .bss::BSS::DGROUP F=4
   256498   Module '..\..\..\_intermediate\sourceVS\vipInit\Win32\ReleasePE\VIPDll.obj'

Frame 257000   Size 0005D0.  Name=<  PRODBG>, 	Chars=40000040h. [IR]
257000:000000 0005D0   PRODBG::PRODBG::PRODBG F=4
   257000   Module 'Obj\exe.C97AE185.obj'
   257010   Module 'Obj\binary.BAFC21B3.obj'
   257020   Module 'Obj\boolean.71CAE6F2.obj'
   257030   Module 'Obj\redblackset.3F8B50C6.obj'
   257040   Module 'Obj\redblacktree.899B933C.obj'
   257050   Module 'Obj\collection.F916C46D.obj'
   257060   Module 'Obj\collectionsupport.792149C1.obj'
   257070   Module 'Obj\arraym_inline.60FB7E94.obj'
   257080   Module 'Obj\mapm_redblack.8B32AE36.obj'
   257090   Module 'Obj\queuem_fact.FE73A17F.obj'
   2570A0   Module 'Obj\setm_redblack.93B863A3.obj'
   2570B0   Module 'Obj\collectionmsupport.C8B1DC6C.obj'
   2570C0   Module 'Obj\mapmsupport.7A794CBB.obj'
   2570D0   Module 'Obj\core.C03ED02F.obj'
   2570E0   Module 'Obj\event.7F9DC97F.obj'
   2570F0   Module 'Obj\exception.D4690B8C.obj'
   257100   Module 'Obj\exceptiondump.F629D2CA.obj'
   257110   Module 'Obj\filesystem.7029601A.obj'
   257120   Module 'Obj\clipboard.A25DD7BF.obj'
   257130   Module 'Obj\checkcommand.BB3E3892.obj'
   257140   Module 'Obj\command.CA3EB146.obj'
   257150   Module 'Obj\customcommand.AE11A505.obj'
   257160   Module 'Obj\menucommand.74DA7E1F.obj'
   257170   Module 'Obj\commondialogs.04295316.obj'
   257180   Module 'Obj\controls.363FB18E.obj'
   257190   Module 'Obj\controlsupport.BED97958.obj'
   2571A0   Module 'Obj\listviewcontrol.85E99595.obj'
   2571B0   Module 'Obj\messagecontrol.71EAC8FF.obj'
   2571C0   Module 'Obj\navigationoverlay.DB25AE7D.obj'
   2571D0   Module 'Obj\ribboncontrol.D20F9C1C.obj'
   2571E0   Module 'Obj\ribbondesignerdlg.56B6615E.obj'
   2571F0   Module 'Obj\scilexer.3C7EBDAC.obj'
   257200   Module 'Obj\scilexersupport.81F1978C.obj'
   257210   Module 'Obj\splittercontrol.3D396B1A.obj'
   257220   Module 'Obj\statusbarcontrol.5D8188C3.obj'
   257230   Module 'Obj\dragndrop.6F2C210A.obj'
   257240   Module 'Obj\errorpresentationdialog.0BD1CEB3.obj'
   257250   Module 'Obj\gdiplus.A4A4230C.obj'
   257260   Module 'Obj\gui.EF789F46.obj'
   257270   Module 'Obj\guisupport.49D10144.obj'
   257280   Module 'Obj\imagelist.03D8657B.obj'
   257290   Module 'Obj\messageloop.E05665C7.obj'
   2572A0   Module 'Obj\tooltip.E96A6F3C.obj'
   2572B0   Module 'Obj\tooltipsupport.00079999.obj'
   2572C0   Module 'Obj\list.123C0D09.obj'
   2572D0   Module 'Obj\math.F67DDF29.obj'
   2572E0   Module 'Obj\memory.292AC40E.obj'
   2572F0   Module 'Obj\monitorqueue.9EE6368B.obj'
   257300   Module 'Obj\multithread.7430C03B.obj'
   257310   Module 'Obj\namedvalue.D582E632.obj'
   257320   Module 'Obj\programcontrol.1FA27824.obj'
   257330   Module 'Obj\reflection.C011C112.obj'
   257340   Module 'Obj\typelibrary.BBCCD01B.obj'
   257350   Module 'Obj\regex.AC53B9AD.obj'
   257360   Module 'Obj\registry.BB9D824C.obj'
   257370   Module 'Obj\std.368AEC64.obj'
   257380   Module 'Obj\inputstreamsupport.984B8D03.obj'
   257390   Module 'Obj\outputstreamsupport.F233041A.obj'
   2573A0   Module 'Obj\stream.B56EF16E.obj'
   2573B0   Module 'Obj\string.F9F3830B.obj'
   2573C0   Module 'Obj\string8.0C66F215.obj'
   2573D0   Module 'Obj\templateexpander.24BA74A8.obj'
   2573E0   Module 'Obj\varm.7798368B.obj'
   2573F0   Module 'Obj\vpi.957343EE.obj'
   257400   Module 'Obj\vpi_native.AB94E07A.obj'
   257410   Module 'Obj\vpidomains.B7DBD831.obj'
   257420   Module 'Obj\vpitoolbar.D6B81945.obj'
   257430   Module 'Obj\istream_api.DFD1972C.obj'
   257440   Module 'Obj\commoncontrols_api.611053EE.obj'
   257450   Module 'Obj\exe_api.BA152356.obj'
   257460   Module 'Obj\filesystem_api.8DE14D9B.obj'
   257470   Module 'Obj\gdiplus_api.C31FA6A1.obj'
   257480   Module 'Obj\gui_api.34C97AA6.obj'
   257490   Module 'Obj\header_api.B45CAFF1.obj'
   2574A0   Module 'Obj\icondirectory_api.6E2FBE44.obj'
   2574B0   Module 'Obj\imagelist_api.9161E3DD.obj'
   2574C0   Module 'Obj\locale_api.5A96E013.obj'
   2574D0   Module 'Obj\memory_api.91A25169.obj'
   2574E0   Module 'Obj\multithread_api.0FAFDF41.obj'
   2574F0   Module 'Obj\registry_api.FC65A32A.obj'
   257500   Module 'Obj\runtime_api.D29D3F6F.obj'
   257510   Module 'Obj\scilexer_api.B9C68FFA.obj'
   257520   Module 'Obj\shell_api.8228437A.obj'
   257530   Module 'Obj\string_api.1AD1B52D.obj'
   257540   Module 'Obj\string8_api.BA610187.obj'
   257550   Module 'Obj\systeminformation_api.529C76B8.obj'
   257560   Module 'Obj\time_api.F873F3B3.obj'
   257570   Module 'Obj\uxtheme_api.B5024176.obj'
   257580   Module 'Obj\windowsapi.7E7E0718.obj'
   257590   Module 'Obj\aboutdialog.C4CC6B1D.obj'
   2575A0   Module 'Obj\binarycircuits.C39DDAAA.obj'
   2575B0   Module 'Obj\bmcform.6A63E4AF.obj'
   2575C0   Module 'Obj\main.A22FE9BF.obj'

Frame 258000   Size 000CC0.  Name=<  VIPini>, 	Chars=40000040h. [IR]
258000:000000 000004   VIPini$A::VIPini$A::VIPini F=4
   258000   Module 'Obj\main.A22FE9BF.obj'
258000:000004 00066C   VIPini$C::VIPini$C::VIPini F=4
   258004   Module 'Obj\exe.C97AE185.obj'
   258060   Module 'Obj\binary.BAFC21B3.obj'
   258084   Module 'Obj\boolean.71CAE6F2.obj'
   258088   Module 'Obj\redblackset.3F8B50C6.obj'
   25808C   Module 'Obj\redblacktree.899B933C.obj'
   258090   Module 'Obj\collection.F916C46D.obj'
   2580C0   Module 'Obj\collectionsupport.792149C1.obj'
   2580CC   Module 'Obj\arraym_inline.60FB7E94.obj'
   2580FC   Module 'Obj\mapm_redblack.8B32AE36.obj'
   258100   Module 'Obj\queuem_fact.FE73A17F.obj'
   258104   Module 'Obj\setm_redblack.93B863A3.obj'
   258108   Module 'Obj\collectionmsupport.C8B1DC6C.obj'
   25810C   Module 'Obj\mapmsupport.7A794CBB.obj'
   258110   Module 'Obj\core.C03ED02F.obj'
   258118   Module 'Obj\event.7F9DC97F.obj'
   258138   Module 'Obj\exception.D4690B8C.obj'
   258158   Module 'Obj\exceptiondump.F629D2CA.obj'
   25815C   Module 'Obj\filesystem.7029601A.obj'
   258184   Module 'Obj\clipboard.A25DD7BF.obj'
   2582D0   Module 'Obj\checkcommand.BB3E3892.obj'
   2582D8   Module 'Obj\command.CA3EB146.obj'
   2582DC   Module 'Obj\customcommand.AE11A505.obj'
   2582E4   Module 'Obj\menucommand.74DA7E1F.obj'
   2582EC   Module 'Obj\commondialogs.04295316.obj'
   2582FC   Module 'Obj\controls.363FB18E.obj'
   258364   Module 'Obj\controlsupport.BED97958.obj'
   25837C   Module 'Obj\listviewcontrol.85E99595.obj'
   258388   Module 'Obj\messagecontrol.71EAC8FF.obj'
   2583AC   Module 'Obj\navigationoverlay.DB25AE7D.obj'
   2583B4   Module 'Obj\ribboncontrol.D20F9C1C.obj'
   2583C8   Module 'Obj\ribbondesignerdlg.56B6615E.obj'
   2583DC   Module 'Obj\scilexer.3C7EBDAC.obj'
   2583E0   Module 'Obj\scilexersupport.81F1978C.obj'
   2583E8   Module 'Obj\splittercontrol.3D396B1A.obj'
   2583EC   Module 'Obj\statusbarcontrol.5D8188C3.obj'
   2583FC   Module 'Obj\dragndrop.6F2C210A.obj'
   258404   Module 'Obj\errorpresentationdialog.0BD1CEB3.obj'
   25840C   Module 'Obj\gdiplus.A4A4230C.obj'
   258480   Module 'Obj\gui.EF789F46.obj'
   2584D0   Module 'Obj\guisupport.49D10144.obj'
   2584D8   Module 'Obj\imagelist.03D8657B.obj'
   2584DC   Module 'Obj\messageloop.E05665C7.obj'
   2584E0   Module 'Obj\tooltip.E96A6F3C.obj'
   2584F0   Module 'Obj\tooltipsupport.00079999.obj'
   2584F4   Module 'Obj\list.123C0D09.obj'
   2584F8   Module 'Obj\math.F67DDF29.obj'
   258500   Module 'Obj\memory.292AC40E.obj'
   258510   Module 'Obj\monitorqueue.9EE6368B.obj'
   258514   Module 'Obj\multithread.7430C03B.obj'
   258534   Module 'Obj\namedvalue.D582E632.obj'
   258538   Module 'Obj\programcontrol.1FA27824.obj'
   25853C   Module 'Obj\reflection.C011C112.obj'
   258544   Module 'Obj\typelibrary.BBCCD01B.obj'
   258544   Module 'Obj\regex.AC53B9AD.obj'
   258548   Module 'Obj\registry.BB9D824C.obj'
   258550   Module 'Obj\std.368AEC64.obj'
   258554   Module 'Obj\inputstreamsupport.984B8D03.obj'
   258558   Module 'Obj\outputstreamsupport.F233041A.obj'
   25855C   Module 'Obj\stream.B56EF16E.obj'
   258570   Module 'Obj\string.F9F3830B.obj'
   258580   Module 'Obj\string8.0C66F215.obj'
   258584   Module 'Obj\templateexpander.24BA74A8.obj'
   258588   Module 'Obj\varm.7798368B.obj'
   2585A0   Module 'Obj\vpi.957343EE.obj'
   2585AC   Module 'Obj\vpi_native.AB94E07A.obj'
   2585B0   Module 'Obj\vpidomains.B7DBD831.obj'
   2585B8   Module 'Obj\vpitoolbar.D6B81945.obj'
   2585BC   Module 'Obj\istream_api.DFD1972C.obj'
   2585C0   Module 'Obj\commoncontrols_api.611053EE.obj'
   2585C8   Module 'Obj\exe_api.BA152356.obj'
   2585D0   Module 'Obj\filesystem_api.8DE14D9B.obj'
   2585DC   Module 'Obj\gdiplus_api.C31FA6A1.obj'
   2585E0   Module 'Obj\gui_api.34C97AA6.obj'
   2585E8   Module 'Obj\header_api.B45CAFF1.obj'
   2585EC   Module 'Obj\icondirectory_api.6E2FBE44.obj'
   2585F4   Module 'Obj\imagelist_api.9161E3DD.obj'
   2585F8   Module 'Obj\locale_api.5A96E013.obj'
   258600   Module 'Obj\memory_api.91A25169.obj'
   258608   Module 'Obj\multithread_api.0FAFDF41.obj'
   258610   Module 'Obj\registry_api.FC65A32A.obj'
   258618   Module 'Obj\runtime_api.D29D3F6F.obj'
   25861C   Module 'Obj\scilexer_api.B9C68FFA.obj'
   258624   Module 'Obj\shell_api.8228437A.obj'
   25862C   Module 'Obj\string_api.1AD1B52D.obj'
   258630   Module 'Obj\string8_api.BA610187.obj'
   258638   Module 'Obj\systeminformation_api.529C76B8.obj'
   258640   Module 'Obj\time_api.F873F3B3.obj'
   258648   Module 'Obj\uxtheme_api.B5024176.obj'
   25864C   Module 'Obj\windowsapi.7E7E0718.obj'
   258650   Module 'Obj\aboutdialog.C4CC6B1D.obj'
   258658   Module 'Obj\binarycircuits.C39DDAAA.obj'
   25865C   Module 'Obj\bmcform.6A63E4AF.obj'
   258664   Module 'Obj\main.A22FE9BF.obj'
258000:000670 000008   VIPini$E::VIPini$E::VIPini F=4
   258670   Module 'Obj\main.A22FE9BF.obj'

Frame 259000   Size 000010.  Name=<  VIPsym>, 	Chars=40000040h. [IR]
259000:000000 000004   VIPsym$A::VIPsym$A::VIPsym F=4
   259000   Module 'Obj\main.A22FE9BF.obj'
259000:000004 000000   VIPsym$C::VIPsym$C::VIPsym F=4
   259004   Module 'Obj\exe.C97AE185.obj'
   259004   Module 'Obj\binary.BAFC21B3.obj'
   259004   Module 'Obj\boolean.71CAE6F2.obj'
   259004   Module 'Obj\redblackset.3F8B50C6.obj'
   259004   Module 'Obj\redblacktree.899B933C.obj'
   259004   Module 'Obj\collection.F916C46D.obj'
   259004   Module 'Obj\collectionsupport.792149C1.obj'
   259004   Module 'Obj\arraym_inline.60FB7E94.obj'
   259004   Module 'Obj\mapm_redblack.8B32AE36.obj'
   259004   Module 'Obj\queuem_fact.FE73A17F.obj'
   259004   Module 'Obj\setm_redblack.93B863A3.obj'
   259004   Module 'Obj\collectionmsupport.C8B1DC6C.obj'
   259004   Module 'Obj\mapmsupport.7A794CBB.obj'
   259004   Module 'Obj\core.C03ED02F.obj'
   259004   Module 'Obj\event.7F9DC97F.obj'
   259004   Module 'Obj\exception.D4690B8C.obj'
   259004   Module 'Obj\exceptiondump.F629D2CA.obj'
   259004   Module 'Obj\filesystem.7029601A.obj'
   259004   Module 'Obj\clipboard.A25DD7BF.obj'
   259004   Module 'Obj\checkcommand.BB3E3892.obj'
   259004   Module 'Obj\command.CA3EB146.obj'
   259004   Module 'Obj\customcommand.AE11A505.obj'
   259004   Module 'Obj\menucommand.74DA7E1F.obj'
   259004   Module 'Obj\commondialogs.04295316.obj'
   259004   Module 'Obj\controls.363FB18E.obj'
   259004   Module 'Obj\controlsupport.BED97958.obj'
   259004   Module 'Obj\listviewcontrol.85E99595.obj'
   259004   Module 'Obj\messagecontrol.71EAC8FF.obj'
   259004   Module 'Obj\navigationoverlay.DB25AE7D.obj'
   259004   Module 'Obj\ribboncontrol.D20F9C1C.obj'
   259004   Module 'Obj\ribbondesignerdlg.56B6615E.obj'
   259004   Module 'Obj\scilexer.3C7EBDAC.obj'
   259004   Module 'Obj\scilexersupport.81F1978C.obj'
   259004   Module 'Obj\splittercontrol.3D396B1A.obj'
   259004   Module 'Obj\statusbarcontrol.5D8188C3.obj'
   259004   Module 'Obj\dragndrop.6F2C210A.obj'
   259004   Module 'Obj\errorpresentationdialog.0BD1CEB3.obj'
   259004   Module 'Obj\gdiplus.A4A4230C.obj'
   259004   Module 'Obj\gui.EF789F46.obj'
   259004   Module 'Obj\guisupport.49D10144.obj'
   259004   Module 'Obj\imagelist.03D8657B.obj'
   259004   Module 'Obj\messageloop.E05665C7.obj'
   259004   Module 'Obj\tooltip.E96A6F3C.obj'
   259004   Module 'Obj\tooltipsupport.00079999.obj'
   259004   Module 'Obj\list.123C0D09.obj'
   259004   Module 'Obj\math.F67DDF29.obj'
   259004   Module 'Obj\memory.292AC40E.obj'
   259004   Module 'Obj\monitorqueue.9EE6368B.obj'
   259004   Module 'Obj\multithread.7430C03B.obj'
   259004   Module 'Obj\namedvalue.D582E632.obj'
   259004   Module 'Obj\programcontrol.1FA27824.obj'
   259004   Module 'Obj\reflection.C011C112.obj'
   259004   Module 'Obj\typelibrary.BBCCD01B.obj'
   259004   Module 'Obj\regex.AC53B9AD.obj'
   259004   Module 'Obj\registry.BB9D824C.obj'
   259004   Module 'Obj\std.368AEC64.obj'
   259004   Module 'Obj\inputstreamsupport.984B8D03.obj'
   259004   Module 'Obj\outputstreamsupport.F233041A.obj'
   259004   Module 'Obj\stream.B56EF16E.obj'
   259004   Module 'Obj\string.F9F3830B.obj'
   259004   Module 'Obj\string8.0C66F215.obj'
   259004   Module 'Obj\templateexpander.24BA74A8.obj'
   259004   Module 'Obj\varm.7798368B.obj'
   259004   Module 'Obj\vpi.957343EE.obj'
   259004   Module 'Obj\vpi_native.AB94E07A.obj'
   259004   Module 'Obj\vpidomains.B7DBD831.obj'
   259004   Module 'Obj\vpitoolbar.D6B81945.obj'
   259004   Module 'Obj\istream_api.DFD1972C.obj'
   259004   Module 'Obj\commoncontrols_api.611053EE.obj'
   259004   Module 'Obj\exe_api.BA152356.obj'
   259004   Module 'Obj\filesystem_api.8DE14D9B.obj'
   259004   Module 'Obj\gdiplus_api.C31FA6A1.obj'
   259004   Module 'Obj\gui_api.34C97AA6.obj'
   259004   Module 'Obj\header_api.B45CAFF1.obj'
   259004   Module 'Obj\icondirectory_api.6E2FBE44.obj'
   259004   Module 'Obj\imagelist_api.9161E3DD.obj'
   259004   Module 'Obj\locale_api.5A96E013.obj'
   259004   Module 'Obj\memory_api.91A25169.obj'
   259004   Module 'Obj\multithread_api.0FAFDF41.obj'
   259004   Module 'Obj\registry_api.FC65A32A.obj'
   259004   Module 'Obj\runtime_api.D29D3F6F.obj'
   259004   Module 'Obj\scilexer_api.B9C68FFA.obj'
   259004   Module 'Obj\shell_api.8228437A.obj'
   259004   Module 'Obj\string_api.1AD1B52D.obj'
   259004   Module 'Obj\string8_api.BA610187.obj'
   259004   Module 'Obj\systeminformation_api.529C76B8.obj'
   259004   Module 'Obj\time_api.F873F3B3.obj'
   259004   Module 'Obj\uxtheme_api.B5024176.obj'
   259004   Module 'Obj\windowsapi.7E7E0718.obj'
   259004   Module 'Obj\aboutdialog.C4CC6B1D.obj'
   259004   Module 'Obj\binarycircuits.C39DDAAA.obj'
   259004   Module 'Obj\bmcform.6A63E4AF.obj'
   259004   Module 'Obj\main.A22FE9BF.obj'
259000:000004 000008   VIPsym$E::VIPsym$E::VIPsym F=4
   259004   Module 'Obj\main.A22FE9BF.obj'

Frame 25A000   Size 0020C0.  Name=<  VIPtpd>, 	Chars=40000040h. [IR]
25A000:000000 000004   VIPtpd$A::VIPtpd$A::VIPtpd F=4
   25A000   Module 'Obj\main.A22FE9BF.obj'
25A000:000004 0020A8   VIPtpd$C::VIPtpd$C::VIPtpd F=4
   25A004   Module 'Obj\exe.C97AE185.obj'
   25A090   Module 'Obj\binary.BAFC21B3.obj'
   25A0AC   Module 'Obj\boolean.71CAE6F2.obj'
   25A0AC   Module 'Obj\redblackset.3F8B50C6.obj'
   25A0B8   Module 'Obj\redblacktree.899B933C.obj'
   25A0D0   Module 'Obj\collection.F916C46D.obj'
   25A100   Module 'Obj\collectionsupport.792149C1.obj'
   25A110   Module 'Obj\arraym_inline.60FB7E94.obj'
   25A14C   Module 'Obj\mapm_redblack.8B32AE36.obj'
   25A154   Module 'Obj\queuem_fact.FE73A17F.obj'
   25A15C   Module 'Obj\setm_redblack.93B863A3.obj'
   25A164   Module 'Obj\collectionmsupport.C8B1DC6C.obj'
   25A16C   Module 'Obj\mapmsupport.7A794CBB.obj'
   25A174   Module 'Obj\core.C03ED02F.obj'
   25A318   Module 'Obj\event.7F9DC97F.obj'
   25A424   Module 'Obj\exception.D4690B8C.obj'
   25A454   Module 'Obj\exceptiondump.F629D2CA.obj'
   25A454   Module 'Obj\filesystem.7029601A.obj'
   25A4A4   Module 'Obj\clipboard.A25DD7BF.obj'
   25A750   Module 'Obj\checkcommand.BB3E3892.obj'
   25A758   Module 'Obj\command.CA3EB146.obj'
   25A760   Module 'Obj\customcommand.AE11A505.obj'
   25A768   Module 'Obj\menucommand.74DA7E1F.obj'
   25A780   Module 'Obj\commondialogs.04295316.obj'
   25AAB8   Module 'Obj\controls.363FB18E.obj'
   25ABD0   Module 'Obj\controlsupport.BED97958.obj'
   25ABF4   Module 'Obj\listviewcontrol.85E99595.obj'
   25ACA0   Module 'Obj\messagecontrol.71EAC8FF.obj'
   25AD00   Module 'Obj\navigationoverlay.DB25AE7D.obj'
   25AD48   Module 'Obj\ribboncontrol.D20F9C1C.obj'
   25ADE0   Module 'Obj\ribbondesignerdlg.56B6615E.obj'
   25AE78   Module 'Obj\scilexer.3C7EBDAC.obj'
   25AE88   Module 'Obj\scilexersupport.81F1978C.obj'
   25AEBC   Module 'Obj\splittercontrol.3D396B1A.obj'
   25AEC0   Module 'Obj\statusbarcontrol.5D8188C3.obj'
   25AEE0   Module 'Obj\dragndrop.6F2C210A.obj'
   25AEFC   Module 'Obj\errorpresentationdialog.0BD1CEB3.obj'
   25AF1C   Module 'Obj\gdiplus.A4A4230C.obj'
   25AFC8   Module 'Obj\gui.EF789F46.obj'
   25B0BC   Module 'Obj\guisupport.49D10144.obj'
   25B0C8   Module 'Obj\imagelist.03D8657B.obj'
   25B0D0   Module 'Obj\messageloop.E05665C7.obj'
   25B0D8   Module 'Obj\tooltip.E96A6F3C.obj'
   25B0F0   Module 'Obj\tooltipsupport.00079999.obj'
   25B100   Module 'Obj\list.123C0D09.obj'
   25B130   Module 'Obj\math.F67DDF29.obj'
   25B13C   Module 'Obj\memory.292AC40E.obj'
   25B248   Module 'Obj\monitorqueue.9EE6368B.obj'
   25B258   Module 'Obj\multithread.7430C03B.obj'
   25B28C   Module 'Obj\namedvalue.D582E632.obj'
   25B28C   Module 'Obj\programcontrol.1FA27824.obj'
   25B294   Module 'Obj\reflection.C011C112.obj'
   25B2C8   Module 'Obj\typelibrary.BBCCD01B.obj'
   25B2C8   Module 'Obj\regex.AC53B9AD.obj'
   25B30C   Module 'Obj\registry.BB9D824C.obj'
   25B314   Module 'Obj\std.368AEC64.obj'
   25B314   Module 'Obj\inputstreamsupport.984B8D03.obj'
   25B328   Module 'Obj\outputstreamsupport.F233041A.obj'
   25B32C   Module 'Obj\stream.B56EF16E.obj'
   25B33C   Module 'Obj\string.F9F3830B.obj'
   25B364   Module 'Obj\string8.0C66F215.obj'
   25B364   Module 'Obj\templateexpander.24BA74A8.obj'
   25B378   Module 'Obj\varm.7798368B.obj'
   25B3B4   Module 'Obj\vpi.957343EE.obj'
   25B678   Module 'Obj\vpi_native.AB94E07A.obj'
   25B6D0   Module 'Obj\vpidomains.B7DBD831.obj'
   25B728   Module 'Obj\vpitoolbar.D6B81945.obj'
   25B754   Module 'Obj\istream_api.DFD1972C.obj'
   25B7E8   Module 'Obj\commoncontrols_api.611053EE.obj'
   25BA68   Module 'Obj\exe_api.BA152356.obj'
   25BA70   Module 'Obj\filesystem_api.8DE14D9B.obj'
   25BAD0   Module 'Obj\gdiplus_api.C31FA6A1.obj'
   25BB28   Module 'Obj\gui_api.34C97AA6.obj'
   25BC50   Module 'Obj\header_api.B45CAFF1.obj'
   25BC68   Module 'Obj\icondirectory_api.6E2FBE44.obj'
   25BCAC   Module 'Obj\imagelist_api.9161E3DD.obj'
   25BCAC   Module 'Obj\locale_api.5A96E013.obj'
   25BCC0   Module 'Obj\memory_api.91A25169.obj'
   25BCC8   Module 'Obj\multithread_api.0FAFDF41.obj'
   25BCF4   Module 'Obj\registry_api.FC65A32A.obj'
   25BCF8   Module 'Obj\runtime_api.D29D3F6F.obj'
   25BCFC   Module 'Obj\scilexer_api.B9C68FFA.obj'
   25BD14   Module 'Obj\shell_api.8228437A.obj'
   25BD50   Module 'Obj\string_api.1AD1B52D.obj'
   25BD50   Module 'Obj\string8_api.BA610187.obj'
   25BD50   Module 'Obj\systeminformation_api.529C76B8.obj'
   25BD6C   Module 'Obj\time_api.F873F3B3.obj'
   25BD80   Module 'Obj\uxtheme_api.B5024176.obj'
   25BD80   Module 'Obj\windowsapi.7E7E0718.obj'
   25BD8C   Module 'Obj\aboutdialog.C4CC6B1D.obj'
   25C03C   Module 'Obj\binarycircuits.C39DDAAA.obj'
   25C03C   Module 'Obj\bmcform.6A63E4AF.obj'
   25C048   Module 'Obj\main.A22FE9BF.obj'
25A000:0020AC 000008   VIPtpd$E::VIPtpd$E::VIPtpd F=4
   25C0AC   Module 'Obj\main.A22FE9BF.obj'

Frame 25D000   Size 0023E0.  Name=<  VIPtpl>, 	Chars=40000040h. [IR]
25D000:000000 000004   VIPtpl$A::VIPtpl$A::VIPtpl F=4
   25D000   Module 'Obj\main.A22FE9BF.obj'
25D000:000004 0023D0   VIPtpl$C::VIPtpl$C::VIPtpl F=4
   25D004   Module 'Obj\exe.C97AE185.obj'
   25D06C   Module 'Obj\binary.BAFC21B3.obj'
   25D0A0   Module 'Obj\boolean.71CAE6F2.obj'
   25D0A0   Module 'Obj\redblackset.3F8B50C6.obj'
   25D0A8   Module 'Obj\redblacktree.899B933C.obj'
   25D0B4   Module 'Obj\collection.F916C46D.obj'
   25D0B4   Module 'Obj\collectionsupport.792149C1.obj'
   25D0BC   Module 'Obj\arraym_inline.60FB7E94.obj'
   25D0E4   Module 'Obj\mapm_redblack.8B32AE36.obj'
   25D0EC   Module 'Obj\queuem_fact.FE73A17F.obj'
   25D0F4   Module 'Obj\setm_redblack.93B863A3.obj'
   25D0FC   Module 'Obj\collectionmsupport.C8B1DC6C.obj'
   25D104   Module 'Obj\mapmsupport.7A794CBB.obj'
   25D110   Module 'Obj\core.C03ED02F.obj'
   25D2B4   Module 'Obj\event.7F9DC97F.obj'
   25D3E0   Module 'Obj\exception.D4690B8C.obj'
   25D424   Module 'Obj\exceptiondump.F629D2CA.obj'
   25D484   Module 'Obj\filesystem.7029601A.obj'
   25D4E8   Module 'Obj\clipboard.A25DD7BF.obj'
   25D7A4   Module 'Obj\checkcommand.BB3E3892.obj'
   25D7AC   Module 'Obj\command.CA3EB146.obj'
   25D7C4   Module 'Obj\customcommand.AE11A505.obj'
   25D7CC   Module 'Obj\menucommand.74DA7E1F.obj'
   25D7F8   Module 'Obj\commondialogs.04295316.obj'
   25DB14   Module 'Obj\controls.363FB18E.obj'
   25DC30   Module 'Obj\controlsupport.BED97958.obj'
   25DC88   Module 'Obj\listviewcontrol.85E99595.obj'
   25DD58   Module 'Obj\messagecontrol.71EAC8FF.obj'
   25DDC0   Module 'Obj\navigationoverlay.DB25AE7D.obj'
   25DE20   Module 'Obj\ribboncontrol.D20F9C1C.obj'
   25DF14   Module 'Obj\ribbondesignerdlg.56B6615E.obj'
   25DFE4   Module 'Obj\scilexer.3C7EBDAC.obj'
   25E030   Module 'Obj\scilexersupport.81F1978C.obj'
   25E074   Module 'Obj\splittercontrol.3D396B1A.obj'
   25E088   Module 'Obj\statusbarcontrol.5D8188C3.obj'
   25E0C0   Module 'Obj\dragndrop.6F2C210A.obj'
   25E104   Module 'Obj\errorpresentationdialog.0BD1CEB3.obj'
   25E12C   Module 'Obj\gdiplus.A4A4230C.obj'
   25E20C   Module 'Obj\gui.EF789F46.obj'
   25E3B0   Module 'Obj\guisupport.49D10144.obj'
   25E3C4   Module 'Obj\imagelist.03D8657B.obj'
   25E3CC   Module 'Obj\messageloop.E05665C7.obj'
   25E3D4   Module 'Obj\tooltip.E96A6F3C.obj'
   25E3EC   Module 'Obj\tooltipsupport.00079999.obj'
   25E404   Module 'Obj\list.123C0D09.obj'
   25E43C   Module 'Obj\math.F67DDF29.obj'
   25E448   Module 'Obj\memory.292AC40E.obj'
   25E538   Module 'Obj\monitorqueue.9EE6368B.obj'
   25E548   Module 'Obj\multithread.7430C03B.obj'
   25E588   Module 'Obj\namedvalue.D582E632.obj'
   25E598   Module 'Obj\programcontrol.1FA27824.obj'
   25E5A0   Module 'Obj\reflection.C011C112.obj'
   25E5E0   Module 'Obj\typelibrary.BBCCD01B.obj'
   25E5E0   Module 'Obj\regex.AC53B9AD.obj'
   25E604   Module 'Obj\registry.BB9D824C.obj'
   25E610   Module 'Obj\std.368AEC64.obj'
   25E610   Module 'Obj\inputstreamsupport.984B8D03.obj'
   25E624   Module 'Obj\outputstreamsupport.F233041A.obj'
   25E630   Module 'Obj\stream.B56EF16E.obj'
   25E644   Module 'Obj\string.F9F3830B.obj'
   25E68C   Module 'Obj\string8.0C66F215.obj'
   25E694   Module 'Obj\templateexpander.24BA74A8.obj'
   25E6B0   Module 'Obj\varm.7798368B.obj'
   25E6F4   Module 'Obj\vpi.957343EE.obj'
   25E9C0   Module 'Obj\vpi_native.AB94E07A.obj'
   25EA14   Module 'Obj\vpidomains.B7DBD831.obj'
   25EA70   Module 'Obj\vpitoolbar.D6B81945.obj'
   25EA9C   Module 'Obj\istream_api.DFD1972C.obj'
   25EB0C   Module 'Obj\commoncontrols_api.611053EE.obj'
   25ED74   Module 'Obj\exe_api.BA152356.obj'
   25ED7C   Module 'Obj\filesystem_api.8DE14D9B.obj'
   25EDE4   Module 'Obj\gdiplus_api.C31FA6A1.obj'
   25EE3C   Module 'Obj\gui_api.34C97AA6.obj'
   25EF7C   Module 'Obj\header_api.B45CAFF1.obj'
   25EFA0   Module 'Obj\icondirectory_api.6E2FBE44.obj'
   25EFB8   Module 'Obj\imagelist_api.9161E3DD.obj'
   25EFB8   Module 'Obj\locale_api.5A96E013.obj'
   25EFCC   Module 'Obj\memory_api.91A25169.obj'
   25EFE0   Module 'Obj\multithread_api.0FAFDF41.obj'
   25F010   Module 'Obj\registry_api.FC65A32A.obj'
   25F018   Module 'Obj\runtime_api.D29D3F6F.obj'
   25F028   Module 'Obj\scilexer_api.B9C68FFA.obj'
   25F040   Module 'Obj\shell_api.8228437A.obj'
   25F074   Module 'Obj\string_api.1AD1B52D.obj'
   25F074   Module 'Obj\string8_api.BA610187.obj'
   25F074   Module 'Obj\systeminformation_api.529C76B8.obj'
   25F08C   Module 'Obj\time_api.F873F3B3.obj'
   25F09C   Module 'Obj\uxtheme_api.B5024176.obj'
   25F0A0   Module 'Obj\windowsapi.7E7E0718.obj'
   25F0B0   Module 'Obj\aboutdialog.C4CC6B1D.obj'
   25F360   Module 'Obj\binarycircuits.C39DDAAA.obj'
   25F360   Module 'Obj\bmcform.6A63E4AF.obj'
   25F378   Module 'Obj\main.A22FE9BF.obj'
25D000:0023D4 000008   VIPtpl$E::VIPtpl$E::VIPtpl F=4
   25F3D4   Module 'Obj\main.A22FE9BF.obj'

Frame 260000   Size 000260.  Name=< .gcroot>, 	Chars=C0000040h. [IRW]
260000:000000 000258   .gcroot::.gcroot::.gcroot F=4
   260000   Module 'Obj\exe.C97AE185.obj'
   260004   Module 'Obj\clipboard.A25DD7BF.obj'
   260008   Module 'Obj\menucommand.74DA7E1F.obj'
   26000C   Module 'Obj\controls.363FB18E.obj'
   260044   Module 'Obj\listviewcontrol.85E99595.obj'
   260048   Module 'Obj\navigationoverlay.DB25AE7D.obj'
   260068   Module 'Obj\ribboncontrol.D20F9C1C.obj'
   260074   Module 'Obj\ribbondesignerdlg.56B6615E.obj'
   260084   Module 'Obj\scilexer.3C7EBDAC.obj'
   2600A0   Module 'Obj\scilexersupport.81F1978C.obj'
   2600DC   Module 'Obj\dragndrop.6F2C210A.obj'
   260108   Module 'Obj\errorpresentationdialog.0BD1CEB3.obj'
   260144   Module 'Obj\gdiplus.A4A4230C.obj'
   260150   Module 'Obj\gui.EF789F46.obj'
   260184   Module 'Obj\messageloop.E05665C7.obj'
   260188   Module 'Obj\tooltip.E96A6F3C.obj'
   26018C   Module 'Obj\tooltipsupport.00079999.obj'
   260194   Module 'Obj\multithread.7430C03B.obj'
   2601A0   Module 'Obj\stream.B56EF16E.obj'
   2601AC   Module 'Obj\vpi.957343EE.obj'
   2601D4   Module 'Obj\vpitoolbar.D6B81945.obj'
   260250   Module 'Obj\multithread_api.0FAFDF41.obj'
   260254   Module 'Obj\runtime_api.D29D3F6F.obj'

	     ------- Names by value Map ---------
Frame 001000   Size 13DB00.  Name=<   .text>, 	Chars=60000020h. [CER]
001000:000000 13D920   .text::CODE::<no group> F=4
--- From 'Obj\gui.EF789F46.obj'
01:00001000 ?run@mainExe@@SAXX@Z 
--- From 'Obj\exe.C97AE185.obj'
01:00001014 ?run@mainExe@@SAXXPAUrunMode_struct@exe_api@@@Z 
01:000010FC ?_getCommandLine@mainExe@@SAXPAPB_W@Z  (Idle)
01:0000116C ?_parseCommandLine@mainExe@@SAXPB_W_W0PAPB_W@Z 
01:00001230 ?_getPosition@mainExe@@SAXPB_W_WAAUcharCount@@@Z 
01:00001274 ?getFileName@mainExe@@SAXPAPB_W0@Z  (Idle)
--- From 'Obj\controls.363FB18E.obj'
01:000012B0 ?_getFileName@mainExe@@SAXPAPB_W@Z 
--- From 'Obj\gui_api.34C97AA6.obj'
01:000012CC ?_getCurrentHinstance@mainExe@@SAXAAUhModule@@@Z 
--- From 'Obj\exe.C97AE185.obj'
01:000012E0 ?runCom@mainExe@@SAXX@Z  (Idle)
01:000012E8 ?runOle@mainExe@@SAXX@Z  (Idle)
--- From 'Obj\vpi.957343EE.obj'
01:000012F0 ?exceptionDumper@mainExe@@SGXX@Z 
01:000012FC ?exceptionDumper@mainExe@@SGXXZ 
--- From 'Obj\binary.BAFC21B3.obj'
01:00001310 ?new@outputStream_binary@@SAXQAV1@@@Z  (Idle)
01:000013B0 ?size@outputStream_binary@@SGPBUbyteCount@@QAV1@@@Z 
01:00001450 ?setMode@outputStream_binary@@SGXQAVstream@@@PAUmode_struct@2@@Z 
01:00001498 ?flush@outputStream_binary@@SAXQAVoutputStream@@@@Z 
01:000014A0 ?close@outputStream_binary@@SGXQAVstream@@@@Z 
01:000014E8 ?bufferFullCallBack@outputStream_binary@@SAXQAV1@@PAPAXAAUbyteCount@@@Z  (Idle)
01:00001564 ?get_buffer_from_db@outputStream_binary@@SAXQAV1@@IPAPAXAAUbyteCount@@@Z 
01:000015CC ?_getBinary@outputStream_binary@@SAXQAV1@@QAPAE@Z 
01:00001684 ?_getMemory@outputStream_binary@@SAXQAV1@@PAPAX@Z 
01:0000173C ?writeBuffersToBinary@outputStream_binary@@SAXQAV1@@PAX@Z 
01:000017B8 ?writeSingleBufferToBinary@outputStream_binary@@SAXPAXPBUbyteCount@@PAX1@Z 
01:000017EC ?getPosition@outputStream_binary@@SGPBUfileSize@fileSystem_api@@QAVstream@@@@Z 
01:000018B8 ?setPosition@outputStream_binary@@SGXQAVstream@@@PBUfileSize@fileSystem_api@@@Z 
01:00001924 ?handleSetOffset@outputStream_binary@@SAXQAV1@@PBUbyteCount@@@Z 
01:000019AC ?updateCurrentBuffer@outputStream_binary@@SAXQAV1@@@Z 
01:00001B18 ?findBufferForOffset@outputStream_binary@@SAXQAV1@@PBUbyteCount@@PAIPAPAXAAU3@4@Z 
01:00001BA4 ?handleBiggerOffset@outputStream_binary@@SAXQAV1@@PBUbyteCount@@@Z 
01:00001D28 ?_newBuffer@outputStream_binary@@SAXQAV1@@PBUbyteCount@@PAPAX@Z 
01:00001DBC ?_getSizeBefore@outputStream_binary@@SAXQAV1@@IAAUbyteCount@@@Z 
01:00001E40 ?bufferNotFound_exception@outputStream_binary@@SAXI@Z 
01:00001E80 ?checkUsePrevBuff@outputStream_binary@@SAXQAV1@@@Z  (Idle)
01:00001EDC ?getBuffer@outputStream_binary@@SGXQAVbufferSupport@@@PAPAXAAUbyteCount@@@Z 
01:00001F64 ?getBufferLocked@outputStream_binary@@SGXQAVbufferSupport@@@PAPAXAAUbyteCount@@@Z 
--- From 'Obj\gui_api.34C97AA6.obj'
01:00001F80 ?_new@outputStream_binary@@SAXPAPAV1@@@Z 
--- From 'Obj\binary.BAFC21B3.obj'
01:00001FA8 ?_object_facts_initializer@outputStream_binary@@SGXQAV1@@@Z 
01:00001FC8 ?new@inputStream_binary@@SAXQAV1@@QAE@Z  (Idle)
01:00001FFC ?new_pointer@inputStream_binary@@SAXQAV1@@PAXPBUbyteCount@core@@@Z 
01:00002034 ?setMode@inputStream_binary@@SGXQAVstream@@@PAUmode_struct@2@@Z 
01:0000207C ?close@inputStream_binary@@SGXQAVstream@@@@Z 
01:00002094 ?getCRLFconversion@inputStream_binary@@SGPAUboolean_struct@_builtIn@@QAVstream@@@@Z 
01:000020AC ?setCRLFconversion@inputStream_binary@@SGXQAVstream@@@PAUboolean_struct@_builtIn@@@Z 
01:000020D4 ?getPosition@inputStream_binary@@SGPBUfileSize@fileSystem_api@@QAVstream@@@@Z 
01:000020F8 ?setPosition@inputStream_binary@@SGXQAVstream@@@PBUfileSize@fileSystem_api@@@Z 
01:00002164 ?getBuffer@inputStream_binary@@SGXQAVbufferSupport@@@PAPAXAAUbyteCount@@@Z 
01:00002180 ?getBufferLocked@inputStream_binary@@SGXQAVbufferSupport@@@PAPAXAAUbyteCount@@@Z 
01:0000219C ?_new@inputStream_binary@@SAXQAEPAPAVinputStream@@@@Z  (Idle)
01:000021C4 ?_new_pointer@inputStream_binary@@SAXPAXPBUbyteCount@core@@PAPAVinputStream@@@@Z  (Idle)
01:000021F0 ?_object_facts_initializer@inputStream_binary@@SGXQAV1@@@Z 
01:00002208 ?raise_invalidCompressionFormat_explicit@binary_exception@@SAXPAUprogramPoint_struct@core@@QAE@Z  (Idle)
01:0000227C ?raise_internalDecodeError_explicit@binary_exception@@SAXPAUprogramPoint_struct@core@@QAE@Z  (Idle)
--- From 'Obj\arraym_inline.60FB7E94.obj'
01:000022F0 ?raise_indexOutOfRange_explicit@binary_exception@@SAXPAUprogramPoint_struct@core@@PBUbyteCount@@11@Z 
--- From 'Obj\binary.BAFC21B3.obj'
01:0000241C ?raise_wrongBinaryFormat_explicit@binary_exception@@SAXPAUprogramPoint_struct@core@@QAE@Z  (Idle)
01:00002490 ?raise_wrongBinaryFormat_explicit@binary_exception@@SAXPAUprogramPoint_struct@core@@PBUbinaryNonAtomic@@@Z  (Idle)
01:00002504 ?_create0binaryAtomic@binary@@SAXQAPAE@Z  (Idle)
01:00002524 ?_create0binaryNonAtomic@binary@@SAXAAU2@@Z  (Idle)
--- From 'Obj\gdiplus.A4A4230C.obj'
01:00002544 ?_createNonAtomic@binary@@SAXPBUbyteCount@@AAUbinaryNonAtomic@@@Z 
--- From 'Obj\binary.BAFC21B3.obj'
01:00002584 ?_createNonAtomic@binary@@SAXPBUpositive@@PBUbyteCount@@AAUbinaryNonAtomic@@@Z  (Idle)
--- From 'Obj\vpi.957343EE.obj'
01:000025A4 ?_createAtomic@binary@@SAXPBUbyteCount@@QAPAE@Z 
--- From 'Obj\binary.BAFC21B3.obj'
01:000025E8 ?_createAtomic@binary@@SAXPBUpositive@@PBUbyteCount@@QAPAE@Z  (Idle)
01:00002608 ?_makeBinary@binary@@SAXPBUbyteCount@@QAPAE@Z 
01:00002660 ?_makeBinaryNonAtomic@binary@@SAXPBUbyteCount@@AAUbinaryNonAtomic@@@Z 
01:000026B8 ?_allocateNonAtomicBinary@binary@@SAXPBUbyteCount@@PAPAX@Z 
01:00002704 ?_createCopyNonAtomic@binary@@SAXPBUbinaryNonAtomic@@AAU2@@Z  (Idle)
01:00002780 ?_createCopyAtomic@binary@@SAXQAEQAPAE@Z  (Idle)
01:00002800 ?_createNonAtomicFromPointer@binary@@SAXPAXPBUbyteCount@@AAUbinaryNonAtomic@@@Z  (Idle)
--- From 'Obj\registry_api.FC65A32A.obj'
01:00002844 ?_createAtomicFromPointer@binary@@SAXPAXPBUbyteCount@@QAPAE@Z 
--- From 'Obj\statusbarcontrol.5D8188C3.obj'
01:00002888 ?_createAtomicFromIntegerList@binary@@SAXPAU?$__packedList_struct@Uinteger@@@@QAPAE@Z 
--- From 'Obj\registry_api.FC65A32A.obj'
01:000028E0 ?_getSize@binary@@SAXQAEAAUbyteCount@@@Z 
--- From 'Obj\binary.BAFC21B3.obj'
01:000028FC ?_getBinaryHeaderPtr@binary@@SAXQAEPAPAX@Z  (Idle)
01:00002934 ?_reSizeNonAtomic@binary@@SAXPBUbinaryNonAtomic@@PBUbyteCount@@AAU2@@Z  (Idle)
01:000029E0 ?_reSizeAtomic@binary@@SAXQAEPBUbyteCount@@QAPAE@Z  (Idle)
01:00002A8C ?_concatNonAtomic@binary@@SAXPBUbinaryNonAtomic@@0AAU2@@Z  (Idle)
01:00002B04 ?_concatAtomic@binary@@SAXQAEQAEQAPAE@Z  (Idle)
01:00002B7C ?_insertAtomic@binary@@SAXQAEPBUbyteCount@@QAEQAPAE@Z  (Idle)
01:00002C54 ?_insertNonAtomic@binary@@SAXPBUbinaryNonAtomic@@PBUbyteCount@@QAEAAU2@@Z  (Idle)
01:00002D2C ?_deleteAtomic@binary@@SAXQAEPBUbyteCount@@1QAPAE@Z  (Idle)
01:00002DCC ?_deleteNonAtomic@binary@@SAXPBUbinaryNonAtomic@@PBUbyteCount@@1AAU2@@Z  (Idle)
--- From 'Obj\vpi.957343EE.obj'
01:00002E6C ?_getIndexed_unsigned8@binary@@SAXQAEPBUpositive@@AAU3@@Z 
--- From 'Obj\exe_api.BA152356.obj'
01:00002EB8 ?_getIndexed_unsigned16@binary@@SAXQAEPBUpositive@@AAU3@@Z 
--- From 'Obj\binary.BAFC21B3.obj'
01:00002F08 ?_getIndexed_unsigned64@binary@@SAXQAEPBUpositive@@PAPA_K@Z  (Idle)
01:00002F58 ?_getIndexed_integer8@binary@@SAXQAEPBUpositive@@AAU3@@Z  (Idle)
01:00002FA4 ?_getIndexed_integer16@binary@@SAXQAEPBUpositive@@AAU3@@Z  (Idle)
01:00002FF4 ?_getIndexed_integer64@binary@@SAXQAEPBUpositive@@PAPA_J@Z  (Idle)
--- From 'Obj\exception.D4690B8C.obj'
01:00003044 ?_getIndexed_unsignedNative@binary@@SAXQAEPBUpositive@@AAU3@@Z 
--- From 'Obj\gui.EF789F46.obj'
01:00003094 ?_getIndexed_unsigned@binary@@SAXQAEPBUpositive@@PAI@Z 
--- From 'Obj\binary.BAFC21B3.obj'
01:000030E4 ?_getIndexed_integerNative@binary@@SAXQAEPBUpositive@@AAU3@@Z  (Idle)
--- From 'Obj\listviewcontrol.85E99595.obj'
01:00003134 ?_getIndexed_integer@binary@@SAXQAEPBUpositive@@PAH@Z 
--- From 'Obj\binary.BAFC21B3.obj'
01:00003184 ?_getIndexed_real32@binary@@SAXQAEPBUpositive@@PAM@Z  (Idle)
01:000031D4 ?_getIndexed_real@binary@@SAXQAEPBUpositive@@PAPAN@Z  (Idle)
01:00003224 ?_getIndexed_pointer@binary@@SAXPBUbinaryNonAtomic@@PBUpositive@@PAPAX@Z  (Idle)
01:00003274 ?_getIndexed_object@binary@@SAXPBUbinaryNonAtomic@@PBUpositive@@PAPAV4@@@Z  (Idle)
01:000032D0 ?_getIndexed_string@binary@@SAXPBUbinaryNonAtomic@@PBUpositive@@PAPB_W@Z  (Idle)
01:0000332C ?setIndexed_unsigned8@binary@@SAXQAEPBUpositive@@PBU3@@Z  (Idle)
01:00003378 ?setIndexed_unsigned16@binary@@SAXQAEPBUpositive@@PBU3@@Z  (Idle)
01:000033C8 ?setIndexed_unsigned64@binary@@SAXQAEPBUpositive@@PA_K@Z  (Idle)
01:00003418 ?setIndexed_integer8@binary@@SAXQAEPBUpositive@@PBU3@@Z  (Idle)
01:00003464 ?setIndexed_integer16@binary@@SAXQAEPBUpositive@@PBU3@@Z  (Idle)
01:000034B4 ?setIndexed_integer64@binary@@SAXQAEPBUpositive@@PA_J@Z  (Idle)
01:00003504 ?setIndexed_integerNative@binary@@SAXQAEPBUpositive@@PBU3@@Z  (Idle)
--- From 'Obj\vpi.957343EE.obj'
01:00003554 ?setIndexed_integer@binary@@SAXQAEPBUpositive@@H@Z 
--- From 'Obj\binary.BAFC21B3.obj'
01:000035A4 ?setIndexed_unsignedNative@binary@@SAXQAEPBUpositive@@PBU3@@Z  (Idle)
01:000035F4 ?setIndexed_unsigned@binary@@SAXQAEPBUpositive@@I@Z  (Idle)
01:00003644 ?setIndexed_real32@binary@@SAXQAEPBUpositive@@M@Z  (Idle)
01:00003694 ?setIndexed_real@binary@@SAXQAEPBUpositive@@PAN@Z  (Idle)
01:000036E4 ?setIndexed_pointer@binary@@SAXPBUbinaryNonAtomic@@PBUpositive@@PAX@Z  (Idle)
01:00003734 ?setIndexed_object@binary@@SAXPBUbinaryNonAtomic@@PBUpositive@@QAV4@@@Z  (Idle)
01:00003784 ?setIndexed_string@binary@@SAXPBUbinaryNonAtomic@@PBUpositive@@PB_W@Z  (Idle)
01:000037D4 ?_getBinaryNonAtomic@binary@@SAXPBUbinaryNonAtomic@@PBUbyteCount@@1AAU2@@Z  (Idle)
01:00003874 ?_getBinaryAtomic@binary@@SAXQAEPBUbyteCount@@1QAPAE@Z  (Idle)
01:00003914 ?setBinaryNonAtomic@binary@@SAXPBUbinaryNonAtomic@@PBUbyteCount@@QAE@Z  (Idle)
01:000039B4 ?setBinaryAtomic@binary@@SAXQAEPBUbyteCount@@QAE@Z  (Idle)
--- From 'Obj\vpi.957343EE.obj'
01:00003A64 ?setValue@binary@@SAXQAEPBUbyteCount@@PAUvalue_struct@core@@@Z 
--- From 'Obj\binary.BAFC21B3.obj'
01:00003FA4 $getValue$binary_class$predicate$(i,i,unsigned64(o))$b$_c89  (Idle)
01:00003FF8 ?_getString@binary@@SAXPAXPBUcharCount@@PAPB_W@Z  (Idle)
01:000040EC ?checkOffsetForSetGetValue@binary@@SAXQAEPBUbyteCount@@1@Z 
01:0000412C ?fillFromIntegerList@binary@@SAXQAEPBUpositive@@PAU?$__packedList_struct@Uinteger@@@@@Z 
01:00004174 ?copyTailIfNeeded@binary@@SAXQAEPBUbyteCount@@1QAE1@Z 
01:000041D8 ?splitBinaryNonAtomic@binary@@SAXPBUbinaryNonAtomic@@PBUbyteCount@@AAU2@2@Z  (Idle)
01:00004218 ?splitBinaryAtomic@binary@@SAXQAEPBUbyteCount@@QAPAE2@Z  (Idle)
01:00004258 ?_binaryToStringList@binary@@SAXQAEPAPAU?$__packedList_struct@Ustring@@@@@Z  (Idle)
01:00004294 ?_getStringList@binary@@SAXPAXPBUbyteCount@@PAPAU?$__packedList_struct@Ustring@@@@@Z 
01:000043F0 ?_search@binary@@SAXQAEQAEAAUbyteCount@@@Z  (Idle)
01:00004438 ?_binary8ToStringList@binary@@SAXQAEPAPAU?$__packedList_struct@Ustring@@@@@Z  (Idle)
01:00004454 ?_binary8ToStringList@binary@@SAXQAEPBUcodePage@@PAPAU?$__packedList_struct@Ustring@@@@@Z 
01:0000449C ?_getStringListForBinary8@binary@@SAXPAXPBUbyteCount@@PBUcodePage@@PAPAU?$__packedList_struct@Ustring@@@@@Z 
01:000045DC binaryIsAtomicExpectedNonAtomic 
01:00004608 doNothing 
01:00004610 ?_calculateCRC@binary@@SAXQAEPAI@Z  (Idle)
01:0000462C ?_getPointer2nullaryBinary@binary@@SAXPAPAX@Z 
--- From 'Obj\registry_api.FC65A32A.obj'
01:00004640 ?_getSize@binary@@SAXPBUbinaryNonAtomic@@AAUbyteCount@@@Z 
--- From 'Obj\binary.BAFC21B3.obj'
01:0000465C ?_getBinaryHeaderPtr@binary@@SAXPBUbinaryNonAtomic@@PAPAX@Z  (Idle)
01:00004694 ?_insertNonAtomic@binary@@SAXPBUbinaryNonAtomic@@PBUbyteCount@@0AAU2@@Z  (Idle)
01:0000476C ?_getIndexed_unsigned8@binary@@SAXPBUbinaryNonAtomic@@PBUpositive@@AAU4@@Z  (Idle)
01:000047B8 ?_getIndexed_unsigned16@binary@@SAXPBUbinaryNonAtomic@@PBUpositive@@AAU4@@Z  (Idle)
01:00004808 ?_getIndexed_unsigned64@binary@@SAXPBUbinaryNonAtomic@@PBUpositive@@PAPA_K@Z  (Idle)
01:00004858 ?_getIndexed_integer8@binary@@SAXPBUbinaryNonAtomic@@PBUpositive@@AAU4@@Z  (Idle)
01:000048A4 ?_getIndexed_integer16@binary@@SAXPBUbinaryNonAtomic@@PBUpositive@@AAU4@@Z  (Idle)
01:000048F4 ?_getIndexed_integer64@binary@@SAXPBUbinaryNonAtomic@@PBUpositive@@PAPA_J@Z  (Idle)
01:00004944 ?_getIndexed_unsignedNative@binary@@SAXPBUbinaryNonAtomic@@PBUpositive@@AAU4@@Z  (Idle)
01:00004994 ?_getIndexed_unsigned@binary@@SAXPBUbinaryNonAtomic@@PBUpositive@@PAI@Z  (Idle)
01:000049E4 ?_getIndexed_integerNative@binary@@SAXPBUbinaryNonAtomic@@PBUpositive@@AAU4@@Z  (Idle)
01:00004A34 ?_getIndexed_integer@binary@@SAXPBUbinaryNonAtomic@@PBUpositive@@PAH@Z  (Idle)
01:00004A84 ?_getIndexed_real32@binary@@SAXPBUbinaryNonAtomic@@PBUpositive@@PAM@Z  (Idle)
01:00004AD4 ?_getIndexed_real@binary@@SAXPBUbinaryNonAtomic@@PBUpositive@@PAPAN@Z  (Idle)
01:00004B24 ?setIndexed_unsigned8@binary@@SAXPBUbinaryNonAtomic@@PBUpositive@@PBU4@@Z  (Idle)
01:00004B70 ?setIndexed_unsigned16@binary@@SAXPBUbinaryNonAtomic@@PBUpositive@@PBU4@@Z  (Idle)
01:00004BC0 ?setIndexed_unsigned64@binary@@SAXPBUbinaryNonAtomic@@PBUpositive@@PA_K@Z  (Idle)
01:00004C10 ?setIndexed_integer8@binary@@SAXPBUbinaryNonAtomic@@PBUpositive@@PBU4@@Z  (Idle)
01:00004C5C ?setIndexed_integer16@binary@@SAXPBUbinaryNonAtomic@@PBUpositive@@PBU4@@Z  (Idle)
01:00004CAC ?setIndexed_integer64@binary@@SAXPBUbinaryNonAtomic@@PBUpositive@@PA_J@Z  (Idle)
01:00004CFC ?setIndexed_integerNative@binary@@SAXPBUbinaryNonAtomic@@PBUpositive@@PBU4@@Z  (Idle)
01:00004D4C ?setIndexed_integer@binary@@SAXPBUbinaryNonAtomic@@PBUpositive@@H@Z  (Idle)
01:00004D9C ?setIndexed_unsignedNative@binary@@SAXPBUbinaryNonAtomic@@PBUpositive@@PBU4@@Z  (Idle)
01:00004DEC ?setIndexed_unsigned@binary@@SAXPBUbinaryNonAtomic@@PBUpositive@@I@Z  (Idle)
01:00004E3C ?setIndexed_real32@binary@@SAXPBUbinaryNonAtomic@@PBUpositive@@M@Z  (Idle)
01:00004E8C ?setIndexed_real@binary@@SAXPBUbinaryNonAtomic@@PBUpositive@@PAN@Z  (Idle)
01:00004EDC ?setBinaryNonAtomic@binary@@SAXPBUbinaryNonAtomic@@PBUbyteCount@@0@Z  (Idle)
01:00004F7C ?setBinaryAtomic@binary@@SAXPBUbinaryNonAtomic@@PBUbyteCount@@QAE@Z  (Idle)
01:0000502C ?setBinaryAtomic@binary@@SAXPBUbinaryNonAtomic@@PBUbyteCount@@0@Z  (Idle)
01:000050DC ?setValue@binary@@SAXPBUbinaryNonAtomic@@PBUbyteCount@@PAUvalue_struct@core@@@Z  (Idle)
01:0000561C $getValue$binary_class$predicate$(i,i,unsigned(o))$b$_c90  (Idle)
01:00005670 $getValue$binary_class$predicate$(i,i,integer64(o))$b$_c91  (Idle)
--- From 'Obj\exe_api.BA152356.obj'
01:000056C4 $getValue$binary_class$predicate$(i,i,integer(o))$b$_c92 
--- From 'Obj\binary.BAFC21B3.obj'
01:00005718 $getValue$binary_class$predicate$(i,i,real(o))$b$_c93  (Idle)
01:0000576C $getValue$binary_class$predicate$(i,i,char(o))$b$_c94  (Idle)
01:000057C4 $getValue$binary_class$predicate$(i,i,string(o))$b$_c95  (Idle)
01:00005834 $getValue$binary_class$predicate$(i,i,localtimevalue(o))$b$_c96  (Idle)
01:00005888 $getValue$binary_class$predicate$(i,i,gmttimevalue(o))$b$_c97  (Idle)
01:000058DC $getValue$binary_class$predicate$(i,i,unsigned64(o))$b$_c98  (Idle)
01:00005930 $getValue$binary_class$predicate$(i,i,unsigned(o))$b$_c99  (Idle)
01:00005984 $getValue$binary_class$predicate$(i,i,integer64(o))$b$_c100  (Idle)
01:000059D8 $getValue$binary_class$predicate$(i,i,integer(o))$b$_c101  (Idle)
01:00005A2C $getValue$binary_class$predicate$(i,i,real(o))$b$_c102  (Idle)
01:00005A80 $getValue$binary_class$predicate$(i,i,pointer(o))$b$_c103  (Idle)
01:00005AD4 $getValue$binary_class$predicate$(i,i,object(o))$b$_c104  (Idle)
01:00005B28 $getValue$binary_class$predicate$(i,i,char(o))$b$_c105  (Idle)
01:00005B80 $getValue$binary_class$predicate$(i,i,string(o))$b$_c106  (Idle)
01:00005BF0 $getValue$binary_class$predicate$(i,i,localtimevalue(o))$b$_c107  (Idle)
01:00005C44 $getValue$binary_class$predicate$(i,i,gmttimevalue(o))$b$_c108  (Idle)
01:00005C98 ?checkOffsetForSetGetValue@binary@@SAXPBUbinaryNonAtomic@@PBUbyteCount@@1@Z 
01:00005CD8 ?copyTailIfNeeded@binary@@SAXPBUbinaryNonAtomic@@PBUbyteCount@@101@Z 
01:00005F48 outputStream_binary?_initObject@@@QAGXQAV1@H@Z 
01:00005F7C ?@create_object@outputStream_binary@@SGQAV1@@XZ 
01:00005F98 outputStream_binary?_InternalFinalizer@@@QAGXQAV1@@Z 
01:00006224 inputStream_binary?_initObject@@@QAGXQAV1@H@Z 
01:00006258 ?@create_object@inputStream_binary@@SGQAV1@@XZ 
01:00006274 inputStream_binary?_InternalFinalizer@@@QAGXQAV1@@Z 
--- From 'Obj\shell_api.8228437A.obj'
01:00006290 ?_toBooleanInt@boolean@@SAXPAUboolean_struct@_builtIn@@AAUbooleanInt@@@Z 
--- From 'Obj\memory_api.91A25169.obj'
01:000062B4 ?_fromBooleanInt@boolean@@SAXPBUbooleanInt@@PAPAUboolean_struct@_builtIn@@@Z 
--- From 'Obj\varm.7798368B.obj'
01:000062D8 ?_logicalNot@boolean@@SAXPAUboolean_struct@_builtIn@@PAPAU23@@Z 
01:000062FC ?_logicalAnd@boolean@@SAXPAUboolean_struct@_builtIn@@0PAPAU23@@Z 
01:00006338 ?_logicalOr@boolean@@SAXPAUboolean_struct@_builtIn@@0PAPAU23@@Z 
01:00006374 ?_logicalXor@boolean@@SAXPAUboolean_struct@_builtIn@@0PAPAU23@@Z 
--- From 'Obj\boolean.71CAE6F2.obj'
01:0000639C ?_ifExp@boolean@@SAXQAVrTypeLibrary@TypeLibraries@RunTime@VIP@@PAUboolean_struct@_builtIn@@PAXPAXPAPAX@Z  (Idle)
--- From 'Obj\redblackset.3F8B50C6.obj'
01:000063C0 ?_anonymous$c0$1$empty/0$redBlackSet@1@SAXPAUanonymous$c0$1$empty/0$redBlackSetc_struct@1@PAXPAXPAPAUcompareResult_struct@_builtIn@@@Z 
--- From 'Obj\setm_redblack.93B863A3.obj'
01:000063D8 ?_empty@redBlackSet@@SAXQAVrTypeLibrary@TypeLibraries@RunTime@VIP@@PAPAUset_struct@1@PAPAX@Z 
01:0000642C ?_emptyCustom@redBlackSet@@SAXQAVrTypeLibrary@TypeLibraries@RunTime@VIP@@XPAPAUset_struct@1@PAPAX@Z 
01:00006458 ?_emptySameKind@redBlackSet@@SAXQAVrTypeLibrary@TypeLibraries@RunTime@VIP@@PAUset_struct@1@PAXPAPAU21@PAPAX@Z 
--- From 'Obj\redblackset.3F8B50C6.obj'
01:00006490 ?isEmpty@redBlackSet@@SAXQAVrTypeLibrary@TypeLibraries@RunTime@VIP@@PAUset_struct@1@PAX@Z  (Idle)
--- From 'Obj\setm_redblack.93B863A3.obj'
01:000064A8 ?_insert@redBlackSet@@SAXQAVrTypeLibrary@TypeLibraries@RunTime@VIP@@PAUset_struct@1@PAXPAXPAPAU21@PAPAX@Z 
01:00006508 ?_delete@redBlackSet@@SAXQAVrTypeLibrary@TypeLibraries@RunTime@VIP@@PAUset_struct@1@PAXPAXPAPAU21@PAPAX@Z 
--- From 'Obj\redblackset.3F8B50C6.obj'
01:00006568 ?_tryDeleteFirst@redBlackSet@@SAXQAVrTypeLibrary@TypeLibraries@RunTime@VIP@@PAUset_struct@1@PAXPAPAXPAPAU21@PAPAX@Z  (Idle)
--- From 'Obj\setm_redblack.93B863A3.obj'
01:00006598 ?isMember@redBlackSet@@SAXQAVrTypeLibrary@TypeLibraries@RunTime@VIP@@PAXPAUset_struct@1@PAX@Z 
01:000065CC ?_getAll_nd@redBlackSet@@SAXQAVrTypeLibrary@TypeLibraries@RunTime@VIP@@PAUset_struct@1@PAXPAPAX@Z 
--- From 'Obj\redblackset.3F8B50C6.obj'
01:000065E4 ?_getAll_multi@redBlackSet@@SAXQAVrTypeLibrary@TypeLibraries@RunTime@VIP@@PAUset_struct@1@PAXPAPAX@Z  (Idle)
--- From 'Obj\setm_redblack.93B863A3.obj'
01:000065FC ?_upFrom_nd@redBlackSet@@SAXQAVrTypeLibrary@TypeLibraries@RunTime@VIP@@PAUset_struct@1@PAXPAXPAPAX@Z 
--- From 'Obj\redblackset.3F8B50C6.obj'
01:00006638 ?_up_nd@redBlackSet@@SAXQAVrTypeLibrary@TypeLibraries@RunTime@VIP@@PAUset_struct@1@PAXPAPAX@Z  (Idle)
01:00006650 ?_tryGetMin@redBlackSet@@SAXQAVrTypeLibrary@TypeLibraries@RunTime@VIP@@PAUset_struct@1@PAXPAPAX@Z  (Idle)
--- From 'Obj\setm_redblack.93B863A3.obj'
01:00006674 ?_downFrom_nd@redBlackSet@@SAXQAVrTypeLibrary@TypeLibraries@RunTime@VIP@@PAUset_struct@1@PAXPAXPAPAX@Z 
--- From 'Obj\redblackset.3F8B50C6.obj'
01:000066B0 ?_down_nd@redBlackSet@@SAXQAVrTypeLibrary@TypeLibraries@RunTime@VIP@@PAUset_struct@1@PAXPAPAX@Z  (Idle)
01:000066C8 ?_tryGetMax@redBlackSet@@SAXQAVrTypeLibrary@TypeLibraries@RunTime@VIP@@PAUset_struct@1@PAXPAPAX@Z  (Idle)
01:000066EC ?find_nd_rep@redBlackSet@@SAXQAVrTypeLibrary@TypeLibraries@RunTime@VIP@@XPAXPAUsetRep_struct@1@PAX@Z 
01:0000675C ?find_nd_rep1@redBlackSet@@SAXQAVrTypeLibrary@TypeLibraries@RunTime@VIP@@XPAUcompareResult_struct@_builtIn@@PAXPAUsetRep_struct@1@PAX4@Z 
01:000067A0 ?_get_nd_rep@redBlackSet@@SAXQAVrTypeLibrary@TypeLibraries@RunTime@VIP@@PAUsetRep_struct@1@PAXPAPAX@Z 
01:00006830 ?_get_multi_rep@redBlackSet@@SAXQAVrTypeLibrary@TypeLibraries@RunTime@VIP@@PAUsetRep_struct@1@PAXPAPAX@Z 
01:00006908 ?_upFrom_nd_rep@redBlackSet@@SAXQAVrTypeLibrary@TypeLibraries@RunTime@VIP@@XPAXPAUsetRep_struct@1@PAXPAPAX@Z 
01:0000698C ?_upFrom_nd_rep1@redBlackSet@@SAXQAVrTypeLibrary@TypeLibraries@RunTime@VIP@@XPAUcompareResult_struct@_builtIn@@PAXPAUsetRep_struct@1@PAXPAX4PAPAX@Z 
01:00006A40 ?_downFrom_nd_rep@redBlackSet@@SAXQAVrTypeLibrary@TypeLibraries@RunTime@VIP@@XPAXPAUsetRep_struct@1@PAXPAPAX@Z 
01:00006AC4 ?_downFrom_nd_rep1@redBlackSet@@SAXQAVrTypeLibrary@TypeLibraries@RunTime@VIP@@XPAUcompareResult_struct@_builtIn@@PAXPAUsetRep_struct@1@PAXPAX4PAPAX@Z 
01:00006B78 ?_down_nd_rep@redBlackSet@@SAXQAVrTypeLibrary@TypeLibraries@RunTime@VIP@@PAUsetRep_struct@1@PAXPAPAX@Z 
01:00006C08 ?tryGetNode@redBlackSet@@SAXQAVrTypeLibrary@TypeLibraries@RunTime@VIP@@PAUsetRep_struct@1@PAXPAPAU21@PAPAXPAPAX2@Z 
01:00006C78 ?_insert_rep@redBlackSet@@SAXQAVrTypeLibrary@TypeLibraries@RunTime@VIP@@XPAXPAUsetRep_struct@1@PAXPAPAU21@PAPAX@Z 
01:00006CD0 ?_tryIns@redBlackSet@@SAXQAVrTypeLibrary@TypeLibraries@RunTime@VIP@@XPAXPAUsetRep_struct@1@PAXPAPAU21@PAPAX@Z 
01:00006E20 ?_tryIns_black@redBlackSet@@SAXQAVrTypeLibrary@TypeLibraries@RunTime@VIP@@XPAUcompareResult_struct@_builtIn@@PAXPAUsetRep_struct@1@PAXPAX4PAPAU41@PAPAX@Z 
01:00006EB4 ?_tryIns_red@redBlackSet@@SAXQAVrTypeLibrary@TypeLibraries@RunTime@VIP@@XPAUcompareResult_struct@_builtIn@@PAXPAUsetRep_struct@1@PAXPAX4PAPAU41@PAPAX@Z 
01:00006F58 ?_balance@redBlackSet@@SAXQAVrTypeLibrary@TypeLibraries@RunTime@VIP@@PAUsetRep_struct@1@PAXPAX1PAPAU21@PAPAX@Z 
01:0000778C ?_makeblack@redBlackSet@@SAXQAVrTypeLibrary@TypeLibraries@RunTime@VIP@@PAUsetRep_struct@1@PAXPAPAU21@PAPAX@Z 
01:00007800 ?_delete_rep@redBlackSet@@SAXQAVrTypeLibrary@TypeLibraries@RunTime@VIP@@XPAXPAUsetRep_struct@1@PAXPAPAU21@PAPAX@Z 
01:00007850 ?del@redBlackSet@@SAXQAVrTypeLibrary@TypeLibraries@RunTime@VIP@@XPAXPAUsetRep_struct@1@PAXPAPAU21@PAPAXPAPAUboolean_struct@_builtIn@@@Z 
01:0000790C ?del1@redBlackSet@@SAXQAVrTypeLibrary@TypeLibraries@RunTime@VIP@@XPAUcompareResult_struct@_builtIn@@PAXPAUsetRep_struct@1@PAXPAX4PAPAU41@PAPAXPAPAUboolean_struct@3@@Z 
01:000079A0 ?delLeft@redBlackSet@@SAXQAVrTypeLibrary@TypeLibraries@RunTime@VIP@@XPAXPAUsetRep_struct@1@PAXPAX3PAPAU21@PAPAXPAPAUboolean_struct@_builtIn@@@Z 
01:00007A40 ?delRight@redBlackSet@@SAXQAVrTypeLibrary@TypeLibraries@RunTime@VIP@@XPAXPAUsetRep_struct@1@PAXPAX3PAPAU21@PAPAXPAPAUboolean_struct@_builtIn@@@Z 
01:00007AE8 ?_balLeft@redBlackSet@@SAXQAVrTypeLibrary@TypeLibraries@RunTime@VIP@@PAUsetRep_struct@1@PAXPAX1PAPAU21@PAPAX@Z 
01:00007D9C ?_balRight@redBlackSet@@SAXQAVrTypeLibrary@TypeLibraries@RunTime@VIP@@PAUsetRep_struct@1@PAXPAX1PAPAU21@PAPAX@Z 
01:00008054 ?_sub1@redBlackSet@@SAXQAVrTypeLibrary@TypeLibraries@RunTime@VIP@@PAUsetRep_struct@1@PAXPAPAU21@PAPAX@Z 
01:000080DC ?_mkNode@redBlackSet@@SAXQAVrTypeLibrary@TypeLibraries@RunTime@VIP@@PAUsetRep_struct@1@PAX1PAPAU21@PAPAX@Z 
01:0000838C ?_mkNodeRR_BC@redBlackSet@@SAXQAVrTypeLibrary@TypeLibraries@RunTime@VIP@@PAUsetRep_struct@1@PAXPAX1PAX1PAPAU21@PAPAX@Z 
01:00008488 ?_mkNodeBB_BC@redBlackSet@@SAXQAVrTypeLibrary@TypeLibraries@RunTime@VIP@@PAUsetRep_struct@1@PAXPAX1PAX1PAPAU21@PAPAX@Z 
--- From 'Obj\redblacktree.899B933C.obj'
01:00008580 ?_anonymous$c0$1$empty/0$redBlackTree@1@SAXPAUanonymous$c0$1$empty/0$redBlackTreec_struct@1@PAXPAXPAPAUcompareResult_struct@_builtIn@@@Z 
01:00008598 ?_empty@redBlackTree@@SAXQAVrTypeLibrary@TypeLibraries@RunTime@VIP@@0PAPAUtree_struct@1@PAPAXPAPAX@Z  (Idle)
01:0000860C ?_anonymous$c0$1$emptyUnique/0$redBlackTree@1@SAXPAUanonymous$c0$1$emptyUnique/0$redBlackTreec_struct@1@PAXPAXPAPAUcompareResult_struct@_builtIn@@@Z 
--- From 'Obj\mapm_redblack.8B32AE36.obj'
01:00008624 ?_emptyUnique@redBlackTree@@SAXQAVrTypeLibrary@TypeLibraries@RunTime@VIP@@0PAPAUtree_struct@1@PAPAXPAPAX@Z 
--- From 'Obj\redblacktree.899B933C.obj'
01:00008698 ?_emptyCustom@redBlackTree@@SAXQAVrTypeLibrary@TypeLibraries@RunTime@VIP@@0XPAPAUtree_struct@1@PAPAXPAPAX@Z  (Idle)
--- From 'Obj\mapm_redblack.8B32AE36.obj'
01:000086E4 ?_emptyCustomUnique@redBlackTree@@SAXQAVrTypeLibrary@TypeLibraries@RunTime@VIP@@0XPAPAUtree_struct@1@PAPAXPAPAX@Z 
01:00008730 ?_emptySameKind@redBlackTree@@SAXQAVrTypeLibrary@TypeLibraries@RunTime@VIP@@0PAUtree_struct@1@PAXPAXPAPAU21@PAPAXPAPAX@Z 
--- From 'Obj\redblacktree.899B933C.obj'
01:00008768 ?isEmpty@redBlackTree@@SAXQAVrTypeLibrary@TypeLibraries@RunTime@VIP@@0PAUtree_struct@1@PAXPAX@Z  (Idle)
--- From 'Obj\mapm_redblack.8B32AE36.obj'
01:00008788 ?_insert@redBlackTree@@SAXQAVrTypeLibrary@TypeLibraries@RunTime@VIP@@0PAUtree_struct@1@PAXPAXPAXPAXPAPAU21@PAPAXPAPAX@Z 
--- From 'Obj\redblacktree.899B933C.obj'
01:000087F0 ?_delete@redBlackTree@@SAXQAVrTypeLibrary@TypeLibraries@RunTime@VIP@@0PAUtree_struct@1@PAXPAXPAXPAXPAPAU21@PAPAXPAPAX@Z  (Idle)
--- From 'Obj\mapm_redblack.8B32AE36.obj'
01:00008858 ?_tryDeleteOne@redBlackTree@@SAXQAVrTypeLibrary@TypeLibraries@RunTime@VIP@@0PAUtree_struct@1@PAXPAXPAXPAPAXPAPAU21@PAPAXPAPAX@Z 
--- From 'Obj\redblacktree.899B933C.obj'
01:000088C0 ?_tryDeleteFirst@redBlackTree@@SAXQAVrTypeLibrary@TypeLibraries@RunTime@VIP@@0PAUtree_struct@1@PAXPAXPAPAX3PAPAU21@PAPAXPAPAX@Z  (Idle)
01:0000890C ?_lookUp_nd@redBlackTree@@SAXQAVrTypeLibrary@TypeLibraries@RunTime@VIP@@0PAUtree_struct@1@PAXPAXPAXPAPAX@Z  (Idle)
--- From 'Obj\mapm_redblack.8B32AE36.obj'
01:00008948 ?_tryLookUp@redBlackTree@@SAXQAVrTypeLibrary@TypeLibraries@RunTime@VIP@@0PAUtree_struct@1@PAXPAXPAXPAPAX@Z 
01:00008970 ?_getAll_nd@redBlackTree@@SAXQAVrTypeLibrary@TypeLibraries@RunTime@VIP@@0PAUtree_struct@1@PAXPAXPAPAUtuple_struct@core@@PAPAXPAPAX@Z 
01:000089C4 ?_upFrom_nd@redBlackTree@@SAXQAVrTypeLibrary@TypeLibraries@RunTime@VIP@@0PAUtree_struct@1@PAXPAXPAXPAPAUtuple_struct@core@@PAPAXPAPAX@Z 
01:00008A00 ?_downFrom_nd@redBlackTree@@SAXQAVrTypeLibrary@TypeLibraries@RunTime@VIP@@0PAUtree_struct@1@PAXPAXPAXPAPAUtuple_struct@core@@PAPAXPAPAX@Z 
--- From 'Obj\redblacktree.899B933C.obj'
01:00008A3C ?_comp@redBlackTree@@SAXQAVrTypeLibrary@TypeLibraries@RunTime@VIP@@PAUtreeProperty_struct@1@PAXPAXPAXPAPAUcompareResult_struct@_builtIn@@@Z  (Idle)
01:00008A6C ?tryGetNode@redBlackTree@@SAXQAVrTypeLibrary@TypeLibraries@RunTime@VIP@@0PAUtreeRep_struct@1@PAXPAXPAPAU21@PAPAXPAPAXPAPAX43@Z  (Idle)
01:00008AEC ?_find_nd_rep@redBlackTree@@SAXQAVrTypeLibrary@TypeLibraries@RunTime@VIP@@0PAUtreeProperty_struct@1@PAXPAXPAUtreeRep_struct@1@PAXPAXPAPAX@Z 
01:00008B70 ?_find_nd_rep1@redBlackTree@@SAXQAVrTypeLibrary@TypeLibraries@RunTime@VIP@@0PAUtreeProperty_struct@1@PAXPAUcompareResult_struct@_builtIn@@PAXPAUtreeRep_struct@1@PAXPAXPAX5PAPAX@Z 
01:00008C54 ?get_nd_rep@redBlackTree@@SAXQAVrTypeLibrary@TypeLibraries@RunTime@VIP@@0PAUtreeRep_struct@1@PAXPAXPAPAX3@Z 
01:00008D04 ?_upFrom_nd_rep@redBlackTree@@SAXQAVrTypeLibrary@TypeLibraries@RunTime@VIP@@0PAUtreeProperty_struct@1@PAXPAXPAUtreeRep_struct@1@PAXPAXPAPAUtuple_struct@core@@PAPAXPAPAX@Z 
01:00008D98 ?_upFrom_nd_rep1@redBlackTree@@SAXQAVrTypeLibrary@TypeLibraries@RunTime@VIP@@0PAUtreeProperty_struct@1@PAXPAUcompareResult_struct@_builtIn@@PAXPAUtreeRep_struct@1@PAXPAXPAXPAX5PAPAUtuple_struct@core@@PAPAXPAPAX@Z 
01:00008E68 ?_downFrom_nd_rep@redBlackTree@@SAXQAVrTypeLibrary@TypeLibraries@RunTime@VIP@@0PAUtreeProperty_struct@1@PAXPAXPAUtreeRep_struct@1@PAXPAXPAPAUtuple_struct@core@@PAPAXPAPAX@Z 
01:00008EFC ?_downFrom_nd_rep1@redBlackTree@@SAXQAVrTypeLibrary@TypeLibraries@RunTime@VIP@@0PAUtreeProperty_struct@1@PAXPAUcompareResult_struct@_builtIn@@PAXPAUtreeRep_struct@1@PAXPAXPAXPAX5PAPAUtuple_struct@core@@PAPAXPAPAX@Z 
01:00008FCC ?_insert_rep@redBlackTree@@SAXQAVrTypeLibrary@TypeLibraries@RunTime@VIP@@0PAUtreeProperty_struct@1@PAXPAXPAXPAUtreeRep_struct@1@PAXPAXPAPAU41@PAPAXPAPAX@Z 
01:00009008 ?_ins@redBlackTree@@SAXQAVrTypeLibrary@TypeLibraries@RunTime@VIP@@0PAUtreeProperty_struct@1@PAXPAXPAXPAUtreeRep_struct@1@PAXPAXPAPAU41@PAPAXPAPAX@Z 
01:00009194 ?_ins_black@redBlackTree@@SAXQAVrTypeLibrary@TypeLibraries@RunTime@VIP@@0PAUtreeProperty_struct@1@PAXPAUcompareResult_struct@_builtIn@@PAXPAXPAUtreeRep_struct@1@PAXPAXPAXPAX6PAPAU61@PAPAXPAPAX@Z 
01:000092D0 ?_ins_red@redBlackTree@@SAXQAVrTypeLibrary@TypeLibraries@RunTime@VIP@@0PAUtreeProperty_struct@1@PAXPAUcompareResult_struct@_builtIn@@PAXPAXPAUtreeRep_struct@1@PAXPAXPAXPAX6PAPAU61@PAPAXPAPAX@Z 
01:0000941C ?_balance@redBlackTree@@SAXQAVrTypeLibrary@TypeLibraries@RunTime@VIP@@0PAUtreeRep_struct@1@PAXPAXPAXPAX2PAPAU21@PAPAXPAPAX@Z 
01:00009D70 ?_makeblack@redBlackTree@@SAXQAVrTypeLibrary@TypeLibraries@RunTime@VIP@@0PAUtreeRep_struct@1@PAXPAXPAPAU21@PAPAXPAPAX@Z 
01:00009DF0 ?_delete_rep@redBlackTree@@SAXQAVrTypeLibrary@TypeLibraries@RunTime@VIP@@0PAUtreeProperty_struct@1@PAXPAXPAXPAUtreeRep_struct@1@PAXPAXPAPAU41@PAPAXPAPAX@Z 
01:00009E44 ?del@redBlackTree@@SAXQAVrTypeLibrary@TypeLibraries@RunTime@VIP@@0PAUtreeProperty_struct@1@PAXPAXPAXPAUtreeRep_struct@1@PAXPAXPAPAU41@PAPAXPAPAXPAPAUboolean_struct@_builtIn@@@Z 
01:00009F18 ?del1@redBlackTree@@SAXQAVrTypeLibrary@TypeLibraries@RunTime@VIP@@0PAUtreeProperty_struct@1@PAXPAUcompareResult_struct@_builtIn@@PAXPAXPAUtreeRep_struct@1@PAXPAXPAXPAX6PAPAU61@PAPAXPAPAXPAPAUboolean_struct@5@@Z 
01:0000A06C ?delLeft@redBlackTree@@SAXQAVrTypeLibrary@TypeLibraries@RunTime@VIP@@0PAUtreeProperty_struct@1@PAXPAXPAXPAUtreeRep_struct@1@PAXPAXPAXPAX5PAPAU41@PAPAXPAPAXPAPAUboolean_struct@_builtIn@@@Z 
01:0000A11C ?delRight@redBlackTree@@SAXQAVrTypeLibrary@TypeLibraries@RunTime@VIP@@0PAUtreeProperty_struct@1@PAXPAXPAXPAUtreeRep_struct@1@PAXPAXPAXPAX5PAPAU41@PAPAXPAPAXPAPAUboolean_struct@_builtIn@@@Z 
01:0000A1D8 ?_tryDeleteOne_rep@redBlackTree@@SAXQAVrTypeLibrary@TypeLibraries@RunTime@VIP@@0PAUtreeProperty_struct@1@PAXPAXPAUtreeRep_struct@1@PAXPAXPAPAXPAPAU41@PAPAXPAPAX@Z 
01:0000A214 ?_tryDel@redBlackTree@@SAXQAVrTypeLibrary@TypeLibraries@RunTime@VIP@@0PAUtreeProperty_struct@1@PAXPAXPAUtreeRep_struct@1@PAXPAXPAPAXPAPAU41@PAPAXPAPAX@Z 
01:0000A2B4 ?_tryDel1@redBlackTree@@SAXQAVrTypeLibrary@TypeLibraries@RunTime@VIP@@0PAUtreeProperty_struct@1@PAXPAUcompareResult_struct@_builtIn@@PAXPAUtreeRep_struct@1@PAXPAXPAXPAX5PAPAXPAPAU61@PAPAXPAPAX@Z 
01:0000A354 ?_tryDelLeft@redBlackTree@@SAXQAVrTypeLibrary@TypeLibraries@RunTime@VIP@@0PAUtreeProperty_struct@1@PAXPAXPAUtreeRep_struct@1@PAXPAXPAXPAX4PAPAXPAPAU41@PAPAXPAPAX@Z 
01:0000A408 ?_tryDelRight@redBlackTree@@SAXQAVrTypeLibrary@TypeLibraries@RunTime@VIP@@0PAUtreeProperty_struct@1@PAXPAXPAUtreeRep_struct@1@PAXPAXPAXPAX4PAPAXPAPAU41@PAPAXPAPAX@Z 
01:0000A4C8 ?_balLeft@redBlackTree@@SAXQAVrTypeLibrary@TypeLibraries@RunTime@VIP@@0PAUtreeRep_struct@1@PAXPAXPAXPAX2PAPAU21@PAPAXPAPAX@Z 
01:0000A7C0 ?_balRight@redBlackTree@@SAXQAVrTypeLibrary@TypeLibraries@RunTime@VIP@@0PAUtreeRep_struct@1@PAXPAXPAXPAX2PAPAU21@PAPAXPAPAX@Z 
01:0000AAC4 ?_sub1@redBlackTree@@SAXQAVrTypeLibrary@TypeLibraries@RunTime@VIP@@0PAUtreeRep_struct@1@PAXPAXPAPAU21@PAPAXPAPAX@Z 
01:0000AB54 ?_mkNode@redBlackTree@@SAXQAVrTypeLibrary@TypeLibraries@RunTime@VIP@@0PAUtreeRep_struct@1@PAXPAX2PAPAU21@PAPAXPAPAX@Z 
01:0000AE68 ?_mkNodeRR_BC@redBlackTree@@SAXQAVrTypeLibrary@TypeLibraries@RunTime@VIP@@0PAUtreeRep_struct@1@PAXPAXPAXPAX2PAXPAX2PAPAU21@PAPAXPAPAX@Z 
01:0000AF84 ?_mkNodeBB_BC@redBlackTree@@SAXQAVrTypeLibrary@TypeLibraries@RunTime@VIP@@0PAUtreeRep_struct@1@PAXPAXPAXPAX2PAXPAX2PAPAU21@PAPAXPAPAX@Z 
--- From 'Obj\collectionmsupport.C8B1DC6C.obj'
01:0000B0A0 ?new@collectionSupport@1@SAXQAV1@1@PAXQAVrTypeLibrary@TypeLibraries@RunTime@VIP@@QAVcollectionSite@@1@PAX@Z 
--- From 'Obj\collectionsupport.792149C1.obj'
01:0000B0B4 ?isEmpty@collectionSupport@1@SAXQAV1@1@PAX@Z 
01:0000B0FC ?_tryGetFirst@collectionSupport@1@SAXQAV1@1@PAXPAPAX@Z 
01:0000B124 ?asList@collectionSupport@1@SGPAU?$__packedList_struct@PAX@@QAV1@1@PAX@Z 
01:0000B190 ?_new@collectionSupport@1@SAXQAVrTypeLibrary@TypeLibraries@RunTime@VIP@@QAVcollectionSite@@1@PAXPAPAV1@1@PAPAX@Z  (Idle)
01:0000B1C4 ?_object_typelib_initializer@collectionSupport@1@SGXQAV1@1@PAXQAVrTypeLibrary@TypeLibraries@RunTime@VIP@@@Z 
--- From 'Obj\collectionmsupport.C8B1DC6C.obj'
01:0000B1E4 collectionSupport\collectionSupport{@Type}?_initObject@@@QAGXQAV1@H@Z 
--- From 'Obj\collectionsupport.792149C1.obj'
01:0000B208 ?@create_object@collectionSupport@1@SGQAV1@1@PAXQAVrTypeLibrary@TypeLibraries@RunTime@VIP@@@Z 
--- From 'Obj\collectionmsupport.C8B1DC6C.obj'
01:0000B22C collectionSupport\collectionSupport{@Type}?_InternalFinalizer@@@QAGXQAV1@@Z 
--- From 'Obj\arraym_inline.60FB7E94.obj'
01:0000B240 ?newAtomic@arrayM_inlineValue@@SAXQAV1@@PAXQAVrTypeLibrary@TypeLibraries@RunTime@VIP@@PBUpositive@@@Z  (Idle)
01:0000B254 ?newNonAtomic@arrayM_inlineValue@@SAXQAV1@@PAXQAVrTypeLibrary@TypeLibraries@RunTime@VIP@@PBUpositive@@@Z  (Idle)
01:0000B268 ?new@arrayM_inlineValue@@SAXQAV1@@PAXQAVrTypeLibrary@TypeLibraries@RunTime@VIP@@PBUpositive@@PAUboolean_struct@_builtIn@@@Z 
01:0000B2AC ?newPointer@arrayM_inlineValue@@SAXQAV1@@PAXQAVrTypeLibrary@TypeLibraries@RunTime@VIP@@PAXPBUpositive@@@Z 
01:0000B2E4 ?new_list@arrayM_inlineValue@@SAXQAV1@@PAXQAVrTypeLibrary@TypeLibraries@RunTime@VIP@@PAU?$__packedList_struct@PAX@@PAUboolean_struct@_builtIn@@@Z  (Idle)
01:0000B38C ?_tryGetElemPointer@arrayM_inlineValue@@SAXQAV1@@PAXPBUpositive@@PAPAX@Z  (Idle)
01:0000B3EC ?_tryGet@arrayM_inlineValue@@SAXQAVmap@@@PAXPAXPAXPAPAX@Z 
01:0000B414 ?set@arrayM_inlineValue@@SAXQAVmapM@@@PAXPAXPAXPAX@Z 
01:0000B4C0 ?removeKey@arrayM_inlineValue@@SAXQAVmapM@@@PAXPAXPAX@Z 
01:0000B4D8 ?clear@arrayM_inlineValue@@SAXQAVmodifiable@@@PAX@Z 
01:0000B4F0 ?_getAll_nd@arrayM_inlineValue@@SAXQAVcollection@@@PAXPAPAX@Z 
01:0000B50C ?_upFrom_nd@arrayM_inlineValue@@SAXQAVmap@@@PAXPAXPAXPAPAUtuple_struct@core@@PAPAXPAPAX@Z 
01:0000B598 ?_downFrom_nd@arrayM_inlineValue@@SAXQAVmap@@@PAXPAXPAXPAPAUtuple_struct@core@@PAPAXPAPAX@Z 
01:0000B61C ?elemSize@arrayM_inlineValue@@SGPBUbyteCount@@QAV1@@PAX@Z 
01:0000B63C ?_new@arrayM_inlineValue@@SAXQAVrTypeLibrary@TypeLibraries@RunTime@VIP@@PBUpositive@@PAUboolean_struct@_builtIn@@PAPAVarrayM_inline@@@PAPAX@Z  (Idle)
--- From 'Obj\controlsupport.BED97958.obj'
01:0000B670 ?_newAtomic@arrayM_inlineValue@@SAXQAVrTypeLibrary@TypeLibraries@RunTime@VIP@@PBUpositive@@PAPAVarrayM_inline@@@PAPAX@Z 
--- From 'Obj\arraym_inline.60FB7E94.obj'
01:0000B6A0 ?_newNonAtomic@arrayM_inlineValue@@SAXQAVrTypeLibrary@TypeLibraries@RunTime@VIP@@PBUpositive@@PAPAVarrayM_inline@@@PAPAX@Z  (Idle)
--- From 'Obj\shell_api.8228437A.obj'
01:0000B6D0 ?_newPointer@arrayM_inlineValue@@SAXQAVrTypeLibrary@TypeLibraries@RunTime@VIP@@PAXPBUpositive@@PAPAVarrayM_inline@@@PAPAX@Z 
--- From 'Obj\controls.363FB18E.obj'
01:0000B704 ?_new_list@arrayM_inlineValue@@SAXQAVrTypeLibrary@TypeLibraries@RunTime@VIP@@PAU?$__packedList_struct@PAX@@PAUboolean_struct@_builtIn@@PAPAVarrayM_inline@@@PAPAX@Z 
--- From 'Obj\arraym_inline.60FB7E94.obj'
01:0000B738 ?_object_typelib_initializer@arrayM_inlineValue@@SGXQAV1@@PAXQAVrTypeLibrary@TypeLibraries@RunTime@VIP@@@Z 
01:0000B750 ?data@arrayM_inlineValue@@SGPAXQAVarrayM_inline@@@PAX@Z 
01:0000B75C ?size@arrayM_inlineValue@@SGPBUpositive@@QAVarrayM_inline@@@PAX@Z 
01:0000B768 ?newAtomic@arrayM_inline@@SAXQAV1@@PAXQAVrTypeLibrary@TypeLibraries@RunTime@VIP@@PBUpositive@@@Z  (Idle)
01:0000B77C ?newNonAtomic@arrayM_inline@@SAXQAV1@@PAXQAVrTypeLibrary@TypeLibraries@RunTime@VIP@@PBUpositive@@@Z  (Idle)
01:0000B790 ?new@arrayM_inline@@SAXQAV1@@PAXQAVrTypeLibrary@TypeLibraries@RunTime@VIP@@PBUpositive@@PAUboolean_struct@_builtIn@@@Z 
01:0000B7E0 ?newHead@arrayM_inline@@SAXQAV1@@PAXQAVrTypeLibrary@TypeLibraries@RunTime@VIP@@PAXPBUpositive@@PAUboolean_struct@_builtIn@@@Z  (Idle)
01:0000B7EC ?newPointer@arrayM_inline@@SAXQAV1@@PAXQAVrTypeLibrary@TypeLibraries@RunTime@VIP@@PAXPBUpositive@@PAUboolean_struct@_builtIn@@@Z 
01:0000B82C ?new_list@arrayM_inline@@SAXQAV1@@PAXQAVrTypeLibrary@TypeLibraries@RunTime@VIP@@PAU?$__packedList_struct@PAX@@PAUboolean_struct@_builtIn@@@Z  (Idle)
01:0000B8D4 ?_tryGetElemPointer@arrayM_inline@@SAXQAV1@@PAXPBUpositive@@PAPAX@Z  (Idle)
01:0000B934 ?_tryGet@arrayM_inline@@SAXQAVmap@@@PAXPAXPAXPAPAX@Z 
01:0000B998 ?set@arrayM_inline@@SAXQAVmapM@@@PAXPAXPAXPAX@Z 
01:0000BA2C ?removeKey@arrayM_inline@@SAXQAVmapM@@@PAXPAXPAX@Z 
01:0000BA44 ?clear@arrayM_inline@@SAXQAVmodifiable@@@PAX@Z 
01:0000BA5C ?_getAll_nd@arrayM_inline@@SAXQAVcollection@@@PAXPAPAX@Z 
01:0000BA78 ?_upFrom_nd@arrayM_inline@@SAXQAVmap@@@PAXPAXPAXPAPAUtuple_struct@core@@PAPAXPAPAX@Z 
01:0000BB04 ?_downFrom_nd@arrayM_inline@@SAXQAVmap@@@PAXPAXPAXPAPAUtuple_struct@core@@PAPAXPAPAX@Z 
01:0000BB88 ?elemSize@arrayM_inline@@SGPBUbyteCount@@QAV1@@PAX@Z 
01:0000BBA8 ?_new@arrayM_inline@@SAXQAVrTypeLibrary@TypeLibraries@RunTime@VIP@@PBUpositive@@PAUboolean_struct@_builtIn@@PAPAV1@@PAPAX@Z  (Idle)
01:0000BBDC ?_newAtomic@arrayM_inline@@SAXQAVrTypeLibrary@TypeLibraries@RunTime@VIP@@PBUpositive@@PAPAV1@@PAPAX@Z  (Idle)
01:0000BC0C ?_newNonAtomic@arrayM_inline@@SAXQAVrTypeLibrary@TypeLibraries@RunTime@VIP@@PBUpositive@@PAPAV1@@PAPAX@Z  (Idle)
01:0000BC3C ?_newHead@arrayM_inline@@SAXQAVrTypeLibrary@TypeLibraries@RunTime@VIP@@PAXPBUpositive@@PAUboolean_struct@_builtIn@@PAPAV1@@PAPAX@Z  (Idle)
--- From 'Obj\icondirectory_api.6E2FBE44.obj'
01:0000BC70 ?_newPointer@arrayM_inline@@SAXQAVrTypeLibrary@TypeLibraries@RunTime@VIP@@PAXPBUpositive@@PAUboolean_struct@_builtIn@@PAPAV1@@PAPAX@Z 
--- From 'Obj\arraym_inline.60FB7E94.obj'
01:0000BCA4 ?_new_list@arrayM_inline@@SAXQAVrTypeLibrary@TypeLibraries@RunTime@VIP@@PAU?$__packedList_struct@PAX@@PAUboolean_struct@_builtIn@@PAPAV1@@PAPAX@Z  (Idle)
01:0000BCD8 ?_object_typelib_initializer@arrayM_inline@@SGXQAV1@@PAXQAVrTypeLibrary@TypeLibraries@RunTime@VIP@@@Z 
01:0000BCF0 ?data@arrayM_inline@@SGPAXQAV1@@PAX@Z 
01:0000BCFC ?size@arrayM_inline@@SGPBUpositive@@QAV1@@PAX@Z 
01:0000C0CC arrayM_inlineValue{@ItemType}?_initObject@@@QAGXQAV1@H@Z 
01:0000C10C ?@create_object@arrayM_inlineValue@@SGQAV1@@PAXQAVrTypeLibrary@TypeLibraries@RunTime@VIP@@@Z 
01:0000C130 arrayM_inlineValue{@ItemType}?_InternalFinalizer@@@QAGXQAV1@@Z 
01:0000C504 arrayM_inline{@ItemType}?_initObject@@@QAGXQAV1@H@Z 
01:0000C544 ?@create_object@arrayM_inline@@SGQAV1@@PAXQAVrTypeLibrary@TypeLibraries@RunTime@VIP@@@Z 
01:0000C568 arrayM_inline{@ItemType}?_InternalFinalizer@@@QAGXQAV1@@Z 
--- From 'Obj\mapm_redblack.8B32AE36.obj'
01:0000C580 ?new@mapM_redBlack@@SAXQAV1@@PAXPAXQAVrTypeLibrary@TypeLibraries@RunTime@VIP@@1@Z  (Idle)
01:0000C5C8 ?newCustom@mapM_redBlack@@SAXQAV1@@PAXPAXQAVrTypeLibrary@TypeLibraries@RunTime@VIP@@1X@Z  (Idle)
01:0000C604 ?set@mapM_redBlack@@SAXQAVmapM@@@PAXPAXPAXPAX@Z 
01:0000C648 ?_tryGet@mapM_redBlack@@SAXQAVmap@@@PAXPAXPAXPAPAX@Z 
01:0000C690 ?_getAll_nd@mapM_redBlack@@SAXQAVcollection@@@PAXPAPAX@Z 
01:0000C6D0 ?removeKey@mapM_redBlack@@SAXQAVmapM@@@PAXPAXPAX@Z 
01:0000C728 ?clear@mapM_redBlack@@SAXQAVmodifiable@@@PAX@Z 
01:0000C764 ?_upFrom_nd@mapM_redBlack@@SAXQAVmap@@@PAXPAXPAXPAPAUtuple_struct@core@@PAPAXPAPAX@Z 
01:0000C7AC ?_downFrom_nd@mapM_redBlack@@SAXQAVmap@@@PAXPAXPAXPAPAUtuple_struct@core@@PAPAXPAPAX@Z 
--- From 'Obj\list.123C0D09.obj'
01:0000C7F4 ?_new@mapM_redBlack@@SAXQAVrTypeLibrary@TypeLibraries@RunTime@VIP@@0PAPAVmapM@@@PAPAXPAPAX@Z 
--- From 'Obj\mapm_redblack.8B32AE36.obj'
01:0000C828 ?_newCustom@mapM_redBlack@@SAXQAVrTypeLibrary@TypeLibraries@RunTime@VIP@@0XPAPAVmapM@@@PAPAXPAPAX@Z  (Idle)
01:0000C85C ?_object_typelib_initializer@mapM_redBlack@@SGXQAV1@@PAXPAXQAVrTypeLibrary@TypeLibraries@RunTime@VIP@@1@Z 
01:0000CC2C mapM_redBlack{@Key,@Data}?_initObject@@@QAGXQAV1@H@Z 
01:0000CC70 ?@create_object@mapM_redBlack@@SGQAV1@@PAXPAXQAVrTypeLibrary@TypeLibraries@RunTime@VIP@@0@Z 
01:0000CC98 mapM_redBlack{@Key,@Data}?_InternalFinalizer@@@QAGXQAV1@@Z 
--- From 'Obj\queuem_fact.FE73A17F.obj'
01:0000CCB0 ?new@queueM_fact@@SAXQAV1@@PAXQAVrTypeLibrary@TypeLibraries@RunTime@VIP@@@Z  (Idle)
01:0000CCC8 ?contains@queueM_fact@@SAXQAVcollection@@@PAXPAX@Z 
01:0000CD28 ?_getAll_nd@queueM_fact@@SAXQAVcollection@@@PAXPAPAX@Z 
01:0000CD74 ?insert@queueM_fact@@SAXQAVmodifiable@@@PAXPAX@Z 
01:0000CD9C ?insertFirst@queueM_fact@@SAXQAVqueueM@@@PAXPAX@Z 
01:0000CDC4 ?remove@queueM_fact@@SAXQAVmodifiable@@@PAXPAX@Z 
01:0000CE7C ?clear@queueM_fact@@SAXQAVmodifiable@@@PAX@Z 
01:0000CEB8 ?_tryRemoveFirst@queueM_fact@@SAXQAVmodifiable@@@PAXPAPAX@Z 
--- From 'Obj\regex.AC53B9AD.obj'
01:0000CF28 ?_new@queueM_fact@@SAXQAVrTypeLibrary@TypeLibraries@RunTime@VIP@@PAPAVqueueM@@@PAPAX@Z 
--- From 'Obj\queuem_fact.FE73A17F.obj'
01:0000CF54 ?_object_typelib_initializer@queueM_fact@@SGXQAV1@@PAXQAVrTypeLibrary@TypeLibraries@RunTime@VIP@@@Z 
01:0000D134 queueM_fact{@Type}?_initObject@@@QAGXQAV1@H@Z 
01:0000D170 ?@create_object@queueM_fact@@SGQAV1@@PAXQAVrTypeLibrary@TypeLibraries@RunTime@VIP@@@Z 
01:0000D194 queueM_fact{@Type}?_InternalFinalizer@@@QAGXQAV1@@Z 
--- From 'Obj\setm_redblack.93B863A3.obj'
01:0000D1B0 ?new@setM_redBlack@@SAXQAV1@@PAXQAVrTypeLibrary@TypeLibraries@RunTime@VIP@@@Z  (Idle)
01:0000D1D8 ?new@setM_redBlack@@SAXQAV1@@PAXQAVrTypeLibrary@TypeLibraries@RunTime@VIP@@PAU?$__packedList_struct@PAX@@@Z  (Idle)
01:0000D1F8 ?newSingleton@setM_redBlack@@SAXQAV1@@PAXQAVrTypeLibrary@TypeLibraries@RunTime@VIP@@PAX@Z  (Idle)
01:0000D218 ?newCustom@setM_redBlack@@SAXQAV1@@PAXQAVrTypeLibrary@TypeLibraries@RunTime@VIP@@X@Z  (Idle)
01:0000D240 ?newInternal@setM_redBlack@@SAXQAV1@@PAXQAVrTypeLibrary@TypeLibraries@RunTime@VIP@@PAUset_struct@redBlackSet@@PAX@Z 
01:0000D25C ?contains@setM_redBlack@@SAXQAVcollection@@@PAXPAX@Z 
01:0000D28C ?_getAll_nd@setM_redBlack@@SAXQAVcollection@@@PAXPAPAX@Z 
01:0000D2BC ?insert@setM_redBlack@@SAXQAVmodifiable@@@PAXPAX@Z 
01:0000D2F4 ?remove@setM_redBlack@@SAXQAVmodifiable@@@PAXPAX@Z 
01:0000D32C ?clear@setM_redBlack@@SAXQAVmodifiable@@@PAX@Z 
01:0000D360 ?_upFrom_nd@setM_redBlack@@SAXQAVset@@@PAXPAXPAPAX@Z 
01:0000D39C ?_downFrom_nd@setM_redBlack@@SAXQAVset@@@PAXPAXPAPAX@Z 
--- From 'Obj\list.123C0D09.obj'
01:0000D3D8 ?_new@setM_redBlack@@SAXQAVrTypeLibrary@TypeLibraries@RunTime@VIP@@PAPAVsetM@@@PAPAX@Z 
--- From 'Obj\setm_redblack.93B863A3.obj'
01:0000D404 ?_new@setM_redBlack@@SAXQAVrTypeLibrary@TypeLibraries@RunTime@VIP@@PAU?$__packedList_struct@PAX@@PAPAVsetM@@@PAPAX@Z  (Idle)
01:0000D434 ?_newSingleton@setM_redBlack@@SAXQAVrTypeLibrary@TypeLibraries@RunTime@VIP@@PAXPAPAVsetM@@@PAPAX@Z  (Idle)
--- From 'Obj\list.123C0D09.obj'
01:0000D464 ?_newCustom@setM_redBlack@@SAXQAVrTypeLibrary@TypeLibraries@RunTime@VIP@@XPAPAVsetM@@@PAPAX@Z 
--- From 'Obj\setm_redblack.93B863A3.obj'
01:0000D494 ?_object_typelib_initializer@setM_redBlack@@SGXQAV1@@PAXQAVrTypeLibrary@TypeLibraries@RunTime@VIP@@@Z 
01:0000D69C setM_redBlack{@Type}?_initObject@@@QAGXQAV1@H@Z 
01:0000D6D8 ?@create_object@setM_redBlack@@SGQAV1@@PAXQAVrTypeLibrary@TypeLibraries@RunTime@VIP@@@Z 
01:0000D6FC setM_redBlack{@Type}?_InternalFinalizer@@@QAGXQAV1@@Z 
--- From 'Obj\mapmsupport.7A794CBB.obj'
01:0000D710 ?new@collectionMsupport@collectionSupportM@@SAXQAV1@2@PAXQAVrTypeLibrary@TypeLibraries@RunTime@VIP@@QAVcollectionMsite@@2@PAX@Z 
--- From 'Obj\collectionmsupport.C8B1DC6C.obj'
01:0000D748 ?insertList@collectionMsupport@collectionSupportM@@SAXQAV1@2@PAXPAU?$__packedList_struct@PAX@@@Z 
01:0000D790 ?insertCollection@collectionMsupport@collectionSupportM@@SAXQAV1@2@PAXQAVcollection@@@PAX@Z 
01:0000D7D8 ?insertEnumerator@collectionMsupport@collectionSupportM@@SAXQAV1@2@PAXX@Z 
01:0000D828 ?removeList@collectionMsupport@collectionSupportM@@SAXQAV1@2@PAXPAU?$__packedList_struct@PAX@@@Z 
01:0000D870 ?removeCollection@collectionMsupport@collectionSupportM@@SAXQAV1@2@PAXQAVcollection@@@PAX@Z 
01:0000D8B8 ?_tryRemoveFirst@collectionMsupport@collectionSupportM@@SAXQAV1@2@PAXPAPAX@Z 
01:0000D8EC ?_new@collectionMsupport@collectionSupportM@@SAXQAVrTypeLibrary@TypeLibraries@RunTime@VIP@@QAVcollectionMsite@@2@PAXPAPAV1@2@PAPAX@Z  (Idle)
01:0000D920 ?_object_typelib_initializer@collectionMsupport@collectionSupportM@@SGXQAV1@2@PAXQAVrTypeLibrary@TypeLibraries@RunTime@VIP@@@Z 
--- From 'Obj\mapmsupport.7A794CBB.obj'
01:0000D990 collectionSupportM\collectionMsupport{@Type}?_initObject@@@QAGXQAV1@H@Z 
--- From 'Obj\collectionmsupport.C8B1DC6C.obj'
01:0000D9D0 ?@create_object@collectionMsupport@collectionSupportM@@SGQAV1@2@PAXQAVrTypeLibrary@TypeLibraries@RunTime@VIP@@@Z 
--- From 'Obj\mapmsupport.7A794CBB.obj'
01:0000D9F4 collectionSupportM\collectionMsupport{@Type}?_InternalFinalizer@@@QAGXQAV1@@Z 
01:0000DA10 ?new@mapMSupport@collectionSupportM@@SAXQAV1@2@PAXPAXQAVrTypeLibrary@TypeLibraries@RunTime@VIP@@1QAVmapMSite@@2@PAXPAX@Z 
01:0000DA64 ?_get@mapMSupport@collectionSupportM@@SAXQAV1@@PAXPAXPAXPAPAX@Z 
01:0000DADC ?_get_default@mapMSupport@collectionSupportM@@SAXQAV1@@PAXPAXPAXPAXPAPAX@Z 
01:0000DB20 ?_get_defaultLazy@mapMSupport@collectionSupportM@@SAXQAV1@@PAXPAXPAXXPAPAX@Z 
01:0000DB78 ?_get_optional@mapMSupport@collectionSupportM@@SAXQAV1@@PAXPAXPAXPAPAUoptional_struct@core@@PAPAX@Z 
01:0000DBD8 ?contains@mapMSupport@collectionSupportM@@SAXQAV1@@PAXPAXPAUtuple_struct@core@@PAXPAX@Z 
01:0000DC20 ?_getKey_nd@mapMSupport@collectionSupportM@@SAXQAV1@@PAXPAXPAPAX@Z 
01:0000DC50 ?_getValue_nd@mapMSupport@collectionSupportM@@SAXQAV1@@PAXPAXPAPAX@Z 
01:0000DC84 ?keyList@mapMSupport@collectionSupportM@@SGPAU?$__packedList_struct@PAX@@QAV1@@PAXPAX@Z 
01:0000DCE8 ?valueList@mapMSupport@collectionSupportM@@SGPAU?$__packedList_struct@PAX@@QAV1@@PAXPAX@Z 
01:0000DD4C ?insert@mapMSupport@collectionSupportM@@SAXQAV1@@PAXPAXPAUtuple_struct@core@@PAXPAX@Z 
01:0000DD88 ?set_optional@mapMSupport@collectionSupportM@@SAXQAV1@@PAXPAXPAXPAUoptional_struct@core@@PAX@Z 
01:0000DDD0 ?remove@mapMSupport@collectionSupportM@@SAXQAV1@@PAXPAXPAUtuple_struct@core@@PAXPAX@Z 
01:0000DE7C ?removeKeyList@mapMSupport@collectionSupportM@@SAXQAV1@@PAXPAXPAU?$__packedList_struct@PAX@@@Z 
01:0000DEC4 ?removeKeyCollection@mapMSupport@collectionSupportM@@SAXQAV1@@PAXPAXQAVcollection@@@PAX@Z 
01:0000DF0C ?_new@mapMSupport@collectionSupportM@@SAXQAVrTypeLibrary@TypeLibraries@RunTime@VIP@@0QAVmapMSite@@2@PAXPAXPAPAV1@@PAPAXPAPAX@Z  (Idle)
01:0000DF48 ?_object_typelib_initializer@mapMSupport@collectionSupportM@@SGXQAV1@2@PAXPAXQAVrTypeLibrary@TypeLibraries@RunTime@VIP@@1@Z 
01:0000DF64 ?_mk_tl_0_collectionSupportM\collectionMsupport{@Type}$imp$@mapMSupport@collectionSupportM@@SGQAVrTypeLibrary@TypeLibraries@RunTime@VIP@@QAV1@2@PAXPAX@Z 
01:0000DFA8 ?_getAll_nd@mapMSupport@collectionSupportM@@SAXQAVcollectionSite@@collectionSupport@@PAXPAPAX@Z 
01:0000E090 collectionSupportM\mapMSupport{@Key,@Data}?_initObject@@@QAGXQAV1@H@Z 
01:0000E0E4 ?@create_object@mapMSupport@collectionSupportM@@SGQAV1@2@PAXPAXQAVrTypeLibrary@TypeLibraries@RunTime@VIP@@0@Z 
01:0000E10C collectionSupportM\mapMSupport{@Key,@Data}?_InternalFinalizer@@@QAGXQAV1@@Z 
--- From 'Obj\core.C03ED02F.obj'
01:0000E120 ?_mapSome@core@@SAXQAVrTypeLibrary@TypeLibraries@RunTime@VIP@@0PAUoptional_struct@1@PAXXPAPAU21@PAPAX@Z  (Idle)
01:0000E178 ?_tryGetSome@core@@SAXQAVrTypeLibrary@TypeLibraries@RunTime@VIP@@PAUoptional_struct@1@PAXPAPAX@Z  (Idle)
--- From 'Obj\outputstreamsupport.F233041A.obj'
01:0000E1AC ?_getSome@core@@SAXQAVrTypeLibrary@TypeLibraries@RunTime@VIP@@PAUoptional_struct@1@PAXPAXPAPAX@Z 
--- From 'Obj\core.C03ED02F.obj'
01:0000E1D0 ?_makeOptional@core@@SAXQAVrTypeLibrary@TypeLibraries@RunTime@VIP@@XPAPAUoptional_struct@1@PAPAX@Z  (Idle)
--- From 'Obj\time_api.F873F3B3.obj'
01:0000E244 ?_toUnsigned64@core@@SAXPAUunsigned64_struct_struct@1@PAPA_K@Z 
01:0000E250 ?_fromUnsigned64@core@@SAXPA_KPAPAUunsigned64_struct_struct@1@@Z 
--- From 'Obj\filesystem.7029601A.obj'
01:0000E260 ?_toInteger64@core@@SAXPAUinteger64_struct_struct@1@PAPA_J@Z 
--- From 'Obj\multithread_api.0FAFDF41.obj'
01:0000E26C ?_fromInteger64@core@@SAXPA_JPAPAUinteger64_struct_struct@1@@Z 
--- From 'Obj\errorpresentationdialog.0BD1CEB3.obj'
01:0000E27C ?_value2String@core@@SAXPAUvalue_struct@1@PAPB_W@Z 
--- From 'Obj\core.C03ED02F.obj'
01:0000E4F8 ?nothing@core@@SAXXZ  (Idle)
--- From 'Obj\event.7F9DC97F.obj'
01:0000E500 ?new@event7@@SAXQAV1@@PAXPAXPAXPAXPAXPAXPAXPAXQAVrTypeLibrary@TypeLibraries@RunTime@VIP@@1111111PAX@Z  (Idle)
01:0000E514 ?addListener@event7@@SAXQAV1@@PAXPAXPAXPAXPAXPAXPAXPAXX@Z 
01:0000E53C ?anonymous$o0$1$addlistener/2np$event7{@Source,@Type1,@Type2,@Type3,@Type4,@Type5,@Type6,@Type7}@event7@@SAXPAUanonymous$o0$1$addlistener/2np$event7{@Source,@Type1,@Type2,@Type3,@Type4,@Type5,@Type6,@Type7}c_struct@1/8@PAX@Z 
01:0000E560 ?addListener@event7@@SAXQAV1@@PAXPAXPAXPAXPAXPAXPAXPAXQAVrTypeLibrary@TypeLibraries@RunTime@VIP@@XQAVevent0@@@PAX@Z 
01:0000E5F0 ?removeListener@event7@@SAXQAV1@@PAXPAXPAXPAXPAXPAXPAXPAXX@Z 
01:0000E690 ?removeAllListeners@event7@@SAXQAV1@@PAXPAXPAXPAXPAXPAXPAXPAX@Z 
01:0000E6CC ?hasListeners@event7@@SAXQAV1@@PAXPAXPAXPAXPAXPAXPAXPAX@Z 
01:0000E6EC ?notify@event7@@SAXQAV1@@PAXPAXPAXPAXPAXPAXPAXPAXPAXPAXPAXPAXPAXPAXPAX@Z 
01:0000E77C ?_new@event7@@SAXQAVrTypeLibrary@TypeLibraries@RunTime@VIP@@0000000PAXPAPAV1@@PAPAXPAPAXPAPAXPAPAXPAPAXPAPAXPAPAXPAPAX@Z  (Idle)
01:0000E7D4 ?_object_typelib_initializer@event7@@SGXQAV1@@PAXPAXPAXPAXPAXPAXPAXPAXQAVrTypeLibrary@TypeLibraries@RunTime@VIP@@1111111@Z 
01:0000E814 ?anonymous$o1$1$addlistener/2np$event7{@Source,@Type1,@Type2,@Type3,@Type4,@Type5,@Type6,@Type7}@event7@@SAXPAUanonymous$o1$1$addlistener/2np$event7{@Source,@Type1,@Type2,@Type3,@Type4,@Type5,@Type6,@Type7}c_struct@1/8@PAXPAX@Z 
01:0000E838 ?addListener@event7@@SAXQAV1@@PAXPAXPAXPAXPAXPAXPAXPAXQAVrTypeLibrary@TypeLibraries@RunTime@VIP@@1XQAVevent1@@@PAXPAX@Z 
01:0000E8D0 ?anonymous$o2$1$addlistener/2np$event7{@Source,@Type1,@Type2,@Type3,@Type4,@Type5,@Type6,@Type7}@event7@@SAXPAUanonymous$o2$1$addlistener/2np$event7{@Source,@Type1,@Type2,@Type3,@Type4,@Type5,@Type6,@Type7}c_struct@1/8@PAXPAXPAX@Z 
01:0000E8F4 ?addListener@event7@@SAXQAV1@@PAXPAXPAXPAXPAXPAXPAXPAXQAVrTypeLibrary@TypeLibraries@RunTime@VIP@@11XQAVevent2@@@PAXPAXPAX@Z 
01:0000E994 ?anonymous$o3$1$addlistener/2np$event7{@Source,@Type1,@Type2,@Type3,@Type4,@Type5,@Type6,@Type7}@event7@@SAXPAUanonymous$o3$1$addlistener/2np$event7{@Source,@Type1,@Type2,@Type3,@Type4,@Type5,@Type6,@Type7}c_struct@1/8@PAXPAXPAXPAX@Z 
01:0000E9B8 ?addListener@event7@@SAXQAV1@@PAXPAXPAXPAXPAXPAXPAXPAXQAVrTypeLibrary@TypeLibraries@RunTime@VIP@@111XQAVevent3@@@PAXPAXPAXPAX@Z 
01:0000EA5C ?anonymous$o4$1$addlistener/2np$event7{@Source,@Type1,@Type2,@Type3,@Type4,@Type5,@Type6,@Type7}@event7@@SAXPAUanonymous$o4$1$addlistener/2np$event7{@Source,@Type1,@Type2,@Type3,@Type4,@Type5,@Type6,@Type7}c_struct@1/8@PAXPAXPAXPAXPAX@Z 
01:0000EA80 ?addListener@event7@@SAXQAV1@@PAXPAXPAXPAXPAXPAXPAXPAXQAVrTypeLibrary@TypeLibraries@RunTime@VIP@@1111XQAVevent4@@@PAXPAXPAXPAXPAX@Z 
01:0000EB2C ?anonymous$o5$1$addlistener/2np$event7{@Source,@Type1,@Type2,@Type3,@Type4,@Type5,@Type6,@Type7}@event7@@SAXPAUanonymous$o5$1$addlistener/2np$event7{@Source,@Type1,@Type2,@Type3,@Type4,@Type5,@Type6,@Type7}c_struct@1/8@PAXPAXPAXPAXPAXPAX@Z 
01:0000EB50 ?addListener@event7@@SAXQAV1@@PAXPAXPAXPAXPAXPAXPAXPAXQAVrTypeLibrary@TypeLibraries@RunTime@VIP@@11111XQAVevent5@@@PAXPAXPAXPAXPAXPAX@Z 
01:0000EC00 ?anonymous$o6$1$addlistener/2np$event7{@Source,@Type1,@Type2,@Type3,@Type4,@Type5,@Type6,@Type7}@event7@@SAXPAUanonymous$o6$1$addlistener/2np$event7{@Source,@Type1,@Type2,@Type3,@Type4,@Type5,@Type6,@Type7}c_struct@1/8@PAXPAXPAXPAXPAXPAXPAX@Z 
01:0000EC24 ?addListener@event7@@SAXQAV1@@PAXPAXPAXPAXPAXPAXPAXPAXQAVrTypeLibrary@TypeLibraries@RunTime@VIP@@111111XQAVevent6@@@PAXPAXPAXPAXPAXPAXPAX@Z 
01:0000ECDC ?anonymous$o7$1$addlistener/2np$event7{@Source,@Type1,@Type2,@Type3,@Type4,@Type5,@Type6,@Type7}@event7@@SAXPAUanonymous$o7$1$addlistener/2np$event7{@Source,@Type1,@Type2,@Type3,@Type4,@Type5,@Type6,@Type7}c_struct@1/8@PAXPAXPAXPAXPAXPAXPAXPAX@Z 
01:0000ED00 ?addListener@event7@@SAXQAV1@@PAXPAXPAXPAXPAXPAXPAXPAXQAVrTypeLibrary@TypeLibraries@RunTime@VIP@@1111111X0@Z 
01:0000EDBC ?new@event6@@SAXQAV1@@PAXPAXPAXPAXPAXPAXPAXQAVrTypeLibrary@TypeLibraries@RunTime@VIP@@111111PAX@Z  (Idle)
01:0000EDD0 ?addListener@event6@@SAXQAV1@@PAXPAXPAXPAXPAXPAXPAXX@Z 
01:0000EDF8 ?anonymous$o0$1$addlistener/2np$event6{@Source,@Type1,@Type2,@Type3,@Type4,@Type5,@Type6}@event6@@SAXPAUanonymous$o0$1$addlistener/2np$event6{@Source,@Type1,@Type2,@Type3,@Type4,@Type5,@Type6}c_struct@1/7@PAX@Z 
01:0000EE1C ?addListener@event6@@SAXQAV1@@PAXPAXPAXPAXPAXPAXPAXQAVrTypeLibrary@TypeLibraries@RunTime@VIP@@XQAVevent0@@@PAX@Z 
01:0000EEA8 ?removeListener@event6@@SAXQAV1@@PAXPAXPAXPAXPAXPAXPAXX@Z 
01:0000EF48 ?removeAllListeners@event6@@SAXQAV1@@PAXPAXPAXPAXPAXPAXPAX@Z 
01:0000EF84 ?hasListeners@event6@@SAXQAV1@@PAXPAXPAXPAXPAXPAXPAX@Z 
01:0000EFA4 ?notify@event6@@SAXQAV1@@PAXPAXPAXPAXPAXPAXPAXPAXPAXPAXPAXPAXPAX@Z 
01:0000F030 ?_new@event6@@SAXQAVrTypeLibrary@TypeLibraries@RunTime@VIP@@000000PAXPAPAV1@@PAPAXPAPAXPAPAXPAPAXPAPAXPAPAXPAPAX@Z  (Idle)
01:0000F084 ?_object_typelib_initializer@event6@@SGXQAV1@@PAXPAXPAXPAXPAXPAXPAXQAVrTypeLibrary@TypeLibraries@RunTime@VIP@@111111@Z 
01:0000F0C0 ?anonymous$o1$1$addlistener/2np$event6{@Source,@Type1,@Type2,@Type3,@Type4,@Type5,@Type6}@event6@@SAXPAUanonymous$o1$1$addlistener/2np$event6{@Source,@Type1,@Type2,@Type3,@Type4,@Type5,@Type6}c_struct@1/7@PAXPAX@Z 
01:0000F0E4 ?addListener@event6@@SAXQAV1@@PAXPAXPAXPAXPAXPAXPAXQAVrTypeLibrary@TypeLibraries@RunTime@VIP@@1XQAVevent1@@@PAXPAX@Z 
01:0000F178 ?anonymous$o2$1$addlistener/2np$event6{@Source,@Type1,@Type2,@Type3,@Type4,@Type5,@Type6}@event6@@SAXPAUanonymous$o2$1$addlistener/2np$event6{@Source,@Type1,@Type2,@Type3,@Type4,@Type5,@Type6}c_struct@1/7@PAXPAXPAX@Z 
01:0000F19C ?addListener@event6@@SAXQAV1@@PAXPAXPAXPAXPAXPAXPAXQAVrTypeLibrary@TypeLibraries@RunTime@VIP@@11XQAVevent2@@@PAXPAXPAX@Z 
01:0000F234 ?anonymous$o3$1$addlistener/2np$event6{@Source,@Type1,@Type2,@Type3,@Type4,@Type5,@Type6}@event6@@SAXPAUanonymous$o3$1$addlistener/2np$event6{@Source,@Type1,@Type2,@Type3,@Type4,@Type5,@Type6}c_struct@1/7@PAXPAXPAXPAX@Z 
01:0000F258 ?addListener@event6@@SAXQAV1@@PAXPAXPAXPAXPAXPAXPAXQAVrTypeLibrary@TypeLibraries@RunTime@VIP@@111XQAVevent3@@@PAXPAXPAXPAX@Z 
01:0000F2F8 ?anonymous$o4$1$addlistener/2np$event6{@Source,@Type1,@Type2,@Type3,@Type4,@Type5,@Type6}@event6@@SAXPAUanonymous$o4$1$addlistener/2np$event6{@Source,@Type1,@Type2,@Type3,@Type4,@Type5,@Type6}c_struct@1/7@PAXPAXPAXPAXPAX@Z 
01:0000F31C ?addListener@event6@@SAXQAV1@@PAXPAXPAXPAXPAXPAXPAXQAVrTypeLibrary@TypeLibraries@RunTime@VIP@@1111XQAVevent4@@@PAXPAXPAXPAXPAX@Z 
01:0000F3C0 ?anonymous$o5$1$addlistener/2np$event6{@Source,@Type1,@Type2,@Type3,@Type4,@Type5,@Type6}@event6@@SAXPAUanonymous$o5$1$addlistener/2np$event6{@Source,@Type1,@Type2,@Type3,@Type4,@Type5,@Type6}c_struct@1/7@PAXPAXPAXPAXPAXPAX@Z 
01:0000F3E4 ?addListener@event6@@SAXQAV1@@PAXPAXPAXPAXPAXPAXPAXQAVrTypeLibrary@TypeLibraries@RunTime@VIP@@11111XQAVevent5@@@PAXPAXPAXPAXPAXPAX@Z 
01:0000F490 ?anonymous$o6$1$addlistener/2np$event6{@Source,@Type1,@Type2,@Type3,@Type4,@Type5,@Type6}@event6@@SAXPAUanonymous$o6$1$addlistener/2np$event6{@Source,@Type1,@Type2,@Type3,@Type4,@Type5,@Type6}c_struct@1/7@PAXPAXPAXPAXPAXPAXPAX@Z 
01:0000F4B4 ?addListener@event6@@SAXQAV1@@PAXPAXPAXPAXPAXPAXPAXQAVrTypeLibrary@TypeLibraries@RunTime@VIP@@111111X0@Z 
01:0000F564 ?new@event5@@SAXQAV1@@PAXPAXPAXPAXPAXPAXQAVrTypeLibrary@TypeLibraries@RunTime@VIP@@11111PAX@Z  (Idle)
01:0000F578 ?addListener@event5@@SAXQAV1@@PAXPAXPAXPAXPAXPAXX@Z 
01:0000F5A0 ?anonymous$o0$1$addlistener/2np$event5{@Source,@Type1,@Type2,@Type3,@Type4,@Type5}@event5@@SAXPAUanonymous$o0$1$addlistener/2np$event5{@Source,@Type1,@Type2,@Type3,@Type4,@Type5}c_struct@1/6@PAX@Z 
01:0000F5C4 ?addListener@event5@@SAXQAV1@@PAXPAXPAXPAXPAXPAXQAVrTypeLibrary@TypeLibraries@RunTime@VIP@@XQAVevent0@@@PAX@Z 
01:0000F648 ?removeListener@event5@@SAXQAV1@@PAXPAXPAXPAXPAXPAXX@Z 
01:0000F6E8 ?removeAllListeners@event5@@SAXQAV1@@PAXPAXPAXPAXPAXPAX@Z 
01:0000F724 ?hasListeners@event5@@SAXQAV1@@PAXPAXPAXPAXPAXPAX@Z 
01:0000F744 ?notify@event5@@SAXQAV1@@PAXPAXPAXPAXPAXPAXPAXPAXPAXPAXPAX@Z 
--- From 'Obj\scilexer.3C7EBDAC.obj'
01:0000F7CC ?_new@event5@@SAXQAVrTypeLibrary@TypeLibraries@RunTime@VIP@@00000PAXPAPAV1@@PAPAXPAPAXPAPAXPAPAXPAPAXPAPAX@Z 
--- From 'Obj\event.7F9DC97F.obj'
01:0000F818 ?_object_typelib_initializer@event5@@SGXQAV1@@PAXPAXPAXPAXPAXPAXQAVrTypeLibrary@TypeLibraries@RunTime@VIP@@11111@Z 
01:0000F84C ?anonymous$o1$1$addlistener/2np$event5{@Source,@Type1,@Type2,@Type3,@Type4,@Type5}@event5@@SAXPAUanonymous$o1$1$addlistener/2np$event5{@Source,@Type1,@Type2,@Type3,@Type4,@Type5}c_struct@1/6@PAXPAX@Z 
01:0000F870 ?addListener@event5@@SAXQAV1@@PAXPAXPAXPAXPAXPAXQAVrTypeLibrary@TypeLibraries@RunTime@VIP@@1XQAVevent1@@@PAXPAX@Z 
01:0000F8FC ?anonymous$o2$1$addlistener/2np$event5{@Source,@Type1,@Type2,@Type3,@Type4,@Type5}@event5@@SAXPAUanonymous$o2$1$addlistener/2np$event5{@Source,@Type1,@Type2,@Type3,@Type4,@Type5}c_struct@1/6@PAXPAXPAX@Z 
01:0000F920 ?addListener@event5@@SAXQAV1@@PAXPAXPAXPAXPAXPAXQAVrTypeLibrary@TypeLibraries@RunTime@VIP@@11XQAVevent2@@@PAXPAXPAX@Z 
01:0000F9B4 ?anonymous$o3$1$addlistener/2np$event5{@Source,@Type1,@Type2,@Type3,@Type4,@Type5}@event5@@SAXPAUanonymous$o3$1$addlistener/2np$event5{@Source,@Type1,@Type2,@Type3,@Type4,@Type5}c_struct@1/6@PAXPAXPAXPAX@Z 
01:0000F9D8 ?addListener@event5@@SAXQAV1@@PAXPAXPAXPAXPAXPAXQAVrTypeLibrary@TypeLibraries@RunTime@VIP@@111XQAVevent3@@@PAXPAXPAXPAX@Z 
01:0000FA70 ?anonymous$o4$1$addlistener/2np$event5{@Source,@Type1,@Type2,@Type3,@Type4,@Type5}@event5@@SAXPAUanonymous$o4$1$addlistener/2np$event5{@Source,@Type1,@Type2,@Type3,@Type4,@Type5}c_struct@1/6@PAXPAXPAXPAXPAX@Z 
01:0000FA94 ?addListener@event5@@SAXQAV1@@PAXPAXPAXPAXPAXPAXQAVrTypeLibrary@TypeLibraries@RunTime@VIP@@1111XQAVevent4@@@PAXPAXPAXPAXPAX@Z 
01:0000FB34 ?anonymous$o5$1$addlistener/2np$event5{@Source,@Type1,@Type2,@Type3,@Type4,@Type5}@event5@@SAXPAUanonymous$o5$1$addlistener/2np$event5{@Source,@Type1,@Type2,@Type3,@Type4,@Type5}c_struct@1/6@PAXPAXPAXPAXPAXPAX@Z 
01:0000FB58 ?addListener@event5@@SAXQAV1@@PAXPAXPAXPAXPAXPAXQAVrTypeLibrary@TypeLibraries@RunTime@VIP@@11111X0@Z 
01:0000FBFC ?new@event4@@SAXQAV1@@PAXPAXPAXPAXPAXQAVrTypeLibrary@TypeLibraries@RunTime@VIP@@1111PAX@Z  (Idle)
01:0000FC10 ?addListener@event4@@SAXQAV1@@PAXPAXPAXPAXPAXX@Z 
01:0000FC38 ?anonymous$o0$1$addlistener/2np$event4{@Source,@Type1,@Type2,@Type3,@Type4}@event4@@SAXPAUanonymous$o0$1$addlistener/2np$event4{@Source,@Type1,@Type2,@Type3,@Type4}c_struct@1/5@PAX@Z 
01:0000FC5C ?addListener@event4@@SAXQAV1@@PAXPAXPAXPAXPAXQAVrTypeLibrary@TypeLibraries@RunTime@VIP@@XQAVevent0@@@PAX@Z 
01:0000FCDC ?removeListener@event4@@SAXQAV1@@PAXPAXPAXPAXPAXX@Z 
01:0000FD7C ?removeAllListeners@event4@@SAXQAV1@@PAXPAXPAXPAXPAX@Z 
01:0000FDB8 ?hasListeners@event4@@SAXQAV1@@PAXPAXPAXPAXPAX@Z 
01:0000FDD8 ?notify@event4@@SAXQAV1@@PAXPAXPAXPAXPAXPAXPAXPAXPAX@Z 
--- From 'Obj\dragndrop.6F2C210A.obj'
01:0000FE5C ?_new@event4@@SAXQAVrTypeLibrary@TypeLibraries@RunTime@VIP@@0000PAXPAPAV1@@PAPAXPAPAXPAPAXPAPAXPAPAX@Z 
--- From 'Obj\event.7F9DC97F.obj'
01:0000FEA4 ?_object_typelib_initializer@event4@@SGXQAV1@@PAXPAXPAXPAXPAXQAVrTypeLibrary@TypeLibraries@RunTime@VIP@@1111@Z 
01:0000FED4 ?anonymous$o1$1$addlistener/2np$event4{@Source,@Type1,@Type2,@Type3,@Type4}@event4@@SAXPAUanonymous$o1$1$addlistener/2np$event4{@Source,@Type1,@Type2,@Type3,@Type4}c_struct@1/5@PAXPAX@Z 
01:0000FEF8 ?addListener@event4@@SAXQAV1@@PAXPAXPAXPAXPAXQAVrTypeLibrary@TypeLibraries@RunTime@VIP@@1XQAVevent1@@@PAXPAX@Z 
01:0000FF80 ?anonymous$o2$1$addlistener/2np$event4{@Source,@Type1,@Type2,@Type3,@Type4}@event4@@SAXPAUanonymous$o2$1$addlistener/2np$event4{@Source,@Type1,@Type2,@Type3,@Type4}c_struct@1/5@PAXPAXPAX@Z 
01:0000FFA4 ?addListener@event4@@SAXQAV1@@PAXPAXPAXPAXPAXQAVrTypeLibrary@TypeLibraries@RunTime@VIP@@11XQAVevent2@@@PAXPAXPAX@Z 
01:00010030 ?anonymous$o3$1$addlistener/2np$event4{@Source,@Type1,@Type2,@Type3,@Type4}@event4@@SAXPAUanonymous$o3$1$addlistener/2np$event4{@Source,@Type1,@Type2,@Type3,@Type4}c_struct@1/5@PAXPAXPAXPAX@Z 
01:00010054 ?addListener@event4@@SAXQAV1@@PAXPAXPAXPAXPAXQAVrTypeLibrary@TypeLibraries@RunTime@VIP@@111XQAVevent3@@@PAXPAXPAXPAX@Z 
01:000100E8 ?anonymous$o4$1$addlistener/2np$event4{@Source,@Type1,@Type2,@Type3,@Type4}@event4@@SAXPAUanonymous$o4$1$addlistener/2np$event4{@Source,@Type1,@Type2,@Type3,@Type4}c_struct@1/5@PAXPAXPAXPAXPAX@Z 
01:0001010C ?addListener@event4@@SAXQAV1@@PAXPAXPAXPAXPAXQAVrTypeLibrary@TypeLibraries@RunTime@VIP@@1111X0@Z 
01:000101A4 ?anonymous$o5$1$addlistener/2np$event4{@Source,@Type1,@Type2,@Type3,@Type4}@event4@@SAXPAUanonymous$o5$1$addlistener/2np$event4{@Source,@Type1,@Type2,@Type3,@Type4}c_struct@1/5@PAXPAXPAXPAXPAXPAX@Z 
01:000101C8 ?addListener@event4@@SAXQAV1@@PAXPAXPAXPAXPAXQAVrTypeLibrary@TypeLibraries@RunTime@VIP@@11111XQAVevent5@@@PAXPAXPAXPAXPAXPAX@Z 
01:00010268 ?new@event3@@SAXQAV1@@PAXPAXPAXPAXQAVrTypeLibrary@TypeLibraries@RunTime@VIP@@111PAX@Z  (Idle)
01:0001027C ?addListener@event3@@SAXQAV1@@PAXPAXPAXPAXX@Z 
01:000102A4 ?anonymous$o0$1$addlistener/2np$event3{@Source,@Type1,@Type2,@Type3}@event3@@SAXPAUanonymous$o0$1$addlistener/2np$event3{@Source,@Type1,@Type2,@Type3}c_struct@1/4@PAX@Z 
01:000102C8 ?addListener@event3@@SAXQAV1@@PAXPAXPAXPAXQAVrTypeLibrary@TypeLibraries@RunTime@VIP@@XQAVevent0@@@PAX@Z 
01:00010340 ?removeListener@event3@@SAXQAV1@@PAXPAXPAXPAXX@Z 
01:000103E0 ?removeAllListeners@event3@@SAXQAV1@@PAXPAXPAXPAX@Z 
01:0001041C ?hasListeners@event3@@SAXQAV1@@PAXPAXPAXPAX@Z 
01:0001043C ?notify@event3@@SAXQAV1@@PAXPAXPAXPAXPAXPAXPAX@Z 
--- From 'Obj\dragndrop.6F2C210A.obj'
01:000104C0 ?_new@event3@@SAXQAVrTypeLibrary@TypeLibraries@RunTime@VIP@@000PAXPAPAV1@@PAPAXPAPAXPAPAXPAPAX@Z 
--- From 'Obj\event.7F9DC97F.obj'
01:00010500 ?_object_typelib_initializer@event3@@SGXQAV1@@PAXPAXPAXPAXQAVrTypeLibrary@TypeLibraries@RunTime@VIP@@111@Z 
01:00010528 ?anonymous$o1$1$addlistener/2np$event3{@Source,@Type1,@Type2,@Type3}@event3@@SAXPAUanonymous$o1$1$addlistener/2np$event3{@Source,@Type1,@Type2,@Type3}c_struct@1/4@PAXPAX@Z 
01:0001054C ?addListener@event3@@SAXQAV1@@PAXPAXPAXPAXQAVrTypeLibrary@TypeLibraries@RunTime@VIP@@1XQAVevent1@@@PAXPAX@Z 
01:000105CC ?anonymous$o2$1$addlistener/2np$event3{@Source,@Type1,@Type2,@Type3}@event3@@SAXPAUanonymous$o2$1$addlistener/2np$event3{@Source,@Type1,@Type2,@Type3}c_struct@1/4@PAXPAXPAX@Z 
01:000105F0 ?addListener@event3@@SAXQAV1@@PAXPAXPAXPAXQAVrTypeLibrary@TypeLibraries@RunTime@VIP@@11XQAVevent2@@@PAXPAXPAX@Z 
01:00010678 ?anonymous$o3$1$addlistener/2np$event3{@Source,@Type1,@Type2,@Type3}@event3@@SAXPAUanonymous$o3$1$addlistener/2np$event3{@Source,@Type1,@Type2,@Type3}c_struct@1/4@PAXPAXPAXPAX@Z 
01:0001069C ?addListener@event3@@SAXQAV1@@PAXPAXPAXPAXQAVrTypeLibrary@TypeLibraries@RunTime@VIP@@111X0@Z 
01:00010728 ?anonymous$o4$1$addlistener/2np$event3{@Source,@Type1,@Type2,@Type3}@event3@@SAXPAUanonymous$o4$1$addlistener/2np$event3{@Source,@Type1,@Type2,@Type3}c_struct@1/4@PAXPAXPAXPAXPAX@Z 
01:0001074C ?addListener@event3@@SAXQAV1@@PAXPAXPAXPAXQAVrTypeLibrary@TypeLibraries@RunTime@VIP@@1111XQAVevent4@@@PAXPAXPAXPAXPAX@Z 
01:000107E0 ?anonymous$o5$1$addlistener/2np$event3{@Source,@Type1,@Type2,@Type3}@event3@@SAXPAUanonymous$o5$1$addlistener/2np$event3{@Source,@Type1,@Type2,@Type3}c_struct@1/4@PAXPAXPAXPAXPAXPAX@Z 
01:00010804 ?addListener@event3@@SAXQAV1@@PAXPAXPAXPAXQAVrTypeLibrary@TypeLibraries@RunTime@VIP@@11111XQAVevent5@@@PAXPAXPAXPAXPAXPAX@Z 
01:0001089C ?new@event2@@SAXQAV1@@PAXPAXPAXQAVrTypeLibrary@TypeLibraries@RunTime@VIP@@11PAX@Z  (Idle)
01:000108B0 ?addListener@event2@@SAXQAV1@@PAXPAXPAXX@Z 
01:000108D8 ?anonymous$o0$1$addlistener/2np$event2{@Source,@Type1,@Type2}@event2@@SAXPAUanonymous$o0$1$addlistener/2np$event2{@Source,@Type1,@Type2}c_struct@1/3@PAX@Z 
01:000108FC ?addListener@event2@@SAXQAV1@@PAXPAXPAXQAVrTypeLibrary@TypeLibraries@RunTime@VIP@@XQAVevent0@@@PAX@Z 
01:00010970 ?removeListener@event2@@SAXQAV1@@PAXPAXPAXX@Z 
01:00010A10 ?removeAllListeners@event2@@SAXQAV1@@PAXPAXPAX@Z 
01:00010A4C ?hasListeners@event2@@SAXQAV1@@PAXPAXPAX@Z 
01:00010A6C ?notify@event2@@SAXQAV1@@PAXPAXPAXPAXPAX@Z 
--- From 'Obj\scilexer.3C7EBDAC.obj'
01:00010AEC ?_new@event2@@SAXQAVrTypeLibrary@TypeLibraries@RunTime@VIP@@00PAXPAPAV1@@PAPAXPAPAXPAPAX@Z 
--- From 'Obj\event.7F9DC97F.obj'
01:00010B28 ?_object_typelib_initializer@event2@@SGXQAV1@@PAXPAXPAXQAVrTypeLibrary@TypeLibraries@RunTime@VIP@@11@Z 
01:00010B4C ?anonymous$o1$1$addlistener/2np$event2{@Source,@Type1,@Type2}@event2@@SAXPAUanonymous$o1$1$addlistener/2np$event2{@Source,@Type1,@Type2}c_struct@1/3@PAXPAX@Z 
01:00010B70 ?addListener@event2@@SAXQAV1@@PAXPAXPAXQAVrTypeLibrary@TypeLibraries@RunTime@VIP@@1XQAVevent1@@@PAXPAX@Z 
01:00010BEC ?anonymous$o2$1$addlistener/2np$event2{@Source,@Type1,@Type2}@event2@@SAXPAUanonymous$o2$1$addlistener/2np$event2{@Source,@Type1,@Type2}c_struct@1/3@PAXPAXPAX@Z 
01:00010C10 ?addListener@event2@@SAXQAV1@@PAXPAXPAXQAVrTypeLibrary@TypeLibraries@RunTime@VIP@@11X0@Z 
01:00010C90 ?anonymous$o3$1$addlistener/2np$event2{@Source,@Type1,@Type2}@event2@@SAXPAUanonymous$o3$1$addlistener/2np$event2{@Source,@Type1,@Type2}c_struct@1/3@PAXPAXPAXPAX@Z 
01:00010CB4 ?addListener@event2@@SAXQAV1@@PAXPAXPAXQAVrTypeLibrary@TypeLibraries@RunTime@VIP@@111XQAVevent3@@@PAXPAXPAXPAX@Z 
01:00010D3C ?anonymous$o4$1$addlistener/2np$event2{@Source,@Type1,@Type2}@event2@@SAXPAUanonymous$o4$1$addlistener/2np$event2{@Source,@Type1,@Type2}c_struct@1/3@PAXPAXPAXPAXPAX@Z 
01:00010D60 ?addListener@event2@@SAXQAV1@@PAXPAXPAXQAVrTypeLibrary@TypeLibraries@RunTime@VIP@@1111XQAVevent4@@@PAXPAXPAXPAXPAX@Z 
01:00010DEC ?anonymous$o5$1$addlistener/2np$event2{@Source,@Type1,@Type2}@event2@@SAXPAUanonymous$o5$1$addlistener/2np$event2{@Source,@Type1,@Type2}c_struct@1/3@PAXPAXPAXPAXPAXPAX@Z 
01:00010E10 ?addListener@event2@@SAXQAV1@@PAXPAXPAXQAVrTypeLibrary@TypeLibraries@RunTime@VIP@@11111XQAVevent5@@@PAXPAXPAXPAXPAXPAX@Z 
01:00010EA4 ?new@event1@@SAXQAV1@@PAXPAXQAVrTypeLibrary@TypeLibraries@RunTime@VIP@@1PAX@Z  (Idle)
01:00010EB8 ?addListener@event1@@SAXQAV1@@PAXPAXX@Z 
01:00010EE0 ?anonymous$o0$1$addlistener/2np$event1{@Source,@Type1}@event1@@SAXPAUanonymous$o0$1$addlistener/2np$event1{@Source,@Type1}c_struct@1/2@PAX@Z 
01:00010F04 ?addListener@event1@@SAXQAV1@@PAXPAXQAVrTypeLibrary@TypeLibraries@RunTime@VIP@@XQAVevent0@@@PAX@Z 
01:00010F70 ?removeListener@event1@@SAXQAV1@@PAXPAXX@Z 
01:00011010 ?removeAllListeners@event1@@SAXQAV1@@PAXPAX@Z 
01:0001104C ?hasListeners@event1@@SAXQAV1@@PAXPAX@Z 
01:0001106C ?notify@event1@@SAXQAV1@@PAXPAXPAX@Z 
--- From 'Obj\scilexer.3C7EBDAC.obj'
01:000110E8 ?_new@event1@@SAXQAVrTypeLibrary@TypeLibraries@RunTime@VIP@@0PAXPAPAV1@@PAPAXPAPAX@Z 
--- From 'Obj\event.7F9DC97F.obj'
01:0001111C ?_object_typelib_initializer@event1@@SGXQAV1@@PAXPAXQAVrTypeLibrary@TypeLibraries@RunTime@VIP@@1@Z 
01:00011138 ?anonymous$o1$1$addlistener/2np$event1{@Source,@Type1}@event1@@SAXPAUanonymous$o1$1$addlistener/2np$event1{@Source,@Type1}c_struct@1/2@PAXPAX@Z 
01:0001115C ?addListener@event1@@SAXQAV1@@PAXPAXQAVrTypeLibrary@TypeLibraries@RunTime@VIP@@1X0@Z 
01:000111D0 ?anonymous$o2$1$addlistener/2np$event1{@Source,@Type1}@event1@@SAXPAUanonymous$o2$1$addlistener/2np$event1{@Source,@Type1}c_struct@1/2@PAXPAXPAX@Z 
01:000111F4 ?addListener@event1@@SAXQAV1@@PAXPAXQAVrTypeLibrary@TypeLibraries@RunTime@VIP@@11XQAVevent2@@@PAXPAXPAX@Z 
01:00011270 ?anonymous$o3$1$addlistener/2np$event1{@Source,@Type1}@event1@@SAXPAUanonymous$o3$1$addlistener/2np$event1{@Source,@Type1}c_struct@1/2@PAXPAXPAXPAX@Z 
01:00011294 ?addListener@event1@@SAXQAV1@@PAXPAXQAVrTypeLibrary@TypeLibraries@RunTime@VIP@@111XQAVevent3@@@PAXPAXPAXPAX@Z 
01:00011314 ?anonymous$o4$1$addlistener/2np$event1{@Source,@Type1}@event1@@SAXPAUanonymous$o4$1$addlistener/2np$event1{@Source,@Type1}c_struct@1/2@PAXPAXPAXPAXPAX@Z 
01:00011338 ?addListener@event1@@SAXQAV1@@PAXPAXQAVrTypeLibrary@TypeLibraries@RunTime@VIP@@1111XQAVevent4@@@PAXPAXPAXPAXPAX@Z 
01:000113C0 ?anonymous$o5$1$addlistener/2np$event1{@Source,@Type1}@event1@@SAXPAUanonymous$o5$1$addlistener/2np$event1{@Source,@Type1}c_struct@1/2@PAXPAXPAXPAXPAXPAX@Z 
01:000113E4 ?addListener@event1@@SAXQAV1@@PAXPAXQAVrTypeLibrary@TypeLibraries@RunTime@VIP@@11111XQAVevent5@@@PAXPAXPAXPAXPAXPAX@Z 
01:00011470 ?new@event0@@SAXQAV1@@PAXQAVrTypeLibrary@TypeLibraries@RunTime@VIP@@PAX@Z  (Idle)
01:00011484 ?addListener@event0@@SAXQAV1@@PAXX@Z 
01:000114AC ?anonymous$o0$1$addlistener/2np$event0{@Source}@event0@@SAXPAUanonymous$o0$1$addlistener/2np$event0{@Source}c_struct@1/1@PAX@Z 
01:000114D0 ?addListener@event0@@SAXQAV1@@PAXQAVrTypeLibrary@TypeLibraries@RunTime@VIP@@X0@Z 
01:00011538 ?removeListener@event0@@SAXQAV1@@PAXX@Z 
01:000115D8 ?removeAllListeners@event0@@SAXQAV1@@PAX@Z 
01:00011614 ?hasListeners@event0@@SAXQAV1@@PAX@Z 
01:00011634 ?notify@event0@@SAXQAV1@@PAX@Z 
--- From 'Obj\varm.7798368B.obj'
01:000116AC ?_new@event0@@SAXQAVrTypeLibrary@TypeLibraries@RunTime@VIP@@PAXPAPAV1@@PAPAX@Z 
--- From 'Obj\event.7F9DC97F.obj'
01:000116DC ?_object_typelib_initializer@event0@@SGXQAV1@@PAXQAVrTypeLibrary@TypeLibraries@RunTime@VIP@@@Z 
01:000116F4 ?anonymous$o1$1$addlistener/2np$event0{@Source}@event0@@SAXPAUanonymous$o1$1$addlistener/2np$event0{@Source}c_struct@1/1@PAXPAX@Z 
01:00011718 ?addListener@event0@@SAXQAV1@@PAXQAVrTypeLibrary@TypeLibraries@RunTime@VIP@@1XQAVevent1@@@PAXPAX@Z 
01:00011788 ?anonymous$o2$1$addlistener/2np$event0{@Source}@event0@@SAXPAUanonymous$o2$1$addlistener/2np$event0{@Source}c_struct@1/1@PAXPAXPAX@Z 
01:000117AC ?addListener@event0@@SAXQAV1@@PAXQAVrTypeLibrary@TypeLibraries@RunTime@VIP@@11XQAVevent2@@@PAXPAXPAX@Z 
01:00011820 ?anonymous$o3$1$addlistener/2np$event0{@Source}@event0@@SAXPAUanonymous$o3$1$addlistener/2np$event0{@Source}c_struct@1/1@PAXPAXPAXPAX@Z 
01:00011844 ?addListener@event0@@SAXQAV1@@PAXQAVrTypeLibrary@TypeLibraries@RunTime@VIP@@111XQAVevent3@@@PAXPAXPAXPAX@Z 
01:000118C0 ?anonymous$o4$1$addlistener/2np$event0{@Source}@event0@@SAXPAUanonymous$o4$1$addlistener/2np$event0{@Source}c_struct@1/1@PAXPAXPAXPAXPAX@Z 
01:000118E4 ?addListener@event0@@SAXQAV1@@PAXQAVrTypeLibrary@TypeLibraries@RunTime@VIP@@1111XQAVevent4@@@PAXPAXPAXPAXPAX@Z 
01:00011964 ?anonymous$o5$1$addlistener/2np$event0{@Source}@event0@@SAXPAUanonymous$o5$1$addlistener/2np$event0{@Source}c_struct@1/1@PAXPAXPAXPAXPAXPAX@Z 
01:00011988 ?addListener@event0@@SAXQAV1@@PAXQAVrTypeLibrary@TypeLibraries@RunTime@VIP@@11111XQAVevent5@@@PAXPAXPAXPAXPAXPAX@Z 
01:00011A18 event7{@Source,@Type1,@Type2,@Type3,@Type4,@Type5,@Type6,@Type7}?_initObject@@@QAGXQAV1@H@Z 
01:00011A58 ?@create_object@event7@@SGQAV1@@PAXPAXPAXPAXPAXPAXPAXPAXQAVrTypeLibrary@TypeLibraries@RunTime@VIP@@0000000@Z 
01:00011A98 event7{@Source,@Type1,@Type2,@Type3,@Type4,@Type5,@Type6,@Type7}?_InternalFinalizer@@@QAGXQAV1@@Z 
01:00011AAC event6{@Source,@Type1,@Type2,@Type3,@Type4,@Type5,@Type6}?_initObject@@@QAGXQAV1@H@Z 
01:00011AE8 ?@create_object@event6@@SGQAV1@@PAXPAXPAXPAXPAXPAXPAXQAVrTypeLibrary@TypeLibraries@RunTime@VIP@@000000@Z 
01:00011B24 event6{@Source,@Type1,@Type2,@Type3,@Type4,@Type5,@Type6}?_InternalFinalizer@@@QAGXQAV1@@Z 
01:00011B38 event5{@Source,@Type1,@Type2,@Type3,@Type4,@Type5}?_initObject@@@QAGXQAV1@H@Z 
01:00011B70 ?@create_object@event5@@SGQAV1@@PAXPAXPAXPAXPAXPAXQAVrTypeLibrary@TypeLibraries@RunTime@VIP@@00000@Z 
01:00011BA8 event5{@Source,@Type1,@Type2,@Type3,@Type4,@Type5}?_InternalFinalizer@@@QAGXQAV1@@Z 
01:00011BBC event4{@Source,@Type1,@Type2,@Type3,@Type4}?_initObject@@@QAGXQAV1@H@Z 
01:00011BF0 ?@create_object@event4@@SGQAV1@@PAXPAXPAXPAXPAXQAVrTypeLibrary@TypeLibraries@RunTime@VIP@@0000@Z 
01:00011C24 event4{@Source,@Type1,@Type2,@Type3,@Type4}?_InternalFinalizer@@@QAGXQAV1@@Z 
01:00011C38 event3{@Source,@Type1,@Type2,@Type3}?_initObject@@@QAGXQAV1@H@Z 
01:00011C68 ?@create_object@event3@@SGQAV1@@PAXPAXPAXPAXQAVrTypeLibrary@TypeLibraries@RunTime@VIP@@000@Z 
01:00011C98 event3{@Source,@Type1,@Type2,@Type3}?_InternalFinalizer@@@QAGXQAV1@@Z 
01:00011CAC event2{@Source,@Type1,@Type2}?_initObject@@@QAGXQAV1@H@Z 
01:00011CD8 ?@create_object@event2@@SGQAV1@@PAXPAXPAXQAVrTypeLibrary@TypeLibraries@RunTime@VIP@@00@Z 
01:00011D04 event2{@Source,@Type1,@Type2}?_InternalFinalizer@@@QAGXQAV1@@Z 
01:00011D18 event1{@Source,@Type1}?_initObject@@@QAGXQAV1@H@Z 
01:00011D40 ?@create_object@event1@@SGQAV1@@PAXPAXQAVrTypeLibrary@TypeLibraries@RunTime@VIP@@0@Z 
01:00011D68 event1{@Source,@Type1}?_InternalFinalizer@@@QAGXQAV1@@Z 
01:00011D7C event0{@Source}?_initObject@@@QAGXQAV1@H@Z 
01:00011DA0 ?@create_object@event0@@SGQAV1@@PAXQAVrTypeLibrary@TypeLibraries@RunTime@VIP@@@Z 
01:00011DC4 event0{@Source}?_InternalFinalizer@@@QAGXQAV1@@Z 
--- From 'Obj\exception.D4690B8C.obj'
01:00011DD0 _runtimeExceptionRaiser 
01:00011F44 ?_exceptionFromExceptionCode@runtime_exception@@SAXIPAPAUexception_struct@core@@@Z 
--- From 'Obj\string.F9F3830B.obj'
01:00011FB4 ?_exceptionFromErrorCode@runtime_exception@@SAXIPAPAUexception_struct@core@@@Z 
--- From 'Obj\exception.D4690B8C.obj'
01:00012724 ?raise_externalError_explicit@exception_exception@@SAXPAUprogramPoint_struct@core@@PBUerrorCode@programControl@@PAU?$__packedList_struct@UnamedValue@@@@@Z  (Idle)
01:00012794 ?_tryGetDescriptor@exception@@SAXPBUtraceId@@PAUexception_struct@core@@PAPAUdescriptor_struct@1@@Z  (Idle)
01:00012824 ?findException@exception@@SAXPBUtraceId@@PAU?$__packedList_struct@U1@@@@Z  (Idle)
01:00012884 ?_getDescriptor_nd@exception@@SAXPBUtraceId@@PAPAUdescriptor_struct@1@@Z 
01:000128AC ?_getDescriptorChain_nd@exception@@SAXQAVerrorDescriptorInformation@@@PAPAUdescriptor_struct@1@@Z 
01:00012904 ?_getDescriptorChain1_nd@exception@@SAXQAVerrorDescriptorInformation@@@PAPAUdescriptor_struct@1@@Z 
01:000129E4 ?_getDescriptorChainFromPacked_nd@exception@@SAXPAU?$__packedList_struct@UnamedValue@@@@PAPAUdescriptor_struct@1@@Z 
--- From 'Obj\errorpresentationdialog.0BD1CEB3.obj'
01:00012A84 ?_getTraceInfo@exception@@SAXPBUtraceId@@PAPAUtraceInfo_struct@1@@Z 
--- From 'Obj\exception.D4690B8C.obj'
01:00012B80 ?_getStackInfo_nd@exception@@SAXQAVtrapInformationObject@@@PAPAUlineInfo_struct@1@@Z 
01:00012CBC ?_getModuleHandleByAddress@exception@@SAXPAXAAUhModule@@@Z  (Idle)
01:00012D0C ?_getModuleNameByAddress@exception@@SAXPAXPAPB_W@Z  (Idle)
01:00012D64 ?_tryGetLineInfo@exception@@SAXPAXPAPAUlineInfo_struct@1@@Z 
01:00012E14 ?_tryGetExtraInfo@exception@@SAXPAUdescriptor_struct@1@PB_WPAPAUvalue_struct@core@@@Z  (Idle)
01:00012E2C ?_searchInfoList@exception@@SAXPAU?$__packedList_struct@UnamedValue@@@@PB_WPAPAUvalue_struct@core@@@Z 
--- From 'Obj\string.F9F3830B.obj'
01:00012E90 ?_getErrorCode@exception@@SAXPBUtraceId@@PAI@Z 
01:00012ED8 ?_tryGetErrorDescriptorInformation@exception@@SAXPBUtraceId@@PAPAVerrorDescriptorInformation@@@@Z 
--- From 'Obj\exception.D4690B8C.obj'
01:00012F00 ?_tryGetErrorDescriptorInformation1@exception@@SAXQAVtrapInformationObject@@@PAPAVerrorDescriptorInformation@@@@Z 
01:00012F24 ?_getTrapInformationObject@exception@@SAXPBUtraceId@@PAPAVtrapInformationObject@@@@Z  (Idle)
--- From 'Obj\multithread.7430C03B.obj'
01:00012FF4 ?_tryGetTrapInformationObject@exception@@SAXPBUtraceId@@PAPAVtrapInformationObject@@@@Z 
--- From 'Obj\vpi.957343EE.obj'
01:00013094 ?raiseDetailed_explicit@exception@@SAXPAUprogramPoint_struct@core@@PAUexception_struct@3@PAU?$__packedList_struct@UnamedValue@@@@@Z 
--- From 'Obj\string.F9F3830B.obj'
01:000130B0 ?raise_explicit@exception@@SAXPAUprogramPoint_struct@core@@PAUexception_struct@3@@Z 
--- From 'Obj\time_api.F873F3B3.obj'
01:000130C8 ?raise_explicit@exception@@SAXPAUprogramPoint_struct@core@@PAUexception_struct@3@PAU?$__packedList_struct@UnamedValue@@@@@Z 
--- From 'Obj\memory_api.91A25169.obj'
01:00013208 ?raise_error_explicit@exception@@SAXPAUprogramPoint_struct@core@@@Z 
--- From 'Obj\regex.AC53B9AD.obj'
01:00013288 ?raise_exception_explicit@exception@@SAXPAUprogramPoint_struct@core@@PAUexception_struct@3@@Z 
--- From 'Obj\exception.D4690B8C.obj'
01:00013308 ?raise_user_explicit@exception@@SAXPAUprogramPoint_struct@core@@PB_W@Z  (Idle)
01:00013320 ?raise_user_explicit@exception@@SAXPAUprogramPoint_struct@core@@PB_WPAU?$__packedList_struct@UnamedValue@@@@@Z 
01:00013340 ?raise_user_explicit@exception@@SAXPAUprogramPoint_struct@core@@PAUexception_struct@3@PB_WPAU?$__packedList_struct@UnamedValue@@@@@Z 
01:000133B0 ?raise_definiteUser_explicit@exception@@SAXPAUprogramPoint_struct@core@@PB_W@Z  (Idle)
01:000133C8 ?raise_definiteUser_explicit@exception@@SAXPAUprogramPoint_struct@core@@PB_WPAU?$__packedList_struct@UnamedValue@@@@@Z 
--- From 'Obj\filesystem_api.8DE14D9B.obj'
01:000133E8 ?raise_definiteUser_explicit@exception@@SAXPAUprogramPoint_struct@core@@PAUexception_struct@3@PB_WPAU?$__packedList_struct@UnamedValue@@@@@Z 
--- From 'Obj\exception.D4690B8C.obj'
01:0001346C ?raise_packed_explicit@exception@@SAXPAUprogramPoint_struct@core@@PAUtraceInfo_struct@1@@Z  (Idle)
--- From 'Obj\shell_api.8228437A.obj'
01:00013550 ?raise_errorf_explicit@exception@@SAXPAUprogramPoint_struct@core@@PB_W@Z 
--- From 'Obj\exception.D4690B8C.obj'
01:00013614 ?raise_couldNotCreate_explicit@exception@@SAXPAUprogramPoint_struct@core@@PAU?$__packedList_struct@UnamedValue@@@@@Z  (Idle)
--- From 'Obj\gui.EF789F46.obj'
01:00013630 ?raise_removeListener_explicit@exception@@SAXPAUprogramPoint_struct@core@@PB_W@Z 
--- From 'Obj\uxtheme_api.B5024176.obj'
01:000136A4 ?raise_nativeCallException_explicit@exception@@SAXPAUprogramPoint_struct@core@@PB_WPBUhResult@@PAU?$__packedList_struct@UnamedValue@@@@@Z 
--- From 'Obj\multithread_api.0FAFDF41.obj'
01:000136D8 ?raise_nativeCallException_explicit@exception@@SAXPAUprogramPoint_struct@core@@PB_WPBUhResult@@1PAU?$__packedList_struct@UnamedValue@@@@@Z 
--- From 'Obj\varm.7798368B.obj'
01:00013878 ?raise_unsupportedPredicate_explicit@exception@@SAXPAUprogramPoint_struct@core@@@Z 
--- From 'Obj\gui.EF789F46.obj'
01:00013890 ?raise_overloadingExpected_explicit@exception@@SAXPAUprogramPoint_struct@core@@@Z 
--- From 'Obj\exception.D4690B8C.obj'
01:000138A8 ?continueDetailed_explicit@exception@@SAXPAUprogramPoint_struct@core@@PBUtraceId@@PAUexception_struct@3@@Z  (Idle)
--- From 'Obj\gui.EF789F46.obj'
01:000138C4 ?continueDetailed_explicit@exception@@SAXPAUprogramPoint_struct@core@@PBUtraceId@@PAUexception_struct@3@PAU?$__packedList_struct@UnamedValue@@@@@Z 
--- From 'Obj\string.F9F3830B.obj'
01:000138E0 ?continue_explicit@exception@@SAXPAUprogramPoint_struct@core@@PBUtraceId@@PAUexception_struct@3@PAU?$__packedList_struct@UnamedValue@@@@@Z 
--- From 'Obj\exception.D4690B8C.obj'
01:00013910 ?continue1_explicit@exception@@SAXPAUprogrampoint_struct@core@@QAVtrapInformationObject@@@PAUexception_struct@3@PAU?$__packedList_struct@UnamedValue@@@@@Z 
01:00013A8C ?continue_exceptionInListener_explicit@exception@@SAXPAUprogramPoint_struct@core@@PBUtraceId@@PB_W@Z  (Idle)
--- From 'Obj\registry.BB9D824C.obj'
01:00013B00 ?continue_unknown_explicit@exception@@SAXPAUprogramPoint_struct@core@@PBUtraceId@@@Z 
--- From 'Obj\exception.D4690B8C.obj'
01:00013B84 ?continue_user_explicit@exception@@SAXPAUprogramPoint_struct@core@@PBUtraceId@@PB_W@Z  (Idle)
--- From 'Obj\vpi.957343EE.obj'
01:00013BA0 ?continue_user_explicit@exception@@SAXPAUprogramPoint_struct@core@@PBUtraceId@@PB_WPAU?$__packedList_struct@UnamedValue@@@@@Z 
--- From 'Obj\exception.D4690B8C.obj'
01:00013BC4 ?continue_user_explicit@exception@@SAXPAUprogramPoint_struct@core@@PBUtraceId@@PAUexception_struct@3@PB_WPAU?$__packedList_struct@UnamedValue@@@@@Z 
01:00013C38 ?continue_definiteUser_explicit@exception@@SAXPAUprogramPoint_struct@core@@PBUtraceId@@PB_W@Z  (Idle)
01:00013C54 ?continue_definiteUser_explicit@exception@@SAXPAUprogramPoint_struct@core@@PBUtraceId@@PB_WPAU?$__packedList_struct@UnamedValue@@@@@Z 
01:00013C78 ?continue_definiteUser_explicit@exception@@SAXPAUprogramPoint_struct@core@@PBUtraceId@@PAUexception_struct@3@PB_WPAU?$__packedList_struct@UnamedValue@@@@@Z 
--- From 'Obj\errorpresentationdialog.0BD1CEB3.obj'
01:00013D00 ?isDefiniteUserError@exception@@SAXPBUtraceId@@@Z 
--- From 'Obj\shell_api.8228437A.obj'
01:00013D3C ?_getLastErrorDescription@exception@@SAXPBUhResult@@PAPB_W@Z 
--- From 'Obj\exception.D4690B8C.obj'
01:00013D78 ?new@errorDescriptorInformation@@SAXQAV1@@PAUprogramPoint_struct@core@@PAUexception_struct@4@PAUkind_struct@exception@@PAU?$__packedList_struct@UnamedValue@@@@PAPBUgmtTimeValue@@PBUthreadId@multiThread_native@@@Z  (Idle)
01:00013E00 ?gmtTimeFormatted@errorDescriptorInformation@@SGPB_WQAV1@@@Z 
01:00013E30 ?_tryGetContinueException@errorDescriptorInformation@@SAXQAV1@@PAPAV1@@@Z 
01:00013E54 ?setContinueException@errorDescriptorInformation@@SAXQAV1@@0@Z 
01:00013E7C ?_create@errorDescriptorInformation@@SAXPAUprogramPoint_struct@core@@PAUexception_struct@3@PAUkind_struct@exception@@PAU?$__packedList_struct@UnamedValue@@@@PAPAV1@@@Z 
01:00013EC0 ?exceptionDescription@errorDescriptorInformation@@SGPB_WQAV1@@@Z 
--- From 'Obj\exceptiondump.F629D2CA.obj'
01:00013EE0 ?_formatDateTime@errorDescriptorInformation@@SAXPAPBUgmtTimeValue@core@@PAPB_W@Z 
--- From 'Obj\exception.D4690B8C.obj'
01:00013F6C ?_new@errorDescriptorInformation@@SAXPAUprogramPoint_struct@core@@PAUexception_struct@3@PAUkind_struct@exception@@PAU?$__packedList_struct@UnamedValue@@@@PAPBUgmtTimeValue@@PBUthreadId@multiThread_native@@PAPAV1@@@Z 
01:00013FA4 ?exception@errorDescriptorInformation@@SGPAUexception_struct@core@@QAV1@@@Z 
01:00013FB0 ?programPointDescriptor@errorDescriptorInformation@@SGPAUprogramPointDescriptor_struct@exception@@QAV1@@@Z 
01:00013FBC ?kind@errorDescriptorInformation@@SGPAUkind_struct@exception@@QAV1@@@Z 
01:00013FC8 ?extraInfo@errorDescriptorInformation@@SGXQAV1@@PAU?$__packedList_struct@UnamedValue@@@@@Z 
01:00013FD8 ?extraInfo@errorDescriptorInformation@@SGPAU?$__packedList_struct@UnamedValue@@@@QAV1@@@Z 
01:00013FE4 ?_gmtTime@errorDescriptorInformation@@SAXQAV1@@PAAAUgmtTimeValue@@@Z 
01:00013FF8 ?threadId@errorDescriptorInformation@@SGPBU0multiThread_native@@QAV1@@@Z 
01:0001400C errorDescriptorInformation?_initObject@@@QAGXQAV1@H@Z 
01:00014020 ?@create_object@errorDescriptorInformation@@SGQAV1@@XZ 
01:0001403C errorDescriptorInformation?_InternalFinalizer@@@QAGXQAV1@@Z 
--- From 'Obj\exceptiondump.F629D2CA.obj'
01:00014050 ?dump@exceptionDump@@SAXQAVoutputStream@@@PBUtraceId@exception@@@Z  (Idle)
--- From 'Obj\errorpresentationdialog.0BD1CEB3.obj'
01:00014078 ?dump_info@exceptionDump@@SAXQAVoutputStream@@@PAUtraceInfo_struct@exception@@@Z 
--- From 'Obj\exceptiondump.F629D2CA.obj'
01:00014104 ?dump_programPoint@exceptionDump@@SAXQAVoutputStream@@@PAUprogramPoint_struct@core@@@Z 
01:000141FC ?dumpToStdOutput@exceptionDump@@SAXPBUtraceId@exception@@@Z 
01:00014224 ?dumpToStdOutput_info@exceptionDump@@SAXPAUtraceInfo_struct@exception@@@Z 
01:00014280 ?dumpToStdOutput_programpoint@exceptionDump@@SAXPAUprogramPoint_struct@core@@@Z  (Idle)
--- From 'Obj\vpi.957343EE.obj'
01:000142DC ?_dumpToString@exceptionDump@@SAXPBUtraceId@exception@@PAPB_W@Z 
--- From 'Obj\exceptiondump.F629D2CA.obj'
01:00014304 ?_dumpToString_info@exceptionDump@@SAXPAUtraceInfo_struct@exception@@PAPB_W@Z 
01:0001433C ?_dumpToString_programpoint@exceptionDump@@SAXPAUprogramPoint_struct@core@@PAPB_W@Z  (Idle)
01:00014374 ?dumpToStdOutputInTrap@exceptionDump@@SAXQAVrTypeLibrary@TypeLibraries@RunTime@VIP@@PAXX@Z 
01:00014420 ?processErrorOnDumpToStdOut@exceptionDump@@SAXPAUtraceInfo_struct@exception@@@Z  (Idle)
01:00014494 ?processErrorOnDumpToStdOutTrapped@exceptionDump@@SAXPBUtraceId@@@Z 
01:000144F4 ?_formatDescriptorList@exceptionDump@@SAXPAU?$__packedList_struct@Udescriptor@exception@@@@PAPB_W@Z  (Idle)
01:0001452C ?_formatDescriptor@exceptionDump@@SAXPAUdescriptor_struct@exception@@PAPB_W@Z  (Idle)
01:00014564 ?_formatExtraInfo@exceptionDump@@SAXPAU?$__packedList_struct@UnamedValue@@@@PAPB_W@Z  (Idle)
01:0001459C ?_formatLineInfoList@exceptionDump@@SAXPAU?$__packedList_struct@UlineInfo@exception@@@@PAPB_W@Z  (Idle)
01:000145D4 ?_fillUsrMsgTags@exceptionDump@@SAXPB_WPAU?$__packedList_struct@UnamedValue@@@@PAPB_W@Z  (Idle)
01:000146AC ?_substituteTag@exceptionDump@@SAXPB_WPAU?$__packedList_struct@UnamedValue@@@@PAPB_W@Z 
01:000146F8 ?getUserMsgFromNV_dt@exceptionDump@@SAXPAU?$__packedList_struct@UnamedValue@@@@PAPB_W@Z  (Idle)
01:000147B0 ?getUserMsg_dt@exceptionDump@@SAXPAUdescriptor_struct@exception@@PAPB_W@Z  (Idle)
01:000147C8 ?_getUserMsg@exceptionDump@@SAXPAU?$__packedList_struct@Udescriptor@exception@@@@PAPB_W@Z  (Idle)
--- From 'Obj\errorpresentationdialog.0BD1CEB3.obj'
01:00014864 ?_tryGetUserMessage@exceptionDump@@SAXPBUtraceId@exception@@PAPB_W@Z 
--- From 'Obj\exceptiondump.F629D2CA.obj'
01:0001488C ?_tryGetUserMessage_info@exceptionDump@@SAXPAUtraceInfo_struct@exception@@PAPB_W@Z 
01:000148A4 ?_tryGetUserMessageFromDescriptorList@exceptionDump@@SAXPAU?$__packedList_struct@Udescriptor@exception@@@@PAPB_W@Z 
01:000148D0 ?writeTraceInfo@exceptionDump@@SAXQAVoutputStream@@@PAUtraceInfo_struct@exception@@@Z 
01:00014984 ?writeDescriptor_list@exceptionDump@@SAXQAVoutputStream@@@PAU?$__packedList_struct@Udescriptor@@@@@Z 
01:000149C0 ?writeErrorDescriptorInformation@exceptionDump@@SAXQAVoutputStream@@@PAUdescriptor_struct@exception@@@Z 
01:00014D00 ?section@exceptionDump@@SAXQAVoutputStream@@@PB_W@Z  (Idle)
01:00014D48 ?writeOSInformation@exceptionDump@@SAXQAVoutputStream@@@PB_W@Z 
01:00014DBC ?writeLineInfo_list@exceptionDump@@SAXQAVoutputStream@@@PAU?$__packedList_struct@UlineInfo@@@@@Z 
01:00014E3C ?writeLineInfo@exceptionDump@@SAXQAVoutputStream@@@PAUlineInfo_struct@exception@@@Z 
01:00014EDC ?writeException@exceptionDump@@SAXQAVoutputStream@@@PAUexception_struct@core@@@Z 
01:00014F40 ?writeExtraInfo@exceptionDump@@SAXQAVoutputStream@@@PAU?$__packedList_struct@UnamedValue@@@@@Z 
01:00014FC0 ?writePosition@exceptionDump@@SAXQAVoutputStream@@@IPB_W@Z 
01:00015004 ?writeNamedValue@exceptionDump@@SAXQAVoutputStream@@@PAUnamedValue_struct@core@@@Z 
01:000150C0 ?writeValue_or_NULL@exceptionDump@@SAXQAVoutputStream@@@PB_W@Z  (Idle)
01:00015138 ?writeValue@exceptionDump@@SAXQAVoutputStream@@@PAUvalue_struct@core@@@Z 
01:00015474 ?writeValue_or_NULL@exceptionDump@@SAXQAVoutputStream@@@PAD@Z 
01:000154EC ?writeValue_or_NULL@exceptionDump@@SAXQAVoutputStream@@@QAE@Z 
01:00015564 ?writeValue_or_NULL@exceptionDump@@SAXQAVoutputStream@@@PBUbinaryNonAtomic@@@Z 
01:000155DC ?writeValue_or_NULL@exceptionDump@@SAXQAVoutputStream@@@QAVobject@@@@Z 
--- From 'Obj\filesystem.7029601A.obj'
01:00015660 ?create@outputStream_file@@SAXQAV1@@PB_W@Z  (Idle)
01:00015684 ?create@outputStream_file@@SAXQAV1@@PB_WPAUmode_struct@stream@@@Z  (Idle)
01:000156A4 ?create@outputStream_file@@SAXQAV1@@PB_WPAUmode_struct@stream@@PAUaccessPermit_struct@fileSystem_api@@@Z  (Idle)
01:000156B8 ?create@outputStream_file@@SAXQAV1@@PB_WPAUmode_struct@stream@@PAUaccessPermit_struct@fileSystem_api@@PAU?$__packedList_struct@UfileAttributeAtom@@@@@Z 
01:00015700 ?create8@outputStream_file@@SAXQAV1@@PB_W@Z  (Idle)
01:00015714 ?create8@outputStream_file@@SAXQAV1@@PB_WPAUaccessPermit_struct@fileSystem_api@@@Z 
01:00015740 ?createUtf8@outputStream_file@@SAXQAV1@@PB_W@Z  (Idle)
01:00015754 ?createUtf8@outputStream_file@@SAXQAV1@@PB_WPAUaccessPermit_struct@fileSystem_api@@@Z 
01:00015780 ?createUtf8_bom@outputStream_file@@SAXQAV1@@PB_W@Z  (Idle)
01:00015794 ?createUtf8_bom@outputStream_file@@SAXQAV1@@PB_WPAUaccessPermit_struct@fileSystem_api@@@Z 
01:000157E8 ?commonPartOfConstructors@outputStream_file@@SAXQAV1@@PBUfileHandle@@PAUmode_struct@stream@@@Z 
01:00015848 ?handleMode_create@outputStream_file@@SAXQAV1@@PAUmode_struct@stream@@@Z 
01:00015898 ?openFile@outputStream_file@@SAXQAV1@@PB_W@Z  (Idle)
01:000158B8 ?openFile8@outputStream_file@@SAXQAV1@@PB_W@Z  (Idle)
01:000158D8 ?openFileUtf8@outputStream_file@@SAXQAV1@@PB_W@Z  (Idle)
01:000158F8 ?openFile@outputStream_file@@SAXQAV1@@PB_WPAUmode_struct@stream@@@Z  (Idle)
01:0001590C ?openFile@outputStream_file@@SAXQAV1@@PB_WPAUmode_struct@stream@@PAUaccessPermit_struct@fileSystem_api@@@Z 
01:00015964 ?append@outputStream_file@@SAXQAV1@@PB_W@Z  (Idle)
01:00015978 ?append8@outputStream_file@@SAXQAV1@@PB_W@Z  (Idle)
01:0001598C ?appendUtf8@outputStream_file@@SAXQAV1@@PB_W@Z  (Idle)
01:000159A0 ?append@outputStream_file@@SAXQAV1@@PB_WPAUmode_struct@stream@@@Z 
01:00015A08 ?newHandleFile@outputStream_file@@SAXQAV1@@PBUfileHandle@@PAUmode_struct@stream@@@Z  (Idle)
01:00015A48 ?newHandle@outputStream_file@@SAXQAV1@@PBUfileHandle@@PAUmode_struct@stream@@@Z  (Idle)
01:00015A50 ?skipUnicodeSignature@outputStream_file@@SAXQAV1@@PAUmode_struct@stream@@@Z 
01:00015AB4 ?skip@outputStream_file@@SAXQAV1@@HPBUbyteCount@@@Z 
01:00015B28 ?getCRLFconversion@outputStream_file@@SGPAUboolean_struct@_builtIn@@QAVstream@@@@Z 
01:00015B58 ?setCRLFconversion@outputStream_file@@SGXQAVstream@@@PAUboolean_struct@_builtIn@@@Z 
01:00015BBC ?getPosition@outputStream_file@@SGPBUfileSize@fileSystem_api@@QAVstream@@@@Z 
01:00015C84 ?setPosition@outputStream_file@@SGXQAVstream@@@PBUfileSize@fileSystem_api@@@Z 
01:00015D7C ?_checkMovingIsInsideBuffer@outputStream_file@@SAXQAV1@@PAPBUfileSize@fileSystem_api@@1PBUbyteCount@@AAU7@@Z 
01:00015F18 ?setMaxOffsetUsedInCurrentBuffer@outputStream_file@@SAXQAV1@@PBUbyteCount@@@Z 
01:00015F3C ?close@outputStream_file@@SGXQAVstream@@@@Z 
01:00015F70 ?flush@outputStream_file@@SAXQAVoutputStream@@@@Z 
01:00015F94 ?bufferFullCallBack@outputStream_file@@SAXQAV1@@PBUbyteCount@@@Z  (Idle)
01:0001600C ?convertLFtoCRLF_IfNeeded@outputStream_file@@SAXQAV1@@PAXPBUbyteCount@@PAPAXAAU3@@Z 
01:00016068 ?convertToANSI_IfNeeded@outputStream_file@@SAXQAV1@@PAXPBUbyteCount@@PAPAXAAU3@@Z 
01:00016104 ?getBuffer@outputStream_file@@SGXQAVbufferSupport@@@PAPAXAAUbyteCount@@@Z 
01:0001616C ?getBufferLocked@outputStream_file@@SGXQAVbufferSupport@@@PAPAXAAUbyteCount@@@Z 
01:00016188 ?_create@outputStream_file@@SAXPB_WPAPAVoutputStream@@@@Z 
01:000161B0 ?_create@outputStream_file@@SAXPB_WPAUmode_struct@stream@@PAPAVoutputStream@@@@Z  (Idle)
01:000161DC ?_create@outputStream_file@@SAXPB_WPAUmode_struct@stream@@PAUaccessPermit_struct@fileSystem_api@@PAPAVoutputStream@@@@Z  (Idle)
01:0001620C ?_create@outputStream_file@@SAXPB_WPAUmode_struct@stream@@PAUaccessPermit_struct@fileSystem_api@@PAU?$__packedList_struct@UfileAttributeAtom@@@@PAPAVoutputStream@@@@Z  (Idle)
01:00016240 ?_create8@outputStream_file@@SAXPB_WPAPAVoutputStream@@@@Z  (Idle)
01:00016268 ?_create8@outputStream_file@@SAXPB_WPAUaccessPermit_struct@fileSystem_api@@PAPAVoutputStream@@@@Z  (Idle)
01:00016294 ?_createUtf8@outputStream_file@@SAXPB_WPAPAVoutputStream@@@@Z  (Idle)
01:000162BC ?_createUtf8@outputStream_file@@SAXPB_WPAUaccessPermit_struct@fileSystem_api@@PAPAVoutputStream@@@@Z  (Idle)
01:000162E8 ?_createUtf8_bom@outputStream_file@@SAXPB_WPAPAVoutputStream@@@@Z  (Idle)
01:00016310 ?_createUtf8_bom@outputStream_file@@SAXPB_WPAUaccessPermit_struct@fileSystem_api@@PAPAVoutputStream@@@@Z  (Idle)
01:0001633C ?_openFile@outputStream_file@@SAXPB_WPAPAVoutputStream@@@@Z  (Idle)
01:00016364 ?_openFile@outputStream_file@@SAXPB_WPAUmode_struct@stream@@PAPAVoutputStream@@@@Z  (Idle)
01:00016390 ?_openFile@outputStream_file@@SAXPB_WPAUmode_struct@stream@@PAUaccessPermit_struct@fileSystem_api@@PAPAVoutputStream@@@@Z  (Idle)
01:000163C0 ?_openFile8@outputStream_file@@SAXPB_WPAPAVoutputStream@@@@Z  (Idle)
01:000163E8 ?_openFileUtf8@outputStream_file@@SAXPB_WPAPAVoutputStream@@@@Z  (Idle)
--- From 'Obj\errorpresentationdialog.0BD1CEB3.obj'
01:00016410 ?_append@outputStream_file@@SAXPB_WPAPAVoutputStream@@@@Z 
--- From 'Obj\filesystem.7029601A.obj'
01:00016438 ?_append@outputStream_file@@SAXPB_WPAUmode_struct@stream@@PAPAVoutputStream@@@@Z  (Idle)
01:00016464 ?_append8@outputStream_file@@SAXPB_WPAPAVoutputStream@@@@Z  (Idle)
01:0001648C ?_appendUtf8@outputStream_file@@SAXPB_WPAPAVoutputStream@@@@Z  (Idle)
01:000164B4 ?_newHandleFile@outputStream_file@@SAXPBUfileHandle@@PAUmode_struct@stream@@PAPAVoutputStream@@@@Z  (Idle)
01:000164E0 ?_newHandle@outputStream_file@@SAXPBUfileHandle@@PAUmode_struct@stream@@PAPAVoutputStream@@@@Z  (Idle)
01:0001650C ?_object_facts_initializer@outputStream_file@@SGXQAV1@@@Z 
01:0001652C ?append@messageFile@@SAXQAV1@@PB_W@Z  (Idle)
01:00016540 ?append@messageFile@@SAXQAV1@@PB_WPAUmode_struct@stream@@@Z 
01:00016558 ?flush@messageFile@@SAXQAVoutputStream@@@@Z 
01:00016560 ?anonymous$o0$1$write/0ep$messageFile@1@SAXPAUanonymous$o0$1$write/0ep$messageFilec_struct@1@QAVoutputStream@@@@Z 
01:0001658C ?write@messageFile@@SAXQAVoutputStream@@@@Z 
01:0001662C ?anonymous$o0$1$writef/1ep$messageFile@1@SAXPAUanonymous$o0$1$writef/1ep$messageFilec_struct@1@QAVoutputStream@@@@Z 
01:00016664 ?writef@messageFile@@SAXQAVoutputStream@@@PB_W@Z 
01:00016708 ?anonymous$o0$1$writequoted/0ep$messageFile@1@SAXPAUanonymous$o0$1$writequoted/0ep$messageFilec_struct@1@QAVoutputStream@@@@Z 
01:00016734 ?writeQuoted@messageFile@@SAXQAVoutputStream@@@@Z 
01:000167D4 ?anonymous$o0$1$nl/0np$messageFile@1@SAXQAVoutputStream@@@@Z 
01:000167E4 ?nl@messageFile@@SAXQAVoutputStream@@@@Z 
01:00016800 ?anonymous$o0$1$writebytes/2np$messageFile@1@SAXPAUanonymous$o0$1$writebytes/2np$messageFilec_struct@1@QAVoutputStream@@@@Z 
01:00016838 ?writeBytes@messageFile@@SAXQAVoutputStream@@@PAXPBUbyteCount@@@Z 
01:00016874 ?anonymous$o0$1$save/1np$messageFile@1@SAXPAUanonymous$o0$1$save/1np$messageFilec_struct@1@QAVoutputStream@@@@Z 
01:00016898 ?save@messageFile@@SAXQAVoutputStream@@@PBUfactDB@@@Z 
01:000168D0 ?writeOperation@messageFile@@SAXQAV1@@X@Z 
01:0001697C ?setMode@messageFile@@SGXQAVstream@@@PAUmode_struct@2@@Z 
01:00016994 ?getMode@messageFile@@SGPAUmode_struct@stream@@QAV3@@@Z 
01:000169AC ?getCRLFconversion@messageFile@@SGPAUboolean_struct@_builtIn@@QAVstream@@@@Z 
01:000169C4 ?setCRLFconversion@messageFile@@SGXQAVstream@@@PAUboolean_struct@_builtIn@@@Z 
01:000169EC ?close@messageFile@@SGXQAVstream@@@@Z 
01:000169FC ?getPosition@messageFile@@SGPBUfileSize@fileSystem_api@@QAVstream@@@@Z 
01:00016A14 ?setPosition@messageFile@@SGXQAVstream@@@PBUfileSize@fileSystem_api@@@Z 
01:00016A2C ?_append@messageFile@@SAXPB_WPAPAVoutputStream@@@@Z  (Idle)
01:00016A54 ?_append@messageFile@@SAXPB_WPAUmode_struct@stream@@PAPAVoutputStream@@@@Z  (Idle)
01:00016A80 ?_object_facts_initializer@messageFile@@SGXQAV1@@@Z 
01:00016A98 ?allowNullPointers@messageFile@@SGXQAVstream@@@PAUboolean_struct@_builtIn@@@Z 
01:00016AA8 ?allowNullPointers@messageFile@@SGPAUboolean_struct@_builtIn@@QAVstream@@@@Z 
01:00016AB4 ?openFile8@inputStream_file@@SAXQAV1@@PB_W@Z  (Idle)
01:00016AC8 ?openFileUtf8@inputStream_file@@SAXQAV1@@PB_W@Z  (Idle)
01:00016ADC ?openFile@inputStream_file@@SAXQAV1@@PB_W@Z  (Idle)
01:00016AF0 ?openFile@inputStream_file@@SAXQAV1@@PB_WPAUmode_struct@stream@@@Z 
01:00016B04 ?openFile@inputStream_file@@SAXQAV1@@PB_WPAUmode_struct@stream@@PAUaccessPermit_struct@fileSystem_api@@@Z 
01:00016B1C ?openFile@inputStream_file@@SAXQAV1@@PB_WPAUmode_struct@stream@@PAUaccessPermit_struct@fileSystem_api@@PBUbyteCount@@@Z 
01:00016B6C ?newHandle@inputStream_file@@SAXQAV1@@PBUfileHandle@@PAUmode_struct@stream@@@Z  (Idle)
01:00016B80 ?newBlockedPipe@inputStream_file@@SAXQAV1@@PBUfileHandle@@PAUmode_struct@stream@@@Z  (Idle)
01:00016BA4 ?newHandleFile@inputStream_file@@SAXQAV1@@PBUfileHandle@@PAUmode_struct@stream@@@Z  (Idle)
01:00016BD4 ?_halfBufferSize@inputStream_file@@SAXQAV1@@AAUbyteCount@@@Z  (Idle)
01:00016BEC ?commonPartOfConstructors@inputStream_file@@SAXQAV1@@PBUfileHandle@@PAUmode_struct@stream@@PAUboolean_struct@_builtIn@@@Z 
01:00016CB4 ?allocBuffer@inputStream_file@@SAXQAV1@@@Z 
01:00016D0C ?skipUnicodeSignature@inputStream_file@@SAXQAV1@@PAUmode_struct@stream@@@Z 
01:00016D70 ?skip@inputStream_file@@SAXQAV1@@HPBUbyteCount@@@Z 
01:00016DE4 ?handlingMode@inputStream_file@@SAXQAV1@@PAUmode_struct@stream@@@Z 
01:00016EB0 ?checkBufferSize@inputStream_file@@SAXPBUbyteCount@@@Z 
01:00016F04 ?getPosition@inputStream_file@@SGPBUfileSize@fileSystem_api@@QAVstream@@@@Z 
01:00016FD8 ?_handlingFileMode@inputStream_file@@SAXQAV1@@PAUmode_struct@stream@@PBUbyteCount@@2AAU5@@Z 
01:00017078 ?_handleTextMode@inputStream_file@@SAXQAV1@@PAUmode_struct@stream@@PBUbyteCount@@IAAU5@@Z 
01:0001710C ?_getPassedConv@inputStream_file@@SAXPAU?$__packedList_struct@UbyteCount@@@@IIPBU2@PAI@Z 
01:000171AC ?setPosition@inputStream_file@@SGXQAVstream@@@PBUfileSize@fileSystem_api@@@Z 
01:000172F0 ?_checkMovingIsInsideBuffer@inputStream_file@@SAXPAPBUfileSize@fileSystem_api@@0PBUbyteCount@@2AAU6@@Z 
01:0001749C ?close@inputStream_file@@SGXQAVstream@@@@Z 
01:000174C4 ?getCRLFconversion@inputStream_file@@SGPAUboolean_struct@_builtIn@@QAVstream@@@@Z 
01:0001750C ?setCRLFconversion@inputStream_file@@SGXQAVstream@@@PAUboolean_struct@_builtIn@@@Z 
01:000175D4 ?setMode@inputStream_file@@SGXQAVstream@@@PAUmode_struct@2@@Z 
01:00017680 ?_checkModeAndPos@inputStream_file@@SAXQAV1@@PAUmode_struct@stream@@PAPBUfileSize@fileSystem_api@@PAAAU56@@Z 
01:000177B8 ?getBufferLocked@inputStream_file@@SGXQAVbufferSupport@@@PAPAXAAUbyteCount@@@Z 
01:000177E4 ?getBuffer@inputStream_file@@SGXQAVbufferSupport@@@PAPAXAAUbyteCount@@@Z 
01:00017838 ?_fillBuffer@inputStream_file@@SAXQAV1@@PAUmode_struct@stream@@AAUbyteCount@@@Z 
01:00017980 ?_getChar8sToSave@inputStream_file@@SAXPBUcodePage@@PAXPBUbyteCount@@AAU3@@Z 
01:000179EC ?_getChar8sToSave_utf8@inputStream_file@@SAXPAXPBUbyteCount@@AAU2@@Z 
01:00017A70 ?_utf8CharLength@inputStream_file@@SAXPBUunsigned8@@AAUbyteCount@@@Z 
01:00017C4C ?_convertToUnicode@inputStream_file@@SAXQAV1@@PBUbyteCount@@PBUcodePage@@PAXAAUcharCount@@@Z 
01:00017CC4 ?convertCRLFtoLF_ifNeeded@inputStream_file@@SAXQAV1@@PAUmode_struct@stream@@PBUbyteCount@@PAPAXAAU5@@Z 
01:00017D8C ?handlingBufferLastChar@inputStream_file@@SAXQAV1@@PBUbyteCount@@PAPAXAAU3@@Z 
01:00017DD0 ?_readFromFile@inputStream_file@@SAXQAV1@@PAXPBUbyteCount@@AAU3@@Z 
01:00017E18 ?_openFile@inputStream_file@@SAXPB_WPAPAVinputStream@@@@Z  (Idle)
01:00017E40 ?_openFile@inputStream_file@@SAXPB_WPAUmode_struct@stream@@PAPAVinputStream@@@@Z  (Idle)
--- From 'Obj\exe_api.BA152356.obj'
01:00017E6C ?_openFile@inputStream_file@@SAXPB_WPAUmode_struct@stream@@PAUaccessPermit_struct@fileSystem_api@@PAPAVinputStream@@@@Z 
--- From 'Obj\filesystem.7029601A.obj'
01:00017E9C ?_openFile@inputStream_file@@SAXPB_WPAUmode_struct@stream@@PAUaccessPermit_struct@fileSystem_api@@PBUbyteCount@@PAPAVinputStream@@@@Z  (Idle)
01:00017ED0 ?_openFile8@inputStream_file@@SAXPB_WPAPAVinputStream@@@@Z  (Idle)
01:00017EF8 ?_openFileUtf8@inputStream_file@@SAXPB_WPAPAVinputStream@@@@Z  (Idle)
01:00017F20 ?_newHandleFile@inputStream_file@@SAXPBUfileHandle@@PAUmode_struct@stream@@PAPAVinputStream@@@@Z  (Idle)
01:00017F4C ?_newHandle@inputStream_file@@SAXPBUfileHandle@@PAUmode_struct@stream@@PAPAVinputStream@@@@Z  (Idle)
01:00017F78 ?_newBlockedPipe@inputStream_file@@SAXPBUfileHandle@@PAUmode_struct@stream@@PAPAVinputStream@@@@Z  (Idle)
01:00017FA4 ?_object_facts_initializer@inputStream_file@@SGXQAV1@@@Z 
01:00017FCC ?_tryVerQueryValue@fileVersion@@SAXQAEPB_WPAPAX@Z  (Idle)
01:00018018 ?_getFileVersionInformation@fileVersion@@SAXQAEPB_W1PAPB_W@Z  (Idle)
01:000180B8 ?_loadVersionInfo@fileVersion@@SAXPB_WQAPAE@Z  (Idle)
01:000181F0 ?_getLanguageAndCodePageKey@fileVersion@@SAXQAEPAPB_W@Z  (Idle)
01:00018280 ?_getVersionInfo@fileVersion@@SAXPB_WPAPAUversionInformation_struct@1@@Z  (Idle)
01:00018350 ?_getVersionBuildTime@fileVersion@@SAXPB_WPAPB_W@Z  (Idle)
01:000183A8 ?_getProductVersion@fileVersion@@SAXPB_WPAPA_K@Z  (Idle)
01:0001840C ?_getRootKey@fileVersion@@SAXQAEPAPAUvs_fixedfileinfo_struct@1@@Z 
01:00018458 ?_getFileVersionInfo@fileVersion@@SAXPB_WPAPAUfileVersionInformation_struct@1@@Z  (Idle)
01:0001850C ?raise_fileAlreadyExists_explicit@fileSystem_exception@@SAXPAUprogramPoint_struct@core@@PB_W@Z  (Idle)
01:00018580 ?raise_wrongAttribute_explicit@fileSystem_exception@@SAXPAUprogramPoint_struct@core@@I@Z  (Idle)
01:000185F4 ?raise_fileTooBig_explicit@fileSystem_exception@@SAXPAUprogramPoint_struct@core@@PB_W@Z  (Idle)
01:00018668 ?checkFileReadResult_explicit@fileSystem_exception@@SAXPAUprogramPoint_struct@core@@H@Z  (Idle)
01:000186A4 ?_getPath@filename@@SAXPB_WPAPB_W@Z  (Idle)
01:000186C4 ?_getPosLastSlash@filename@@SAXPB_WAAUcharCount@@@Z  (Idle)
01:00018730 ?_getNameWithExtension@filename@@SAXPB_WPAPB_W@Z  (Idle)
01:00018764 ?getPathAndName@filename@@SAXPB_WPAPB_W1@Z 
01:000187AC ?_getName1@filename@@SAXPB_WPAPB_W@Z  (Idle)
01:000187E0 ?_getLastDirectory@filename@@SAXPB_WPAPB_W1@Z  (Idle)
01:00018838 ?_removeLastSlash@filename@@SAXPB_WPAPB_W@Z 
01:000188B8 ?_getName@filename@@SAXPB_WPAPB_W@Z  (Idle)
01:000188E0 ?_charGet@filename@@SAXPB_WPBUcharCountOptional@@AAU2@@Z  (Idle)
--- From 'Obj\gdiplus.A4A4230C.obj'
01:0001895C ?_getExtension@filename@@SAXPB_WPAPB_W@Z 
--- From 'Obj\filesystem.7029601A.obj'
01:000189B4 ?_getExtension@filename@@SAXPB_WPAPB_W1@Z  (Idle)
01:00018A2C ?_setPath@filename@@SAXPB_W0PAPB_W@Z  (Idle)
01:00018A58 ?_setName@filename@@SAXPB_W0PAPB_W@Z  (Idle)
01:00018AB4 ?_setExtension@filename@@SAXPB_W0PAPB_W@Z  (Idle)
01:00018BBC ?_reduce@filename@@SAXPB_W0PAPB_W@Z  (Idle)
01:00018CD0 ?_reduceToShort@filename@@SAXPB_W0PAPB_W@Z  (Idle)
01:00018D1C ?getFirstDirectory@filename@@SAXPB_WPAPB_W1@Z 
01:00018E04 ?getNetName@filename@@SAXPB_W0PAPB_W2@Z 
01:00018E5C ?_setTrailSlash@filename@@SAXPB_WPAPB_W@Z 
01:00018EAC ?_getSlashList@filename@@SAXPB_W_WPBUcharCount@@PAPAU?$__packedList_struct@U2@@@@Z  (Idle)
01:00018F3C ?_tail@filename@@SAXPB_WPBUcharCount@@PAPB_W@Z 
01:00018F5C ?_getOrderedList@filename@@SAXPAU?$__packedList_struct@UcharCount@@@@0PAPAU?$__packedList_struct@U2@@@@Z  (Idle)
01:00019014 ?splitPathString@filename@@SAXPB_WPAU?$__packedList_struct@UcharCount@@@@PBU2@PAPAU?$__packedList_struct@Ustring@@@@AAU2@@Z  (Idle)
01:000190A4 ?splitOntoPathAndName@filename@@SAXPB_WPAPAU?$__packedList_struct@Ustring@@@@PAPB_W@Z 
01:0001914C ?_splitFileExt@filename@@SAXPB_WPAPB_W@Z 
01:0001918C ?_splitFileName@filename@@SAXPB_WPAPB_W@Z 
01:000191D8 ?_directoryCompare@filename@@SAXPAU?$__packedList_struct@Ustring@@@@0PAPB_W@Z 
01:0001925C ?_glueRest@filename@@SAXPAU?$__packedList_struct@Ustring@@@@0PAPB_W@Z 
01:000192AC ?splitPath@filename@@SAXPB_WPAPAU?$__packedList_struct@Ustring@@@@AAUcharCount@@@Z 
01:0001931C ?_nameConcat@filename@@SAXPB_W00PAPB_W@Z 
01:000193B0 ?_createPath@filename@@SAXPB_W0PAPB_W@Z  (Idle)
01:00019420 ?_reducePath@filename@@SAXPB_WPAPB_W@Z  (Idle)
01:000194A0 ?_createPath@filename@@SAX_WPB_W11PAPB_W@Z 
01:00019560 ?_concatWithSlash@filename@@SAXPB_W0PAPB_W@Z 
01:000195F8 ?_getTypeOfSlash@filename@@SAXPB_W0PAPB_W@Z 
01:000196A4 ?isSlash@filename@@SAX_W@Z 
01:000196C4 ?_checkSecondCharAfterSlash@filename@@SAXPB_W00PAPB_W@Z 
01:00019790 ?_checkThirdCharAfterColon@filename@@SAXPB_W_W00PAPB_W@Z 
01:00019864 ?_reducePath@filename@@SAX_WPB_WPAPB_W@Z 
01:00019894 ?_applyFileName@filename@@SAXPB_WPAU?$__packedList_struct@Ustring@@@@PAPAU?$__packedList_struct@U2@@@@Z 
01:000199A4 ?stay_dir@filename@@SAXPB_W@Z  (Idle)
01:000199E4 ?up_dir@filename@@SAXPB_W@Z 
01:00019A2C ?_reducePath_reversed@filename@@SAXPAU?$__packedList_struct@Ustring@@@@PAPAU?$__packedList_struct@U2@@@@Z 
01:00019B0C ?_upOneDir_reversed@filename@@SAXPAU?$__packedList_struct@Ustring@@@@PAPAU?$__packedList_struct@U2@@@@Z 
01:00019C2C ?notDriveOrNetworkVolume@filename@@SAXPB_W@Z 
01:00019CE4 ?front_wc@filename@@SAXPB_WPBUcharCount@@PAPB_W2@Z 
01:00019D18 ?_normalize@filename@@SAXPB_WPAPB_W@Z  (Idle)
01:00019DF4 ?_normalizeSl@filename@@SAXPB_WPAPB_W@Z 
01:00019E44 ?isAbsolutePath@filename@@SAXPB_W@Z  (Idle)
01:00019EE4 ?up_dir@filename@@SAXPAPB_W@Z 
01:00019EF8 ?copy@file@@SAXPB_W0@Z  (Idle)
01:00019F0C ?copy@file@@SAXPB_W0PAUoverwrite_struct@1@@Z 
01:00019F78 ?move@file@@SAXPB_W0@Z  (Idle)
01:00019F8C ?move@file@@SAXPB_W0PAUoverwrite_struct@1@@Z 
01:0001A010 ?delete@file@@SAXPB_W@Z  (Idle)
01:0001A0A4 ?existExactFile@file@@SAXPB_W@Z  (Idle)
01:0001A0D8 ?existFile@file@@SAXPB_W@Z  (Idle)
01:0001A210 ?tryGetFile@file@@SAXPBUsearchHandle@@PAUwin32_find_data_struct@fileSystem_native@@@Z 
01:0001A2B4 ?_createUniqueName@file@@SAXPB_W0PAPB_W@Z 
01:0001A3BC ?_getPhysicalName@file@@SAXPB_WPAPB_W@Z  (Idle)
01:0001A5C4 ?setAttributes@file@@SAXPB_WPAU?$__packedList_struct@UfileAttributeAtom@@@@PAUboolean_struct@_builtIn@@@Z  (Idle)
01:0001A80C ?getFileProperties@file@@SAXPB_WPAPAU?$__packedList_struct@UfileAttributeAtom@@@@PAAAUfileSize@fileSystem_api@@PAAAUgmtTimeValue@@33@Z  (Idle)
01:0001A8D0 ?_tryGetLastChange@file@@SAXPB_WPAAAUgmtTimeValue@@@Z  (Idle)
01:0001A934 ?setFileTime@file@@SAXPB_WPAPBUgmtTimeValue@@11@Z  (Idle)
01:0001AB70 ?moveToRecycleBin@file@@SAXPB_W@Z  (Idle)
--- From 'Obj\imagelist.03D8657B.obj'
01:0001ACAC ?_readBinary@file@@SAXPB_WQAPAE@Z 
--- From 'Obj\filesystem.7029601A.obj'
01:0001AD70 ?_readFile@file@@SAXPBUfileHandle@@PAXPBUbyteCount@@AAU3@@Z 
01:0001AD78 ?_readBinary@file@@SAXPB_WPAPBUfileSize@fileSystem_api@@PBUbyteCount@@QAPAE@Z  (Idle)
01:0001AEC4 ?_readString@file@@SAXPB_WPAPB_W@Z  (Idle)
01:0001AEE4 ?_readString@file@@SAXPB_WPAPAUboolean_struct@_builtIn@@PAPB_W@Z 
01:0001AF78 ?_readStringFromHandle@file@@SAXPBUfileHandle@@PAPAUboolean_struct@_builtIn@@PAPB_W@Z 
01:0001B068 ?isUnicode@file@@SAXPB_W@Z  (Idle)
01:0001B184 ?tryBOM@file@@SAXPAXPBUbyteCount@@PB_W1@Z  (Idle)
01:0001B1BC ?checkUnicode@file@@SAXPAXPBUbyteCount@@PAPAUmode_struct@stream@@AAU2@@Z 
01:0001B27C ?_getString@file@@SAXPBUbyteCount@@PAXPAUmode_struct@stream@@0PAPB_W@Z 
01:0001B2D8 ?_getString2@file@@SAXPBUbyteCount@@PAXPAUmode_struct@stream@@PAXPAPB_W@Z 
01:0001B398 ?_getFileSize@file@@SAXPBUfileHandle@@PB_WAAUbyteCount@@@Z 
--- From 'Obj\imagelist.03D8657B.obj'
01:0001B46C ?writeBinary@file@@SAXPB_WQAE@Z 
--- From 'Obj\filesystem.7029601A.obj'
01:0001B518 ?writeFile@file@@SAXPBUfileHandle@@PAXPBUbyteCount@@@Z 
01:0001B53C ?writeBinary@file@@SAXPB_WPAPBUfileSize@fileSystem_api@@QAE@Z  (Idle)
01:0001B600 ?appendString@file@@SAXPB_W0PAUboolean_struct@_builtIn@@@Z  (Idle)
01:0001B650 ?writeString@file@@SAXPB_W0@Z  (Idle)
01:0001B67C ?writeString@file@@SAXPB_W0PAUboolean_struct@_builtIn@@@Z  (Idle)
01:0001B69C ?writeStringUtf8@file@@SAXPB_W0@Z  (Idle)
01:0001B6C4 ?writeStringUtf8_bom@file@@SAXPB_W0@Z  (Idle)
01:0001B6EC ?writeString_codePage@file@@SAXPB_W0PBU2@@Z 
01:0001B72C ?writeStringAndClose@file@@SAXQAVoutputStream@@@PB_W@Z 
01:0001B7B8 ?checkResult@file@@SAXPBUhResult@@PB_W11PAUoverwrite_struct@1@@Z 
01:0001BB08 ?fileExists_errorCode@file@@SAXPBUhResult@@@Z 
01:0001BB28 ?hideUnicodeSignature@file@@SAXQAEPBUbyteCount@@PAPAXAAU2@@Z 
01:0001BBAC ?_setDestination@file@@SAXPB_W0PAPB_W@Z 
01:0001BC04 ?_toApiAttributes@file@@SAXPAU?$__packedList_struct@UfileAttributeAtom@@@@PAI@Z 
01:0001BC2C ?checkOnLegal@file@@SAXI@Z 
01:0001BC60 ?_mixAttributes@file@@SAXPAUboolean_struct@_builtIn@@IIPAI@Z 
01:0001BCAC ?checkFileHandle@file@@SAXPBUfileHandle@@PB_W@Z 
01:0001BCDC ?_getStreamCheckUnicode@file@@SAXPB_WPAUboolean_struct@_builtIn@@PAPAVoutputStream@@@@Z  (Idle)
01:0001BD04 ?save@file@@SAXPB_WPBUfactDB@@@Z  (Idle)
01:0001BD18 ?save@file@@SAXPB_WPBUfactDB@@PAUboolean_struct@_builtIn@@@Z 
01:0001BDA0 ?saveUtf8@file@@SAXPB_WPBUfactDB@@@Z  (Idle)
01:0001BE28 ?_checkSignature@file@@SAXQAVinputStream@@@PAPAUboolean_struct@_builtIn@@@Z  (Idle)
01:0001BF8C ?consult@file@@SAXPB_WPBUfactDB@@@Z  (Idle)
01:0001BFAC ?consult@file@@SAXPB_WPBUfactDB@@PAPAUboolean_struct@_builtIn@@@Z 
01:0001C048 ?reconsult@file@@SAXPB_WPBUfactDB@@@Z  (Idle)
01:0001C068 ?reconsult@file@@SAXPB_WPBUfactDB@@PAPAUboolean_struct@_builtIn@@@Z 
01:0001C07C ?_trySearchFileInPath@file@@SAXPB_WPAPB_W@Z  (Idle)
01:0001C0C0 ?writeCodedString@file@@SAXPB_W0PBUcodePage@@@Z  (Idle)
01:0001C0C8 ?deleteDirectory@directory@@SAXPB_W@Z  (Idle)
01:0001C0D0 ?makeDirectory@directory@@SAXPB_W@Z  (Idle)
01:0001C0E4 ?makeDirectoryPath@directory@@SAXPB_W@Z  (Idle)
01:0001C15C ?setCurrentDirectory@directory@@SAXPB_W@Z  (Idle)
--- From 'Obj\filesystem_api.8DE14D9B.obj'
01:0001C164 ?_getCurrentDirectory@directory@@SAXPAPB_W@Z 
--- From 'Obj\filesystem.7029601A.obj'
01:0001C16C ?moveDirectory@directory@@SAXPB_W0@Z  (Idle)
01:0001C174 ?setVolumeLabel@directory@@SAXPB_W0@Z  (Idle)
01:0001C17C ?existDirectory@directory@@SAXPB_W@Z 
01:0001C2CC ?existExactDirectory@directory@@SAXPB_W@Z 
01:0001C2FC ?isFirst@directory@@SAXPBUsearchHandle@fileSystem_native@@PAUwin32_find_data_struct@3@@Z  (Idle)
01:0001C3A0 ?isEmpty@directory@@SAXPB_W@Z  (Idle)
01:0001C5B8 ?_dirWithoutBackslash@directory@@SAXPB_WPAPB_W@Z 
01:0001C604 ?getDirectoryProperties@directory@@SAXPB_WPAPAU?$__packedList_struct@UfileAttributeAtom@@@@PAAAUgmtTimeValue@@22@Z  (Idle)
01:0001C62C ?getVolumeProperties@directory@@SAXPB_WPAPAUvolumeType_struct@1@PAAAUfileSize@fileSystem_api@@2PAPB_WPAI@Z  (Idle)
01:0001C684 ?_tryGetLogicalDirectory@directory@@SAXPBUdirectoryID@@PAPB_W@Z  (Idle)
01:0001C6A0 ?_getLogicalDirectory@directory@@SAXPBUdirectoryID@@PAPB_W@Z  (Idle)
01:0001C6BC ?_getTemporaryDirectory@directory@@SAXPAPB_W@Z  (Idle)
01:0001C6C4 ?_tryCreateLogicalDirectory@directory@@SAXPBUdirectoryID@@PAPB_W@Z  (Idle)
01:0001C6E0 ?_getFilesInDirectory_nd@directory@@SAXPB_WPAPB_W@Z  (Idle)
01:0001C700 ?_getFilesInDirectory_nd@directory@@SAXPB_W0PAPB_W@Z 
01:0001C71C ?_getFilesInDirectory_nd@directory@@SAXPB_W0PAUboolean_struct@_builtIn@@PAPB_W@Z 
01:0001C744 ?_getSubDirectories_nd@directory@@SAXPB_WPAPB_W@Z  (Idle)
01:0001C764 ?_getSubDirectories_nd@directory@@SAXPB_W0PAPB_W@Z 
01:0001C788 ?_getAllSubDirectories_nd@directory@@SAXPB_WPAPB_W@Z  (Idle)
01:0001C7F0 ?_getFilesInDirectoryAndSub_nd@directory@@SAXPB_WPAPB_W@Z  (Idle)
01:0001C810 ?_getFilesInDirectoryAndSub_nd@directory@@SAXPB_W0PAPB_W@Z 
01:0001C89C ?_find@directory@@SAXPB_W0IPAUboolean_struct@_builtIn@@PAPB_W@Z 
01:0001CA04 ?_dirWithBackslash@directory@@SAXPB_WPAPB_W@Z 
01:0001CA80 ?checkHiddenOrSystem@directory@@SAXPB_WPAUboolean_struct@_builtIn@@@Z 
01:0001CA98 ?isNotHiddenOrSystem@directory@@SAXPB_W@Z 
01:0001CAC0 ?isSlash@directory@@SAX_W@Z 
01:0001CAE0 ?findNext@directory@@SAXPBUsearchHandle@fileSystem_native@@PAUwin32_find_data_struct@3@I@Z 
01:0001CB68 ?_findNext_nd@directory@@SAXPBUsearchHandle@fileSystem_native@@PAUwin32_find_data_struct@3@IPAPB_W@Z 
01:0001CC70 ?_createFullName@directory@@SAXPB_W0PAPB_W@Z 
01:0001CD1C ?_tryLogicalDirectoryBuff@directory@@SAXPBUdirectoryId@1@PAUboolean_struct@_builtIn@@PB_WPAPB_W@Z  (Idle)
01:0001CE74 ?_logicalDirectoryBuff@directory@@SAXPBUdirectoryId@1@PAUboolean_struct@_builtIn@@PB_WPAPB_W@Z  (Idle)
01:0001D088 ?_tryLogicalDirectory@directory@@SAXPBUdirectoryId@1@PAUboolean_struct@_builtIn@@PAPB_W@Z 
01:0001D0C0 ?_logicalDirectory@directory@@SAXPBUdirectoryId@1@PAUboolean_struct@_builtIn@@PAPB_W@Z 
01:0001D0F8 ?_addNeedCreateIfNecessary@directory@@SAXPBUdirectoryId@1@PAUboolean_struct@_builtIn@@AAU21@@Z 
01:0001D128 ?_convertToVolumeType@directory@@SAXHPAPAUvolumeType_struct@1@@Z 
01:0001D1A8 ?_browseForFolder@directory@@SAXPBUhwnd@@PB_W1PAUboolean_struct@_builtIn@@PAPB_W@Z  (Idle)
01:0001D24C ?_getBrowseForFolderFlags@directory@@SAXPAUboolean_struct@_builtIn@@PAI@Z 
01:0001D270 ?browseForFolderCallback@directory@@SGHPBUhwnd@@IPBUlParam@@2@Z 
01:0001D2A8 ?copyDirectory@directory@@SAXPB_W0PAUboolean_struct@_builtIn@@@Z  (Idle)
01:0001D2FC ?copyDir@directory@@SAXPB_W0PAUboolean_struct@_builtIn@@@Z 
01:0001D420 ?forAllFiles@directory@@SAXPB_WX@Z  (Idle)
01:0001D440 ?forAllFiles@directory@@SAXPB_WX0PAUboolean_struct@_builtIn@@@Z 
01:0001D6E4 outputStream_file?_initObject@@@QAGXQAV1@H@Z 
01:0001D718 ?@create_object@outputStream_file@@SGQAV1@@XZ 
01:0001D734 outputStream_file?_InternalFinalizer@@@QAGXQAV1@@Z 
01:0001D74C messageFile?_initObject@@@QAGXQAV1@H@Z 
01:0001D76C ?@create_object@messageFile@@SGQAV1@@XZ 
01:0001D788 messageFile?_InternalFinalizer@@@QAGXQAV1@@Z 
01:0001DA20 inputStream_file?_initObject@@@QAGXQAV1@H@Z 
01:0001DA54 ?@create_object@inputStream_file@@SGQAV1@@XZ 
01:0001DA70 inputStream_file?_InternalFinalizer@@@QAGXQAV1@@Z 
--- From 'Obj\clipboard.A25DD7BF.obj'
01:0001DA80 ?putString@clipboard@@SAXPB_W@Z  (Idle)
--- From 'Obj\errorpresentationdialog.0BD1CEB3.obj'
01:0001DA9C ?putString@clipboard@@SAXQAVwindow@@@PB_W@Z 
--- From 'Obj\clipboard.A25DD7BF.obj'
01:0001DAEC ?putUserDefined@clipboard@@SAXQAVwindow@@@PB_WQAE@Z  (Idle)
01:0001DB4C ?openClipboardInner@clipboard@@SAXQAVwindow@@@@Z  (Idle)
01:0001DBAC ?put@clipboard@@SAXQAVwindow@@@IPBUhGlobal@windowsAPI@@@Z 
01:0001DC34 ?putHtml@clipboard@@SAXPB_W0@Z  (Idle)
01:0001DC6C ?putHtml@clipboard@@SAXPB_W000@Z  (Idle)
--- From 'Obj\scilexer.3C7EBDAC.obj'
01:0001DCA4 ?putHtml@clipboard@@SAXQAVwindow@@@PB_W1@Z 
--- From 'Obj\clipboard.A25DD7BF.obj'
01:0001DCC4 ?putHtml@clipboard@@SAXQAVwindow@@@PB_W111@Z 
01:0001DE88 ?_tryGetString@clipboard@@SAXPAPB_W@Z  (Idle)
01:0001DEBC ?_tryGetHTML@clipboard@@SAXPAPB_W@Z  (Idle)
01:0001DF10 ?_tryGetUserDefined@clipboard@@SAXPB_WQAPAE@Z  (Idle)
01:0001DF58 ?_tryGetFormatData@clipboard@@SAXQAVrTypeLibrary@TypeLibraries@RunTime@VIP@@IXPAPAX@Z 
01:0001E004 ?_lf_crlf@clipboard@@SAXPB_WPAPB_W@Z 
01:0001E078 ?_onNative@clipboard@@SAXQAVwindow@@@IPBUwParam@@PBUlParam@@PAPAUnativeResponse_struct@2@@Z 
01:0001E0CC ?updateClipboardEvent@clipboard@@SGQAVevent0@@@QAVwindow@@@XZ  (Idle)
--- From 'Obj\checkcommand.BB3E3892.obj'
01:0001E180 ?checked@checkCommand@@SGPAUboolean_struct@_builtIn@@QAV1@@@Z 
01:0001E198 ?checked@checkCommand@@SGXQAV1@@PAUboolean_struct@_builtIn@@@Z 
01:0001E1E8 ?new@checkCommand@@SAXQAV1@@QAVwindow@@@PB_W@Z  (Idle)
01:0001E238 ?defaultRun@checkCommand@@SAXQAV1@@QAVcommand@@@@Z 
--- From 'Obj\ribbondesignerdlg.56B6615E.obj'
01:0001E26C ?_new@checkCommand@@SAXQAVwindow@@@PB_WPAPAV1@@@Z 
--- From 'Obj\checkcommand.BB3E3892.obj'
01:0001E298 ?_object_facts_initializer@checkCommand@@SGXQAV1@@@Z 
01:0001E2DC ?checkChangeEvent@checkCommand@@SGXQAV1@@QAVevent0@@@QAV1@@@Z 
01:0001E2EC ?checkChangeEvent@checkCommand@@SGQAVevent0@@@QAV1@@QAV1@@@Z 
01:0001E520 checkCommand?_initObject@@@QAGXQAV1@H@Z 
01:0001E560 ?@create_object@checkCommand@@SGQAV1@@XZ 
01:0001E57C checkCommand?_InternalFinalizer@@@QAGXQAV1@@Z 
--- From 'Obj\command.CA3EB146.obj'
01:0001E590 ?menuLabel@command@@SGPB_WQAV1@@@Z 
01:0001E5A8 ?menuLabel@command@@SGXQAV1@@PB_W@Z 
01:0001E5F0 ?ribbonLabel@command@@SGPB_WQAV1@@@Z 
01:0001E608 ?ribbonLabel@command@@SGXQAV1@@PB_W@Z 
01:0001E650 ?icon@command@@SGPAUoptional_struct@core@@QAV0@@QAV1@@@Z 
01:0001E668 ?icon@command@@SGXQAV1@@PAUoptional_struct@core@@QAV0@@@Z 
01:0001E6E0 ?badge@command@@SGPBUpositive@@QAV1@@@Z 
01:0001E6F8 ?badge@command@@SGXQAV1@@PBUpositive@@@Z 
01:0001E730 ?enabled@command@@SGPAUboolean_struct@_builtIn@@QAV1@@@Z 
01:0001E748 ?enabled@command@@SGXQAV1@@PAUboolean_struct@_builtIn@@@Z 
01:0001E780 ?visible@command@@SGPAUboolean_struct@_builtIn@@QAV1@@@Z 
01:0001E798 ?visible@command@@SGXQAV1@@PAUboolean_struct@_builtIn@@@Z 
--- From 'Obj\menucommand.74DA7E1F.obj'
01:0001E7D0 ?new@command@@SAXQAV1@@QAVwindow@@@PB_W@Z 
--- From 'Obj\ribboncontrol.D20F9C1C.obj'
01:0001E834 ?_formatAcceleratorKey@command@@SAXPAUacceleratorKey_struct@vpiDomains@@PAPB_W@Z 
--- From 'Obj\command.CA3EB146.obj'
01:0001E8D8 ?_formatKeyModifier@command@@SAXPBUkeyModifier@vpiDomains@@PAPB_W@Z 
01:0001E970 ?_tryFormatKeyModifier@command@@SAXPBUkeyModifier@vpiDomains@@PAPB_W@Z 
01:0001E9B4 ?_formatKeyCode@command@@SAXPBUkeyCode@vpiDomains@@PAPB_W@Z 
--- From 'Obj\ribbondesignerdlg.56B6615E.obj'
01:0001ECD0 ?_new@command@@SAXQAVwindow@@@PB_WPAPAV1@@@Z 
--- From 'Obj\command.CA3EB146.obj'
01:0001ECFC ?anonymous$o0$1$$command@1@SAXQAV1@@@Z 
01:0001ED10 ?anonymous$o0$2$$command@1@SAXQAV1@@@Z 
01:0001ED24 ?_object_facts_initializer@command@@SGXQAV1@@@Z 
01:0001EDAC ?id@command@@SGPB_WQAV1@@@Z 
01:0001EDB8 ?menuTag@command@@SGPBU0@QAV1@@@Z 
01:0001EDC4 ?window@command@@SGQAV0@@QAV1@@@Z 
01:0001EDD0 ?mnemonics@command@@SGXQAV1@@PAU?$__packedList_struct@PAUtuple_struct@core@@PBUpositive@@PB_W@@@Z 
01:0001EDE0 ?mnemonics@command@@SGPAU?$__packedList_struct@PAUtuple_struct@core@@PBUpositive@@PB_W@@QAV1@@@Z 
01:0001EDEC ?tipTitle@command@@SGXQAV1@@PAUtipText_struct@toolTip@@@Z 
01:0001EDFC ?tipTitle@command@@SGPAUtipText_struct@toolTip@@QAV1@@@Z 
01:0001EE08 ?tipBody@command@@SGXQAV1@@PAUtipText_struct@tooltip@@@Z 
01:0001EE18 ?tipBody@command@@SGPAUtipText_struct@tooltip@@QAV1@@@Z 
01:0001EE24 ?acceleratorKey@command@@SGXQAV1@@PAUacceleratorKey_struct@vpiDomains@@@Z 
01:0001EE34 ?acceleratorKey@command@@SGPAUacceleratorKey_struct@vpiDomains@@QAV1@@@Z 
01:0001EE40 ?category@command@@SGXQAV1@@PAU?$__packedList_struct@Ustring@@@@@Z 
01:0001EE50 ?category@command@@SGPAU?$__packedList_struct@Ustring@@@@QAV1@@@Z 
01:0001EE5C ?run@command@@SGXQAV1@@X@Z 
01:0001EE6C ?run@command@@SGXQAV1@@@Z 
01:0001EE78 ?queryState@command@@SGXQAV1@@X@Z 
01:0001EE88 ?queryState@command@@SGXQAV1@@@Z 
01:0001EE94 ?stateChangeEvent@command@@SGXQAV1@@QAVevent0@@@QAV1@@@Z 
01:0001EEA4 ?stateChangeEvent@command@@SGQAVevent0@@@QAV1@@QAV1@@@Z 
--- From 'Obj\menucommand.74DA7E1F.obj'
01:0001EEB8 command?_initObject@@@QAGXQAV1@H@Z 
--- From 'Obj\command.CA3EB146.obj'
01:0001EEDC ?@create_object@command@@SGQAV1@@XZ 
--- From 'Obj\menucommand.74DA7E1F.obj'
01:0001EEF8 command?_InternalFinalizer@@@QAGXQAV1@@Z 
--- From 'Obj\customcommand.AE11A505.obj'
01:0001EF10 ?new@customCommand@@SAXQAV1@@QAVwindow@@@PB_W@Z  (Idle)
01:0001EF18 ?_new@customCommand@@SAXQAVwindow@@@PB_WPAPAV1@@@Z  (Idle)
01:0001EF40 ?_object_facts_initializer@customCommand@@SGXQAV1@@@Z 
01:0001EF60 ?width@customCommand@@SGXQAV1@@H@Z 
01:0001EF70 ?width@customCommand@@SGHQAV1@@@Z 
01:0001EF7C ?height@customCommand@@SGXQAV1@@H@Z 
01:0001EF8C ?height@customCommand@@SGHQAV1@@@Z 
01:0001EF98 ?factory@customCommand@@SGXQAV1@@X@Z 
01:0001EFA8 ?factory@customCommand@@SGXQAV1@@@Z 
01:0001F1D0 customCommand?_initObject@@@QAGXQAV1@H@Z 
01:0001F208 ?@create_object@customCommand@@SGQAV1@@XZ 
01:0001F224 customCommand?_InternalFinalizer@@@QAGXQAV1@@Z 
--- From 'Obj\menucommand.74DA7E1F.obj'
01:0001F240 ?new@menuCommand@@SAXQAV1@@QAVwindow@@@PB_W@Z  (Idle)
01:0001F2C0 ?hasRun@menuCommand@@SGPAUboolean_struct@_builtIn@@QAV1@@@Z 
01:0001F2D8 ?hasRun@menuCommand@@SGXQAV1@@PAUboolean_struct@_builtIn@@@Z 
01:0001F314 ?hasItems@menuCommand@@SGPAUboolean_struct@_builtIn@@QAV1@@@Z 
01:0001F32C ?hasItems@menuCommand@@SGXQAV1@@PAUboolean_struct@_builtIn@@@Z 
01:0001F368 ?activeTool@menuCommand@@SGPAUoptional_struct@core@@QAVcommand@@@QAV1@@@Z 
01:0001F380 ?activeTool@menuCommand@@SGXQAV1@@PAUoptional_struct@core@@QAVcommand@@@@Z 
01:0001F3FC ?_tryGetDelegateCmd@menuCommand@@SAXQAV1@@PAPAVcommand@@@@Z  (Idle)
01:0001F4F4 ?menuLabel@menuCommand@@SGPB_WQAVcommand@@@@Z 
01:0001F540 ?ribbonLabel@menuCommand@@SGPB_WQAVcommand@@@@Z 
01:0001F58C ?icon@menuCommand@@SGPAUoptional_struct@core@@QAV0@@QAVcommand@@@@Z 
01:0001F5D8 ?tipTitle@menuCommand@@SGPAUtipText_struct@toolTip@@QAVcommand@@@@Z 
01:0001F624 ?tipBody@menuCommand@@SGPAUtipText_struct@tooltip@@QAVcommand@@@@Z 
01:0001F670 ?baseMenuLabel@menuCommand@@SGPB_WQAV1@@@Z 
01:0001F68C ?baseRibbonLabel@menuCommand@@SGPB_WQAV1@@@Z 
01:0001F6A8 ?baseIcon@menuCommand@@SGPAUoptional_struct@core@@QAVicon@@@QAV1@@@Z 
01:0001F6C4 ?baseTipTitle@menuCommand@@SGPAUtipText_struct@toolTip@@QAV1@@@Z 
01:0001F6E0 ?baseTipBody@menuCommand@@SGPAUtipText_struct@tooltip@@QAV1@@@Z 
01:0001F6FC $getCmdList$menuCommand_implement$predicate$(i,i,o)$c$_m10 
01:0001F794 ?_getItemList@menuCommand@@SAXQAV1@@PAUmenuLayout_struct@1@PAPAU?$__packedList_struct@UmenuItem@@@@@Z 
01:0001F878 ?filterItem@menuCommand@@SAXQAV1@@PAUmenuItem_struct@1@@Z 
01:0001F8D4 ?_popup@menuCommand@@SAXQAV1@@QAVwindow@@@PAUpnt_struct@vpiDomains@@PAPAUoptional_struct@core@@PAPAVcommand@@@@Z 
01:0001FB54 ?_createMenu@menuCommand@@SAXQAV1@@AAUhMenu@gui_native@@@Z 
--- From 'Obj\ribboncontrol.D20F9C1C.obj'
01:0001FBE4 ?_convertToMenuCmd@menuCommand@@SAXPBUhMenu@gui_native@@PAPAV1@@@Z 
--- From 'Obj\menucommand.74DA7E1F.obj'
01:0001FC14 ?_tryLookupMenuItem@menuCommand@@SAXQAV1@@PBUhMenu@gui_native@@PBUmenuTag@vpiDomains@@PAPAVcommand@@@@Z 
01:0001FD08 ?_lookupMenuItem@menuCommand@@SAXQAV1@@PBUhMenu@gui_native@@PBUmenuTag@vpiDomains@@PAPAVcommand@@@@Z 
01:0001FD84 ?addItem@menuCommand@@SAXQAV1@@PBUhMenu@gui_native@@PAUmenuItem_struct@1@@Z 
01:0001FE0C ?addCmdItem@menuCommand@@SAXQAV1@@PBUhMenu@gui_native@@QAVcommand@@@@Z 
01:000200CC ?_formatMenuLabel@menuCommand@@SAXQAVcommand@@@PAPB_W@Z 
01:00020144 ?addCmdIcon@menuCommand@@SAXPBUhMenu@gui_native@@QAVcommand@@@I@Z 
01:000201F8 ?_getMenuEnableFlag@menuCommand@@SAXQAVcommand@@@PAI@Z 
01:00020224 ?_getMenuCheckFlag@menuCommand@@SAXQAVcheckCommand@@@PAI@Z 
01:00020254 ?insertMenu@menuCommand@@SAXPBUhMenu@gui_native@@IPAU?$__packedList_struct@Uunsigned@@@@IPB_W@Z 
01:000202C4 ?setMenuItemBitmaps@menuCommand@@SAXPBUhMenu@gui_native@@IPAU?$__packedList_struct@Uunsigned@@@@PBUhBitmap@3@3@Z 
01:00020334 ?disposeMenu@menuCommand@@SAXQAV1@@PBUhMenu@gui_native@@@Z 
01:000204EC ?defaultRun@menuCommand@@SAXQAV1@@QAVcommand@@@@Z 
01:00020540 ?defaultQueryState@menuCommand@@SAXQAV1@@QAVcommand@@@@Z 
01:000206C8 ?_new@menuCommand@@SAXQAVwindow@@@PB_WPAPAV1@@@Z  (Idle)
01:000206F4 ?_class_facts_initializer@menuCommand@@SGXXZ 
01:00020728 ?_object_facts_initializer@menuCommand@@SGXQAV1@@@Z 
01:0002075C ?layout@menuCommand@@SGXQAV1@@PAUmenuLayout_struct@1@@Z 
01:0002076C ?layout@menuCommand@@SGPAUmenuLayout_struct@1@QAV1@@@Z 
01:00020778 ?style@menuCommand@@SGXQAV1@@PAUmenuStyle_struct@1@@Z 
01:00020788 ?style@menuCommand@@SGPAUmenuStyle_struct@1@QAV1@@@Z 
01:00020794 ?adjustSizeByItems@menuCommand@@SGXQAV1@@PAUboolean_struct@_builtIn@@@Z 
01:000207A4 ?adjustSizeByItems@menuCommand@@SGPAUboolean_struct@_builtIn@@QAV1@@@Z 
01:000209E8 menuCommand?_initObject@@@QAGXQAV1@H@Z 
01:00020A28 ?@create_object@menuCommand@@SGQAV1@@XZ 
01:00020A44 menuCommand?_InternalFinalizer@@@QAGXQAV1@@Z 
--- From 'Obj\scilexer.3C7EBDAC.obj'
01:00020A60 ?_newGet_integerControl@commonDialogs@@SAXQAVwindow@@@PB_W1PAPAVcommonDialog@@@PAPAV4@@PAH@Z 
--- From 'Obj\commondialogs.04295316.obj'
01:00020A80 ?_anonymous$c0$1$newget_integercontrol/4nf$commonDialogs@1@SAXPAUanonymous$c0$1$newget_integercontrol/4nf$commonDialogsc_struct@1@QAVintegerControl@@@PAH@Z 
01:00020AA4 ?_newGet_integerControl@commonDialogs@@SAXQAVwindow@@@PB_W11PAPAVcommonDialog@@@PAPAV4@@PAH@Z 
01:00020B58 ?_tryGet_integer@commonDialogs@@SAXQAVwindow@@@PB_W1PAH@Z  (Idle)
01:00020B78 ?_tryGet_integer@commonDialogs@@SAXQAVwindow@@@PB_W11PAH@Z 
01:00020BB4 ?_newGet_realControl@commonDialogs@@SAXQAVwindow@@@PB_W1PAPAVcommonDialog@@@PAPAV4@@PAPAN@Z  (Idle)
01:00020BD4 ?_anonymous$c0$1$newget_realcontrol/4nf$commonDialogs@1@SAXPAUanonymous$c0$1$newget_realcontrol/4nf$commonDialogsc_struct@1@QAVrealControl@@@PAPAN@Z 
01:00020BF8 ?_newGet_realControl@commonDialogs@@SAXQAVwindow@@@PB_W11PAPAVcommonDialog@@@PAPAV4@@PAPAN@Z 
01:00020CAC ?_tryGet_real@commonDialogs@@SAXQAVwindow@@@PB_W1PAPAN@Z  (Idle)
01:00020CCC ?_tryGet_real@commonDialogs@@SAXQAVwindow@@@PB_W11PAPAN@Z 
01:00020D08 ?_newGet_editControl@commonDialogs@@SAXQAVwindow@@@PB_W1PAPAVcommonDialog@@@PAPAV4@@PAPB_W@Z  (Idle)
01:00020D28 ?_newGet_editControl@commonDialogs@@SAXQAVwindow@@@PB_W11PAPAVcommonDialog@@@PAPAV4@@PAPB_W@Z 
01:00020D48 ?_anonymous$c0$1$newget_editcontrol/5nf$commonDialogs@1@SAXPAUanonymous$c0$1$newget_editcontrol/5nf$commonDialogsc_struct@1@QAVeditControl@@@PAPB_W@Z 
01:00020D6C ?_newGet_editControl@commonDialogs@@SAXQAVwindow@@@PB_W111PAPAVcommonDialog@@@PAPAV4@@PAPB_W@Z 
01:00020E20 ?_newGet_editControl@commonDialogs@@SAXQAVwindow@@@PB_W111XPAPAVcommonDialog@@@PAPAV4@@PAPB_W@Z  (Idle)
01:00020E48 ?_anonymous$c0$1$newget_editcontrol/7nf$commonDialogs@1@SAXPAUanonymous$c0$1$newget_editcontrol/7nf$commonDialogsc_struct@1@QAVeditControl@@@PAPB_W@Z 
01:00020E6C ?_anonymous$c0$2$newget_editcontrol/7nf$commonDialogs@1@SAXPAUanonymous$c0$2$newget_editcontrol/7nf$commonDialogsc_struct@1@QAVcontrol@@@PAPAUvalidateResult_struct@4@@Z 
01:00020F0C ?_newGet_editControl@commonDialogs@@SAXQAVwindow@@@PB_W111HXPAPAVcommonDialog@@@PAPAV4@@PAPB_W@Z 
01:00021030 ?_tryGet_string@commonDialogs@@SAXQAVwindow@@@PB_W1PAPB_W@Z  (Idle)
01:00021050 ?_tryGet_string@commonDialogs@@SAXQAVwindow@@@PB_W11PAPB_W@Z 
01:00021070 ?_tryGet_string@commonDialogs@@SAXQAVwindow@@@PB_W111PAPB_W@Z 
01:000210B0 ?_tryGet_string@commonDialogs@@SAXQAVwindow@@@PB_W111XPAPB_W@Z  (Idle)
01:000210F4 ?_tryGet_string@commonDialogs@@SAXQAVwindow@@@PB_W111HXPAPB_W@Z  (Idle)
01:00021138 ?_tryGet@commonDialog@@SAXQAV1@@PAXPAXPAPAX@Z 
01:0002117C ?onShow@commonDialog@@SAXQAV1@@PAXPAXQAVwindow@@@PBUlParam@gui_native@@@Z 
01:00021444 ?_setPromptWidth@commonDialog@@SAXQAV1@@PAXPAXPAUoptional_struct@core@@QAVtextControl@@@PAH@Z 
01:00021520 ?_anonymous$o0$1$new/6np$commonDialog{@Control,@Elem}@commonDialog@@SAXPAUanonymous$o0$1$new/6np$commonDialog{@Control,@Elem}c_struct@1/2@QAVbutton@@@PAPAUactionResponse_struct@4@@Z 
01:000215B4 ?new@commonDialog@@SAXQAV1@@PAXPAXQAVrTypeLibrary@TypeLibraries@RunTime@VIP@@1QAVwindow@@@PB_W4QAVcontrol@@@PAXX@Z  (Idle)
01:0002188C ?_new@commonDialog@@SAXQAVrTypeLibrary@TypeLibraries@RunTime@VIP@@0QAVwindow@@@PB_W3QAVcontrol@@@PAXXPAPAV1@@PAPAXPAPAX@Z 
01:000218D0 ?_object_typelib_initializer@commonDialog@@SGXQAV1@@PAXPAXQAVrTypeLibrary@TypeLibraries@RunTime@VIP@@1@Z 
01:000218EC ?_control@commonDialog@@SAXQAV1@@PAXPAXPAPAX@Z 
01:00022B90 commonDialog{@Control,@Elem}?_initObject@@@QAGXQAV1@H@Z 
01:00022BDC ?@create_object@commonDialog@@SGQAV1@@PAXPAXQAVrTypeLibrary@TypeLibraries@RunTime@VIP@@0@Z 
01:00022C04 commonDialog{@Control,@Elem}?_InternalFinalizer@@@QAGXQAV1@@Z 
--- From 'Obj\controls.363FB18E.obj'
01:00022C20 ?_tryGetParameter@versionControl@@SAXPB_WPAPB_W@Z  (Idle)
01:00022F94 ?parameterTemplate@versionControl@@SAXQAVoutputStream@@@PB_WPAU?$__packedList_struct@Ustring@@@@@Z 
01:00022FE4 ?anonymous$o0$1$settext/1np$versionControl@1@SAXPAUanonymous$o0$1$settext/1np$versionControlc_struct@1@QAVoutputStream@@@@Z 
01:00023018 ?setText@versionControl@@SAXQAVwindow@@@PB_W@Z 
01:00023064 ?new@versionControl@@SAXQAV1@@QAVcontainerWindow@@@@Z  (Idle)
01:00023080 ?new@versionControl@@SAXQAV1@@@Z 
01:00023088 ?_tryGetParameterName@versionControl@@SAXPB_WPAPB_W@Z 
01:0002311C ?_getFileVersionInformation@versionControl@@SAXQAEPB_W1PAPB_W@Z 
01:000231A8 ?_getLanguageAndCodePageKey@versionControl@@SAXQAEPAPB_W@Z 
01:00023238 ?_tryVerQueryValue@versionControl@@SAXQAEPB_WPAPAX@Z 
01:00023284 ?_new@versionControl@@SAXPAPAV1@@@Z  (Idle)
--- From 'Obj\aboutdialog.C4CC6B1D.obj'
01:000232AC ?_new@versionControl@@SAXQAVcontainerWindow@@@PAPAV1@@@Z 
--- From 'Obj\controls.363FB18E.obj'
01:000232D4 ?new@timerControl@@SAXQAV1@@@Z  (Idle)
01:0002333C ?localInitialize@timerControl@@SAXQAV1@@@Z 
01:0002339C ?new@timerControl@@SAXQAV1@@QAVcontainerWindow@@@@Z  (Idle)
01:000233B8 ?start@timerControl@@SAXQAV1@@@Z 
01:00023490 ?stop@timerControl@@SAXQAV1@@@Z 
01:00023508 ?isRunning@timerControl@@SAXQAV1@@@Z 
01:00023520 ?setTickDuration@timerControl@@SAXQAV1@@PBUpositive@@@Z 
01:00023564 ?_getTickDuration@timerControl@@SAXQAV1@@AAUpositive@@@Z 
01:00023578 ?onTickTimer@timerControl@@SAXQAV1@@QAVwindow@@@PBUtimerHandle@@@Z 
01:00023614 ?addTickListener@timerControl@@SAXQAV1@@X@Z 
01:0002363C ?removeTickListener@timerControl@@SAXQAV1@@X@Z 
01:00023704 ?_new@timerControl@@SAXPAPAV1@@@Z  (Idle)
01:0002372C ?_new@timerControl@@SAXQAVcontainerWindow@@@PAPAV1@@@Z  (Idle)
01:00023754 ?_object_facts_initializer@timerControl@@SGXQAV1@@@Z 
01:00023774 ?new@textControl@@SAXQAV1@@QAVcontainerWindow@@@@Z  (Idle)
--- From 'Obj\controlsupport.BED97958.obj'
01:00023790 ?new@textControl@@SAXQAV1@@@Z 
--- From 'Obj\controls.363FB18E.obj'
01:000237F4 ?setOuterRect@textControl@@SAXQAVwindow@@@PAUrct_struct@vpiDomains@@@Z 
01:0002382C ?setAlignBaseline@textControl@@SAXQAV1@@PAUboolean_struct@_builtIn@@@Z 
01:0002386C ?_getAlignBaseline@textControl@@SAXQAV1@@PAPAUboolean_struct@_builtIn@@@Z 
01:00023880 ?setIgnorePrefix@textControl@@SAXQAV1@@@Z 
01:00023894 ?setIgnorePrefix@textControl@@SAXQAV1@@PAUboolean_struct@_builtIn@@@Z 
01:000238B0 ?_getIgnorePrefix@textControl@@SAXQAV1@@PAPAUboolean_struct@_builtIn@@@Z 
01:000238CC ?alignment_State@textControl@@SAXPAUalignment_struct@vpiDomains@@PAI@Z  (Idle)
01:00023900 ?staticStyle@textControl@@SGIQAV1@@@Z 
01:00023928 ?staticStyle@textControl@@SGXQAV1@@I@Z 
01:00023948 ?setAlignment@textControl@@SAXQAV1@@PAUalignment_struct@vpiDomains@@@Z 
01:00023970 ?_getAlignment@textControl@@SAXQAV1@@PAPAUalignment_struct@vpiDomains@@@Z 
01:000239D4 ?setWrap@textControl@@SAXQAV1@@@Z 
01:000239E8 ?setWrap@textControl@@SAXQAV1@@PAUboolean_struct@_builtIn@@@Z 
01:00023A20 ?_getWrap@textControl@@SAXQAV1@@PAPAUboolean_struct@_builtIn@@@Z 
01:00023A50 ?setForegroundColor@textControl@@SAXQAV1@@PBUcolor@@@Z 
01:00023A94 ?_onCtlColorStatic@textControl@@SAXQAV1@@QAVwindow@@@IPBUwParam@@PBUlParam@@PAPAUnativeResponse_struct@3@@Z 
01:00023B3C ?_updateDC@textControl@@SAXQAV1@@PBUhDC@gui_Native@@AAUhBrush@gui_native@@@Z 
01:00023B88 ?enableHandleDeviceContext@textControl@@SAXQAV1@@@Z 
--- From 'Obj\errorpresentationdialog.0BD1CEB3.obj'
01:00023C14 ?_new@textControl@@SAXQAVcontainerWindow@@@PAPAV1@@@Z 
--- From 'Obj\controls.363FB18E.obj'
01:00023C3C ?_new@textControl@@SAXPAPAV1@@@Z  (Idle)
01:00023C64 ?alignment_State@textControl@@SAXPAPAUalignment_struct@vpiDomains@@I@Z 
01:00023CA4 ?_object_facts_initializer@textControl@@SGXQAV1@@@Z 
01:00023CBC ?newHorizontal@scrollControl@@SAXQAV1@@QAVcontainerWindow@@@@Z  (Idle)
01:00023CD8 ?newHorizontal@scrollControl@@SAXQAV1@@@Z 
01:00023CEC ?newVertical@scrollControl@@SAXQAV1@@QAVcontainerWindow@@@@Z  (Idle)
01:00023D08 ?newVertical@scrollControl@@SAXQAV1@@@Z 
01:00023D1C ?new@scrollControl@@SAXQAV1@@I@Z 
01:00023DB8 ?localInitialize@scrollControl@@SAXQAV1@@@Z 
01:00023EE0 ?dispatchEvent@scrollControl@@SAXQAVcontrol@@@PAUcontrolInfo_struct@vpiDomains@@@Z 
01:00023F88 ?setThumbIfThumbTrack@scrollControl@@SAXQAV1@@PBUscrollCode@@H@Z 
01:00023FBC ?isPosInvalidForCode@scrollControl@@SAXH@Z 
01:00023FE4 ?dispatchScroll@scrollControl@@SAXQAV1@@PBUscrollCode@@H@Z 
01:00024068 ?addScrollListener@scrollControl@@SAXQAV1@@X@Z 
01:00024090 ?removeScrollListener@scrollControl@@SAXQAV1@@X@Z 
01:0002416C ?getRange@scrollControl@@SAXQAV1@@PAHPAH@Z 
01:00024238 ?setRange@scrollControl@@SAXQAV1@@HH@Z 
01:000242D0 ?_getThumbPosition@scrollControl@@SAXQAV1@@PAH@Z 
01:00024378 ?setThumbPosition@scrollControl@@SAXQAV1@@H@Z 
01:00024400 ?_getProportion@scrollControl@@SAXQAV1@@AAUpositive@@@Z 
01:000244C0 ?setProportion@scrollControl@@SAXQAV1@@PBUpositive@@@Z 
01:00024538 ?_newHorizontal@scrollControl@@SAXQAVcontainerWindow@@@PAPAV1@@@Z  (Idle)
01:00024560 ?_newHorizontal@scrollControl@@SAXPAPAV1@@@Z  (Idle)
01:00024588 ?_newVertical@scrollControl@@SAXQAVcontainerWindow@@@PAPAV1@@@Z  (Idle)
01:000245B0 ?_newVertical@scrollControl@@SAXPAPAV1@@@Z  (Idle)
01:000245D8 ?new@realControl@@SAXQAV1@@@Z  (Idle)
01:00024620 ?new@realControl@@SAXQAV1@@QAVcontainerWindow@@@@Z  (Idle)
01:00024638 ?_onRealValidate@realControl@@SAXQAV1@@QAVcontrol@@@PAPAUvalidateResult_struct@3@@Z 
01:00024720 ?_formatReal@realControl@@SAXPANPAPB_W@Z  (Idle)
01:00024800 ?setReal@realControl@@SAXQAV1@@PAN@Z 
01:00024828 ?_getReal@realControl@@SAXQAV1@@PAPAN@Z 
01:00024868 ?_tryGetReal@realControl@@SAXQAV1@@PAPAN@Z 
01:000248D4 ?setMaximum@realControl@@SAXQAV1@@PAN@Z 
01:00024918 ?_getMaximum@realControl@@SAXQAV1@@PAPAN@Z 
01:0002492C ?setMinimum@realControl@@SAXQAV1@@PAN@Z 
01:00024970 ?_getMinimum@realControl@@SAXQAV1@@PAPAN@Z 
01:00024984 ?setMandatory@realControl@@SAXQAV1@@@Z 
01:00024998 ?setMandatory@realControl@@SAXQAV1@@PAUboolean_struct@_builtIn@@@Z 
01:000249AC ?_getMandatory@realControl@@SAXQAV1@@PAPAUboolean_struct@_builtIn@@@Z 
01:000249C0 ?_checkContent@realControl@@SAXQAV1@@PB_WPAPAUvalue_struct@core@@@Z 
01:00024A98 ?_whetherEmptyStringAvailable@realControl@@SAXQAV1@@PAUboolean_struct@_builtIn@@PAPAUvalue_struct@core@@@Z 
01:00024B28 ?_checkMinMax@realControl@@SAXQAV1@@PANPAPAUvalue_struct@core@@@Z 
01:00024D5C ?setIllegalValueMessage@realControl@@SAXPB_W@Z  (Idle)
01:00024D6C ?setIllegalValueMandatoryMessage@realControl@@SAXPB_W@Z  (Idle)
01:00024D7C ?setIllegalValueMinimumMaximumMessage@realControl@@SAXPB_W@Z  (Idle)
01:00024D8C ?setIllegalValueMinimumMessage@realControl@@SAXPB_W@Z  (Idle)
01:00024D9C ?setIllegalValueMaximumMessage@realControl@@SAXPB_W@Z  (Idle)
01:00024DAC ?_new@realControl@@SAXQAVcontainerWindow@@@PAPAV1@@@Z  (Idle)
01:00024DD4 ?_new@realControl@@SAXPAPAV1@@@Z 
01:00024DFC ?_object_facts_initializer@realControl@@SGXQAV1@@@Z 
01:00024E24 ?infinityText@realControl@@SGXPB_W@Z  (Idle)
01:00024E30 ?infinityText@realControl@@SGPB_WXZ  (Idle)
01:00024E38 ?nanText@realControl@@SGXPB_W@Z  (Idle)
01:00024E44 ?nanText@realControl@@SGPB_WXZ  (Idle)
01:00024E4C ?friendAddButton@radioButtonGroup@@SAXQAV1@@QAVradioButton@@@@Z 
01:00024EA4 ?friendDelButton@radioButtonGroup@@SAXQAV1@@QAVradioButton@@@@Z 
01:00024F84 ?_tryGetSelectedButton@radioButtonGroup@@SAXQAV1@@PAPAVradioButton@@@@Z 
01:00024FFC ?_getSelectedButton@radioButtonGroup@@SAXQAV1@@PAPAVradioButton@@@@Z 
01:0002503C ?setSelectedButton@radioButtonGroup@@SAXQAV1@@QAVradioButton@@@@Z 
01:000250E8 ?getButton_nd@radioButtonGroup@@SAXQAV1@@PAPAVradioButton@@@@Z 
01:00025134 ?addSelectionChangedListener@radioButtonGroup@@SAXQAV1@@X@Z 
01:0002515C ?removeSelectionChangedListener@radioButtonGroup@@SAXQAV1@@X@Z 
01:00025224 ?addDelayedSelectionChangedListener@radioButtonGroup@@SAXQAV1@@PBUpositive@@X@Z 
01:000252CC ?removeDelayedSelectionChangedListener@radioButtonGroup@@SAXQAV1@@X@Z 
01:00025398 ?supportDelayedSelectionChangedListener@radioButtonGroup@@SAXQAV1@@0QAVradioButton@@@@Z 
01:0002543C ?_firstShownRadioButton@radioButtonGroup@@SAXQAV1@@PAPAVwindow@@@@Z 
01:00025484 ?delayedSelectionChanged@radioButtonGroup@@SAXQAV1@@@Z 
01:00025504 ?buttonStateChanged@radioButtonGroup@@SAXQAV1@@QAVradioButton@@@PAUstate_struct@3@2@Z 
01:000255A0 ?new@radioButtonGroup@@SAXQAV1@@@Z  (Idle)
--- From 'Obj\guisupport.49D10144.obj'
01:000255A8 ?_new@radioButtonGroup@@SAXPAPAV1@@@Z 
--- From 'Obj\controls.363FB18E.obj'
01:000255CC ?new@radioButton@@SAXQAV1@@QAVcontainerWindow@@@@Z  (Idle)
01:000255E8 ?anonymous$o0$1$new/0np$radioButton@1@SAXPAUanonymous$o0$1$new/0np$radioButtonc_struct@1@@Z 
01:00025614 ?new@radioButton@@SAXQAV1@@@Z 
01:000256A4 ?setOuterRect@radioButton@@SAXQAVwindow@@@PAUrct_struct@vpiDomains@@@Z 
01:000256DC ?setAlignBaseline@radioButton@@SAXQAV1@@PAUboolean_struct@_builtIn@@@Z 
01:0002571C ?_getAlignBaseline@radioButton@@SAXQAV1@@PAPAUboolean_struct@_builtIn@@@Z 
01:00025730 ?setContainer@radioButton@@SAXQAVcontrol@@@QAVcontainerWindow@@@@Z 
01:000257A8 ?resetContainer@radioButton@@SAXQAVcontrol@@@@Z 
01:000257C4 ?clearOldGroup@radioButton@@SAXQAV1@@@Z 
01:0002584C ?defaultClickResponder@radioButton@@SAXQAV1@@@Z 
01:00025854 ?setClickResponder@radioButton@@SAXQAV1@@X@Z 
01:00025868 ?_getClickResponder@radioButton@@SAXQAV1@@PAX@Z 
01:0002587C ?resetClickResponder@radioButton@@SAXQAV1@@@Z 
01:00025890 ?addStateChangedListener@radioButton@@SAXQAV1@@X@Z 
01:000258B8 ?removeStateChangedListener@radioButton@@SAXQAV1@@X@Z 
01:00025980 ?_dispatchNotification@radioButton@@SAXQAVcontrol@@@PBUunsigned16@@PAPAUnativeResponse_struct@window@@@Z 
01:000259B0 ?_getRadioState@radioButton@@SAXQAV1@@PAPAUstate_struct@1@@Z 
01:00025A98 ?setRadioState@radioButton@@SAXQAV1@@PAUstate_struct@1@@Z 
01:00025B04 ?click@radioButton@@SAXQAV1@@@Z 
01:00025B64 ?updateAndNotify@radioButton@@SAXQAV1@@PAUstate_struct@1@1@Z 
01:00025CC4 ?pressed@radioButton@@SGPAUboolean_struct@_builtIn@@QAV1@@@Z 
01:00025D04 ?pressed@radioButton@@SGXQAV1@@PAUboolean_struct@_builtIn@@@Z 
01:00025D3C ?stateTable@radioButton@@SAXPAUstate_struct@1@PAI@Z 
01:00025D60 ?setAuto@radioButton@@SAXQAV1@@@Z 
01:00025D74 ?setAuto@radioButton@@SAXQAV1@@PAUboolean_struct@_builtIn@@@Z 
01:00025DF8 ?_getAuto@radioButton@@SAXQAV1@@PAPAUboolean_struct@_builtIn@@@Z 
01:00025E14 ?setLeftText@radioButton@@SAXQAV1@@@Z 
01:00025E28 ?setLeftText@radioButton@@SAXQAV1@@PAUboolean_struct@_builtIn@@@Z 
01:00025E9C ?_getLeftText@radioButton@@SAXQAV1@@PAPAUboolean_struct@_builtIn@@@Z 
01:00025EB8 ?_getRadioButtonGroup@radioButton@@SAXQAV1@@PAPAVradioButtonGroup@@@@Z 
01:00025EE4 ?_new@radioButton@@SAXQAVcontainerWindow@@@PAPAV1@@@Z  (Idle)
01:00025F0C ?_new@radioButton@@SAXPAPAV1@@@Z  (Idle)
01:00025F34 ?stateTable@radioButton@@SAXPAPAUstate_struct@1@I@Z 
01:00025F64 ?_object_facts_initializer@radioButton@@SGXQAV1@@@Z 
01:00025F88 ?new@listEdit@@SAXQAV1@@QAVcontainerWindow@@@@Z  (Idle)
01:00025FA4 ?new@listEdit@@SAXQAV1@@@Z 
01:0002601C ?addModifiedListener@listEdit@@SAXQAVeditControl@@@X@Z 
01:00026044 ?removeModifiedListener@listEdit@@SAXQAVeditControl@@@X@Z 
01:0002610C ?anonymous$o0$1$adddelayedmodifiedlistener/2np$listEdit@1@SAXPAUanonymous$o0$1$adddelayedmodifiedlistener/2np$listEditc_struct@1@@Z 
01:00026154 ?addDelayedModifiedListener@listEdit@@SAXQAVeditControl@@@PBUpositive@@X@Z 
01:000261CC ?removeDelayedModifiedListener@listEdit@@SAXQAVeditControl@@@X@Z 
01:00026298 ?_onListEditNative@listEdit@@SAXQAV1@@QAVwindow@@@IPBUwParam@@PBUlParam@@PAPAUnativeResponse_struct@3@@Z 
01:00026334 ?dispatchModified@listEdit@@SAXQAV1@@@Z 
01:00026424 ?dispatchEvent@listEdit@@SAXQAVcontrol@@@PAUcontrolInfo_struct@vpiDomains@@@Z 
01:00026448 ?selectText@listEdit@@SAXQAVeditControl@@@PBUcharCount@@1@Z 
01:00026474 ?selectAll@listEdit@@SAXQAVeditControl@@@@Z 
01:000264B0 ?getTextSelection@listEdit@@SAXQAVeditControl@@@AAUcharCount@@1@Z 
01:000264DC ?setAlignBaseline@listEdit@@SAXQAVeditControl@@@PAUboolean_struct@_builtIn@@@Z 
01:0002651C ?_getAlignBaseline@listEdit@@SAXQAVeditControl@@@PAPAUboolean_struct@_builtIn@@@Z 
01:00026530 ?setAutoHScroll@listEdit@@SAXQAVeditControl@@@@Z 
01:00026544 ?setAutoHScroll@listEdit@@SAXQAVeditControl@@@PAUboolean_struct@_builtIn@@@Z 
01:00026570 ?_getAutoHScroll@listEdit@@SAXQAVeditControl@@@PAPAUboolean_struct@_builtIn@@@Z 
01:0002658C ?setBorder@listEdit@@SAXQAVcontrol@@@@Z 
01:000265A0 ?setBorder@listEdit@@SAXQAVcontrol@@@PAUboolean_struct@_builtIn@@@Z 
01:000265B8 ?_getBorder@listEdit@@SAXQAVcontrol@@@PAPAUboolean_struct@_builtIn@@@Z 
01:000265D0 ?setMultiLine@listEdit@@SAXQAVeditControl@@@@Z 
01:000265E4 ?setMultiLine@listEdit@@SAXQAVeditControl@@@PAUboolean_struct@_builtIn@@@Z 
01:000265FC ?_getMultiLine@listEdit@@SAXQAVeditControl@@@PAPAUboolean_struct@_builtIn@@@Z 
01:00026614 ?setPassword@listEdit@@SAXQAVeditControl@@@@Z 
01:00026628 ?setPassword@listEdit@@SAXQAVeditControl@@@PAUboolean_struct@_builtIn@@@Z 
01:00026640 ?_getPassword@listEdit@@SAXQAVeditControl@@@PAPAUboolean_struct@_builtIn@@@Z 
01:00026658 ?setHideSel@listEdit@@SAXQAVeditControl@@@@Z 
01:0002666C ?setHideSel@listEdit@@SAXQAVeditControl@@@PAUboolean_struct@_builtIn@@@Z 
01:00026684 ?_getHideSel@listEdit@@SAXQAVeditControl@@@PAPAUboolean_struct@_builtIn@@@Z 
01:0002669C ?setReadOnly@listEdit@@SAXQAVeditControl@@@@Z 
01:000266B0 ?setReadOnly@listEdit@@SAXQAVeditControl@@@PAUboolean_struct@_builtIn@@@Z 
01:000266C8 ?_getReadOnly@listEdit@@SAXQAVeditControl@@@PAPAUboolean_struct@_builtIn@@@Z 
01:000266E0 ?setAlignment@listEdit@@SAXQAVeditControl@@@PAUalignment_struct@vpiDomains@@@Z 
01:000266F8 ?_getAlignment@listEdit@@SAXQAVeditControl@@@PAPAUalignment_struct@vpiDomains@@@Z 
01:00026710 ?setUpperCase@listEdit@@SAXQAVeditControl@@@@Z 
01:00026724 ?setUpperCase@listEdit@@SAXQAVeditControl@@@PAUboolean_struct@_builtIn@@@Z 
01:0002673C ?_getUpperCase@listEdit@@SAXQAVeditControl@@@PAPAUboolean_struct@_builtIn@@@Z 
01:00026754 ?setLowerCase@listEdit@@SAXQAVeditControl@@@@Z 
01:00026768 ?setLowerCase@listEdit@@SAXQAVeditControl@@@PAUboolean_struct@_builtIn@@@Z 
01:00026780 ?_getLowerCase@listEdit@@SAXQAVeditControl@@@PAPAUboolean_struct@_builtIn@@@Z 
01:00026798 ?setAutoVScroll@listEdit@@SAXQAVeditControl@@@@Z 
01:000267AC ?setAutoVScroll@listEdit@@SAXQAVeditControl@@@PAUboolean_struct@_builtIn@@@Z 
01:000267C4 ?_getAutoVScroll@listEdit@@SAXQAVeditControl@@@PAPAUboolean_struct@_builtIn@@@Z 
01:000267DC ?setHScroll@listEdit@@SAXQAVeditControl@@@@Z 
01:000267F0 ?setHScroll@listEdit@@SAXQAVeditControl@@@PAUboolean_struct@_builtIn@@@Z 
01:00026808 ?_getHScroll@listEdit@@SAXQAVeditControl@@@PAPAUboolean_struct@_builtIn@@@Z 
01:00026820 ?setWantReturn@listEdit@@SAXQAVeditControl@@@@Z 
01:00026834 ?setWantReturn@listEdit@@SAXQAVeditControl@@@PAUboolean_struct@_builtIn@@@Z 
01:0002684C ?_getWantReturn@listEdit@@SAXQAVeditControl@@@PAPAUboolean_struct@_builtIn@@@Z 
01:00026864 ?setCueBanner@listEdit@@SAXQAVeditControl@@@PB_WPAUboolean_struct@_builtIn@@@Z 
01:0002687C ?setCueBanner@listEdit@@SAXQAVeditControl@@@PB_W@Z 
01:00026894 ?_getCueBanner@listEdit@@SAXQAVeditControl@@@PAPB_W@Z 
01:000268AC ?limitText@listEdit@@SGPBUpositive@@QAVeditControl@@@@Z 
01:000268C4 ?limitText@listEdit@@SGXQAVeditControl@@@PBUpositive@@@Z 
--- From 'Obj\scilexersupport.81F1978C.obj'
01:0002690C ?_new@listEdit@@SAXQAVcontainerWindow@@@PAPAV1@@@Z 
--- From 'Obj\controls.363FB18E.obj'
01:00026934 ?_new@listEdit@@SAXPAPAV1@@@Z  (Idle)
01:0002695C ?_object_facts_initializer@listEdit@@SGXQAV1@@@Z 
01:0002697C ?userModifyEventOnly@listEdit@@SGXQAV1@@PAUboolean_struct@_builtIn@@@Z 
01:0002698C ?userModifyEventOnly@listEdit@@SGPAUboolean_struct@_builtIn@@QAV1@@@Z 
01:00026998 ?new@listButton@@SAXQAV1@@@Z  (Idle)
01:000269C8 ?new@listButton@@SAXQAV1@@QAVcontainerWindow@@@@Z  (Idle)
01:000269E0 ?newFriend@listButton@@SAXQAV1@@QAVcontrol@@@I@Z 
01:00026A28 ?setAlignBaseline@listButton@@SAXQAV1@@PAUboolean_struct@_builtIn@@@Z 
01:00026A68 ?_getAlignBaseline@listButton@@SAXQAV1@@PAPAUboolean_struct@_builtIn@@@Z 
01:00026A7C ?_new@listButton@@SAXQAVcontainerWindow@@@PAPAV1@@@Z  (Idle)
01:00026AA4 ?_new@listButton@@SAXPAPAV1@@@Z  (Idle)
01:00026ACC ?_newFriend@listButton@@SAXQAVcontrol@@@IPAPAV1@@@Z  (Idle)
01:00026AF8 ?_object_facts_initializer@listButton@@SGXQAV1@@@Z 
01:00026B10 ?new@listBox@@SAXQAV1@@QAVcontainerWindow@@@@Z  (Idle)
01:00026B2C ?new@listBox@@SAXQAV1@@@Z 
01:00026BD0 ?localInitialize@listBox@@SAXQAV1@@@Z 
01:00026CE0 ?setTopIndex@listBox@@SAXQAV1@@H@Z 
01:00026D6C ?_getTopIndex@listBox@@SAXQAV1@@PAH@Z 
01:00026DF0 ?setTabStops@listBox@@SAXQAV1@@PAU?$__packedList_struct@Uinteger@@@@@Z 
01:00026EBC ?setColumnWidth@listBox@@SAXQAV1@@H@Z 
01:00026F64 ?addDoubleClickListener@listBox@@SAXQAV1@@X@Z 
01:00026F8C ?removeDoubleClickListener@listBox@@SAXQAV1@@X@Z 
01:00027054 ?addDropDownListener@listBox@@SAXQAVlistControl@@@X@Z 
01:0002706C ?removeDropDownListener@listBox@@SAXQAVlistControl@@@X@Z 
01:00027084 ?addCloseUpListener@listBox@@SAXQAVlistControl@@@X@Z 
01:0002709C ?removeCloseUpListener@listBox@@SAXQAVlistControl@@@X@Z 
01:000270B4 ?setMaxDropDownRows@listBox@@SAXQAVlistControl@@@I@Z 
01:000270CC ?_getMaxDropDownRows@listBox@@SAXQAVlistControl@@@PAI@Z 
01:000270E4 ?_getDroppedState@listBox@@SAXQAVlistControl@@@PAPAUboolean_struct@_builtIn@@@Z 
01:000270FC ?_dispatchNotification@listBox@@SAXQAVcontrol@@@PBUunsigned16@@PAPAUnativeResponse_struct@window@@@Z 
01:00027124 ?dispatchActivated@listBox@@SAXQAV1@@@Z 
01:000271A4 ?setHScroll@listBox@@SAXQAV1@@@Z 
01:000271B8 ?setHScroll@listBox@@SAXQAV1@@PAUboolean_struct@_builtIn@@@Z 
01:000271E4 ?_getHScroll@listBox@@SAXQAV1@@PAPAUboolean_struct@_builtIn@@@Z 
01:00027200 ?setBorder@listBox@@SAXQAVcontrol@@@@Z 
01:00027214 ?setBorder@listBox@@SAXQAVcontrol@@@PAUboolean_struct@_builtIn@@@Z 
01:00027240 ?_getBorder@listBox@@SAXQAVcontrol@@@PAPAUboolean_struct@_builtIn@@@Z 
01:0002725C ?setExtendedSel@listBox@@SAXQAV1@@@Z 
01:00027270 ?setExtendedSel@listBox@@SAXQAV1@@PAUboolean_struct@_builtIn@@@Z 
01:0002729C ?_getExtendedSel@listBox@@SAXQAV1@@PAPAUboolean_struct@_builtIn@@@Z 
01:000272B8 ?setUseTabStops@listBox@@SAXQAV1@@@Z 
01:000272CC ?setUseTabStops@listBox@@SAXQAV1@@PAUboolean_struct@_builtIn@@@Z 
01:000272F8 ?_getUseTabStops@listBox@@SAXQAV1@@PAPAUboolean_struct@_builtIn@@@Z 
01:00027314 ?setMultiSelect@listBox@@SAXQAV1@@@Z 
01:00027328 ?setMultiSelect@listBox@@SAXQAV1@@PAUboolean_struct@_builtIn@@@Z 
01:00027354 ?_getMultiSelect@listBox@@SAXQAV1@@PAPAUboolean_struct@_builtIn@@@Z 
01:00027370 ?setAutoNotify@listBox@@SAXQAV1@@@Z 
01:00027384 ?setAutoNotify@listBox@@SAXQAV1@@PAUboolean_struct@_builtIn@@@Z 
01:000273B0 ?_getAutoNotify@listBox@@SAXQAV1@@PAPAUboolean_struct@_builtIn@@@Z 
01:000273CC ?setMultiColumn@listBox@@SAXQAV1@@@Z 
01:000273E0 ?setMultiColumn@listBox@@SAXQAV1@@PAUboolean_struct@_builtIn@@@Z 
01:0002740C ?_getMultiColumn@listBox@@SAXQAV1@@PAPAUboolean_struct@_builtIn@@@Z 
01:00027428 ?_new@listBox@@SAXQAVcontainerWindow@@@PAPAV1@@@Z  (Idle)
01:00027450 ?_new@listBox@@SAXPAPAV1@@@Z  (Idle)
01:00027478 ?new@integerControl@@SAXQAV1@@@Z  (Idle)
01:000274C0 ?new@integerControl@@SAXQAV1@@QAVcontainerWindow@@@@Z  (Idle)
01:000274D8 ?_onIntValidate@integerControl@@SAXQAV1@@QAVcontrol@@@PAPAUvalidateResult_struct@3@@Z 
01:000275A0 ?setInteger@integerControl@@SAXQAV1@@H@Z 
01:000275D4 ?_toText@integerControl@@SAXHHPAPB_W@Z 
01:00027670 ?_getInteger@integerControl@@SAXQAV1@@PAH@Z 
01:000276B0 ?_tryGetInteger@integerControl@@SAXQAV1@@PAH@Z 
01:0002771C ?setMaximum@integerControl@@SAXQAV1@@H@Z 
01:0002777C ?_getMaximum@integerControl@@SAXQAV1@@PAH@Z 
01:00027790 ?setMinimum@integerControl@@SAXQAV1@@H@Z 
01:000277F0 ?_getMinimum@integerControl@@SAXQAV1@@PAH@Z 
01:00027804 ?setMandatory@integerControl@@SAXQAV1@@@Z 
01:00027818 ?setMandatory@integerControl@@SAXQAV1@@PAUboolean_struct@_builtIn@@@Z 
01:0002782C ?_getMandatory@integerControl@@SAXQAV1@@PAPAUboolean_struct@_builtIn@@@Z 
01:00027840 ?_checkContent@integerControl@@SAXQAV1@@PB_WPAPAUvalue_struct@core@@@Z 
01:00027918 ?_whetherEmptyStringAvailable@integerControl@@SAXQAV1@@PAUboolean_struct@_builtIn@@PAPAUvalue_struct@core@@@Z 
01:000279A8 ?_checkMinMax@integerControl@@SAXQAV1@@HPAPAUvalue_struct@core@@@Z 
01:00027BB4 ?setIllegalValueMessage@integerControl@@SAXPB_W@Z  (Idle)
01:00027BC4 ?setIllegalValueMandatoryMessage@integerControl@@SAXPB_W@Z  (Idle)
01:00027BD4 ?setIllegalValueMinimumMaximumMessage@integerControl@@SAXPB_W@Z  (Idle)
01:00027BE4 ?setIllegalValueMinimumMessage@integerControl@@SAXPB_W@Z  (Idle)
01:00027BF4 ?setIllegalValueMaximumMessage@integerControl@@SAXPB_W@Z  (Idle)
01:00027C04 ?_new@integerControl@@SAXQAVcontainerWindow@@@PAPAV1@@@Z  (Idle)
01:00027C2C ?_new@integerControl@@SAXPAPAV1@@@Z 
01:00027C54 ?_object_facts_initializer@integerControl@@SGXQAV1@@@Z 
01:00027C84 ?radix@integerControl@@SGXQAV1@@H@Z 
01:00027C94 ?new@iconControl@@SAXQAV1@@@Z  (Idle)
01:00027D44 ?new@iconControl@@SAXQAV1@@QAVcontainerWindow@@@@Z  (Idle)
01:00027D60 ?setIconFromFile@iconControl@@SAXQAVwindow@@@PB_W@Z 
01:00027E30 ?setIcon@iconControl@@SAXQAVwindow@@@PBUresid@vpiDomains@@@Z 
01:00027F10 ?autoAdjustRect@iconControl@@SAXQAV1@@@Z 
01:00027FA0 ?_getIcon@iconControl@@SAXQAV1@@AAUresid@vpiDomains@@@Z 
01:00027FF4 ?setHInstance@iconControl@@SAXQAV1@@PBUhModule@@@Z 
01:00028008 ?_getHInstance@iconControl@@SAXQAV1@@AAUhModule@@@Z 
01:0002801C ?show@iconControl@@SAXQAVwindow@@@@Z 
01:00028138 ?create2@iconControl@@SAXQAV1@@PBUwindowHandle@@PB_WPBUhIcon@gui_native@@@Z  (Idle)
01:000281A8 ?create@iconControl@@SAXQAV1@@PBUwindowHandle@@@Z 
01:000282CC ?_onIconNative@iconControl@@SAXQAV1@@QAVwindow@@@IPBUwParam@@PBUlParam@@PAPAUnativeResponse_struct@3@@Z 
01:00028348 ?_onControlEraseBackground@iconControl@@SAXQAV1@@QAVwindow@@@QAVwindowGDI@@@PAPAUeraseBackgroundResponse_struct@3@@Z 
01:00028350 ?setRect@iconControl@@SAXQAVcontrol@@@PAUrct_struct@vpiDomains@@@Z 
--- From 'Obj\aboutdialog.C4CC6B1D.obj'
01:0002839C ?_new@iconControl@@SAXQAVcontainerWindow@@@PAPAV1@@@Z 
--- From 'Obj\controls.363FB18E.obj'
01:000283C4 ?_new@iconControl@@SAXPAPAV1@@@Z  (Idle)
01:000283EC ?_object_facts_initializer@iconControl@@SGXQAV1@@@Z 
01:00028404 ?new@groupBox@@SAXQAV1@@QAVcontainerWindow@@@@Z  (Idle)
01:00028420 ?new@groupBox@@SAXQAV1@@@Z 
01:00028498 ?_onControlEraseBackground@groupBox@@SAXQAV1@@QAVwindow@@@QAVwindowGDI@@@PAPAUeraseBackgroundResponse_struct@3@@Z 
01:000284A0 ?show@groupBox@@SAXQAVwindow@@@@Z 
01:0002850C ?setClientRect@groupBox@@SAXQAVwindow@@@PAUrct_struct@vpiDomains@@@Z 
01:000285E4 ?setBorderStyle@groupBox@@SAXQAV1@@PAUborderStyle_struct@1@@Z 
01:00028624 ?_getBorderStyle@groupBox@@SAXQAV1@@PAPAUborderStyle_struct@1@@Z 
01:00028638 ?_onControlNative@groupBox@@SAXQAV1@@QAVwindow@@@IPBUwParam@@PBUlParam@@PAPAUnativeResponse_struct@3@@Z 
01:000288B0 ?_unit2Pixel@groupBox@@SAXQAV1@@HPAH@Z 
01:00028910 ?_inflateClientRect@groupBox@@SAXQAV1@@PAUrct_struct@vpiDomains@@PAPAU34@@Z 
01:000289CC ?borderStyle_offsets@groupBox@@SAXPAUborderStyle_struct@1@PAHPAHPAHPAHPAPB_W@Z 
01:00028A8C ?drawNCBorder@groupBox@@SAXQAV1@@PAUborderStyle_struct@1@PBUhDC@gui_Native@@PAUrct_struct@vpiDomains@@H@Z 
01:00028D24 ?drawNCCaption@groupBox@@SAXQAV1@@PBUhDC@gui_Native@@PAUrct_struct@vpiDomains@@PBUpositive@@@Z 
01:00028EA0 ?setText@groupBox@@SAXQAVwindow@@@PB_W@Z 
01:00028EC0 ?invalidateParent@groupBox@@SAXQAV1@@@Z 
--- From 'Obj\aboutdialog.C4CC6B1D.obj'
01:00028F24 ?_new@groupBox@@SAXQAVcontainerWindow@@@PAPAV1@@@Z 
--- From 'Obj\controls.363FB18E.obj'
01:00028F4C ?_new@groupBox@@SAXPAPAV1@@@Z  (Idle)
01:00028F74 ?_object_facts_initializer@groupBox@@SGXQAV1@@@Z 
01:00028F8C ?new@editControl@@SAXQAV1@@QAVcontainerWindow@@@@Z  (Idle)
01:00028FA8 ?new@editControl@@SAXQAV1@@@Z 
01:00028FC0 ?anonymous$o0$1$newwindowclass/1np$editControl@1@SAXPAUanonymous$o0$1$newwindowclass/1np$editControlc_struct@1@QAVwindow@@@@Z 
01:00028FEC ?newWindowClass@editControl@@SAXQAV1@@PB_W@Z 
01:00029098 ?show@editControl@@SAXQAVwindow@@@@Z 
01:000290C0 ?setOuterRect@editControl@@SAXQAVwindow@@@PAUrct_struct@vpiDomains@@@Z 
01:00029138 ?_fixEditControlOuterRect@editControl@@SAXPAUboolean_struct@_builtIn@@PAUrct_struct@vpiDomains@@PAPAU45@@Z 
01:000291D8 ?setAlignBaseline@editControl@@SAXQAV1@@PAUboolean_struct@_builtIn@@@Z 
01:00029218 ?_getAlignBaseline@editControl@@SAXQAV1@@PAPAUboolean_struct@_builtIn@@@Z 
01:0002922C ?addModifiedListener@editControl@@SAXQAV1@@X@Z 
01:00029254 ?removeModifiedListener@editControl@@SAXQAV1@@X@Z 
01:0002931C ?anonymous$o0$1$adddelayedmodifiedlistener/2np$editControl@1@SAXPAUanonymous$o0$1$adddelayedmodifiedlistener/2np$editControlc_struct@1@@Z 
01:00029354 ?addDelayedModifiedListener@editControl@@SAXQAV1@@PBUpositive@@X@Z 
01:000293CC ?removeDelayedModifiedListener@editControl@@SAXQAV1@@X@Z 
01:00029498 ?dispatchModified@editControl@@SAXQAV1@@@Z  (Idle)
01:000295B4 ?_dispatchNotification@editControl@@SAXQAVcontrol@@@PBUunsigned16@@PAPAUnativeResponse_struct@window@@@Z 
01:000295E4 ?_getText@editControl@@SAXQAVwindow@@@PAPB_W@Z 
01:00029630 ?setText@editControl@@SAXQAVwindow@@@PB_W@Z 
01:00029648 ?selectText@editControl@@SAXQAV1@@PBUcharCount@@1@Z 
01:00029674 ?selectAll@editControl@@SAXQAV1@@@Z 
01:000296B0 ?getTextSelection@editControl@@SAXQAV1@@AAUcharCount@@1@Z 
01:000296DC ?setAutoHScroll@editControl@@SAXQAV1@@@Z 
01:000296F0 ?setAutoHScroll@editControl@@SAXQAV1@@PAUboolean_struct@_builtIn@@@Z 
01:0002970C ?_getAutoHScroll@editControl@@SAXQAV1@@PAPAUboolean_struct@_builtIn@@@Z 
01:00029728 ?setAutoVScroll@editControl@@SAXQAV1@@@Z 
01:0002973C ?setAutoVScroll@editControl@@SAXQAV1@@PAUboolean_struct@_builtIn@@@Z 
01:00029758 ?_getAutoVScroll@editControl@@SAXQAV1@@PAPAUboolean_struct@_builtIn@@@Z 
01:00029774 ?setMultiLine@editControl@@SAXQAV1@@@Z 
01:00029788 ?setMultiLine@editControl@@SAXQAV1@@PAUboolean_struct@_builtIn@@@Z 
01:000297A4 ?_getMultiLine@editControl@@SAXQAV1@@PAPAUboolean_struct@_builtIn@@@Z 
01:000297C0 ?setVScroll@editControl@@SAXQAV1@@@Z 
01:000297D4 ?setVScroll@editControl@@SAXQAV1@@PAUboolean_struct@_builtIn@@@Z 
01:000297F0 ?_getVScroll@editControl@@SAXQAV1@@PAPAUboolean_struct@_builtIn@@@Z 
01:0002980C ?setHScroll@editControl@@SAXQAV1@@@Z 
01:00029820 ?setHScroll@editControl@@SAXQAV1@@PAUboolean_struct@_builtIn@@@Z 
01:0002983C ?_getHScroll@editControl@@SAXQAV1@@PAPAUboolean_struct@_builtIn@@@Z 
01:00029858 ?setWantReturn@editControl@@SAXQAV1@@@Z 
01:0002986C ?setWantReturn@editControl@@SAXQAV1@@PAUboolean_struct@_builtIn@@@Z 
01:00029888 ?_getWantReturn@editControl@@SAXQAV1@@PAPAUboolean_struct@_builtIn@@@Z 
01:000298A4 ?setPassword@editControl@@SAXQAV1@@@Z 
01:000298B8 ?setPassword@editControl@@SAXQAV1@@PAUboolean_struct@_builtIn@@@Z 
01:000298D4 ?_getPassword@editControl@@SAXQAV1@@PAPAUboolean_struct@_builtIn@@@Z 
01:000298F0 ?setHideSel@editControl@@SAXQAV1@@@Z 
01:00029904 ?setHideSel@editControl@@SAXQAV1@@PAUboolean_struct@_builtIn@@@Z 
01:00029934 ?_getHideSel@editControl@@SAXQAV1@@PAPAUboolean_struct@_builtIn@@@Z 
01:00029960 ?setReadOnly@editControl@@SAXQAV1@@@Z 
01:00029974 ?setReadOnly@editControl@@SAXQAV1@@PAUboolean_struct@_builtIn@@@Z 
01:000299FC ?_getReadOnly@editControl@@SAXQAV1@@PAPAUboolean_struct@_builtIn@@@Z 
01:00029A18 ?setAlignment@editControl@@SAXQAV1@@PAUalignment_struct@vpiDomains@@@Z 
01:00029AE4 ?_getAlignment@editControl@@SAXQAV1@@PAPAUalignment_struct@vpiDomains@@@Z 
01:00029B0C ?_getAlignment2@editControl@@SAXIPAPAUalignment_struct@vpiDomains@@@Z 
01:00029B40 ?setUpperCase@editControl@@SAXQAV1@@@Z 
01:00029B54 ?setUpperCase@editControl@@SAXQAV1@@PAUboolean_struct@_builtIn@@@Z 
01:00029B88 ?_getUpperCase@editControl@@SAXQAV1@@PAPAUboolean_struct@_builtIn@@@Z 
01:00029BA4 ?setLowerCase@editControl@@SAXQAV1@@@Z 
01:00029BB8 ?setLowerCase@editControl@@SAXQAV1@@PAUboolean_struct@_builtIn@@@Z 
01:00029BEC ?_getLowerCase@editControl@@SAXQAV1@@PAPAUboolean_struct@_builtIn@@@Z 
01:00029C08 ?anonymous$o0$1$setcuebanner/2np$editControl@1@SAXPAUanonymous$o0$1$setcuebanner/2np$editControlc_struct@1@@Z 
01:00029C74 ?setCueBanner@editControl@@SAXQAV1@@PB_WPAUboolean_struct@_builtIn@@@Z 
01:00029CB8 ?setCueBanner@editControl@@SAXQAV1@@PB_W@Z 
01:00029CCC ?_getCueBanner@editControl@@SAXQAV1@@PAPB_W@Z 
01:00029D28 ?limitText@editControl@@SGPBUpositive@@QAV1@@@Z 
01:00029D84 ?anonymous$o0$1$limittext/1np$editControl@1@SAXPAUanonymous$o0$1$limittext/1np$editControlc_struct@1@@Z 
01:00029DD4 ?limitText@editControl@@SGXQAV1@@PBUpositive@@@Z 
--- From 'Obj\bmcform.6A63E4AF.obj'
01:00029E24 ?_new@editControl@@SAXQAVcontainerWindow@@@PAPAV1@@@Z 
--- From 'Obj\controls.363FB18E.obj'
01:00029E4C ?_new@editControl@@SAXPAPAV1@@@Z 
01:00029E74 ?_newWindowClass@editControl@@SAXPB_WPAPAV1@@@Z  (Idle)
01:00029E9C ?_object_facts_initializer@editControl@@SGXQAV1@@@Z 
01:00029EBC ?raise_noSelectedRadioButtonException_explicit@control_exception@@SAXPAUprogramPoint_struct@core@@@Z 
01:00029ED8 ?raise_wrongRadioButtonException_explicit@control_exception@@SAXPAUprogramPoint_struct@core@@QAVradioButton@@@@Z 
01:00029F5C ?raise_integerControlIllegalContentException_explicit@control_exception@@SAXPAUprogramPoint_struct@core@@@Z 
01:00029F78 ?raise_realControlIllegalContentException_explicit@control_exception@@SAXPAUprogramPoint_struct@core@@@Z 
01:00029F94 ?raise_minimumGreaterThanMaximumException_explicit@control_exception@@SAXPAUprogramPoint_struct@core@@PAN@Z 
01:0002A008 ?raise_maximumLessThanMinimumException_explicit@control_exception@@SAXPAUprogramPoint_struct@core@@PAN@Z 
01:0002A07C ?raise_onlyOneCancelException_explicit@control_exception@@SAXPAUprogramPoint_struct@core@@@Z  (Idle)
01:0002A098 ?new@containerControl@@SAXQAV1@@@Z  (Idle)
01:0002A178 ?new@containerControl@@SAXQAV1@@QAVcontainerWindow@@@@Z  (Idle)
01:0002A194 ?show@containerControl@@SAXQAVwindow@@@@Z 
01:0002A340 ?_tryGetControl@containerControl@@SAXQAVcontainerWindow@@@PAPAVcontrol@@@@Z 
01:0002A364 ?setContainer@containerControl@@SAXQAVcontrol@@@QAVcontainerWindow@@@@Z 
01:0002A410 ?_onControlEraseBackground@containerControl@@SAXQAV1@@QAVwindow@@@QAVwindowGDI@@@PAPAUeraseBackgroundResponse_struct@3@@Z 
01:0002A418 ?_onControlNative@containerControl@@SAXQAV1@@QAVwindow@@@IPBUwParam@@PBUlParam@@PAPAUnativeResponse_struct@3@@Z 
01:0002A5A8 ?_validate@containerControl@@SAXQAVcontrol@@@PAPAUvalidateResult_struct@2@@Z 
01:0002A618 ?_new@containerControl@@SAXQAVcontainerWindow@@@PAPAV1@@@Z  (Idle)
01:0002A640 ?_new@containerControl@@SAXPAPAV1@@@Z  (Idle)
01:0002A668 ?_object_facts_initializer@containerControl@@SGXQAV1@@@Z 
01:0002A680 ?new@checkButton@@SAXQAV1@@QAVcontainerWindow@@@@Z  (Idle)
01:0002A69C ?anonymous$o0$1$new/0np$checkButton@1@SAXPAUanonymous$o0$1$new/0np$checkButtonc_struct@1@@Z 
01:0002A6C8 ?new@checkButton@@SAXQAV1@@@Z 
01:0002A75C ?setOuterRect@checkButton@@SAXQAVwindow@@@PAUrct_struct@vpiDomains@@@Z 
01:0002A794 ?setAlignBaseline@checkButton@@SAXQAV1@@PAUboolean_struct@_builtIn@@@Z 
01:0002A7D4 ?_getAlignBaseline@checkButton@@SAXQAV1@@PAPAUboolean_struct@_builtIn@@@Z 
01:0002A7E8 ?defaultClickResponder@checkButton@@SAXQAV1@@@Z 
01:0002A7F0 ?setClickResponder@checkButton@@SAXQAV1@@X@Z 
01:0002A804 ?_getClickResponder@checkButton@@SAXQAV1@@PAX@Z 
01:0002A818 ?resetClickResponder@checkButton@@SAXQAV1@@@Z 
01:0002A82C ?addStateChangedListener@checkButton@@SAXQAV1@@X@Z 
01:0002A854 ?removeStateChangedListener@checkButton@@SAXQAV1@@X@Z 
01:0002A91C ?click@checkButton@@SAXQAV1@@@Z  (Idle)
01:0002A988 ?dispatchStateChanged@checkButton@@SAXQAV1@@PAUstate_struct@1@1@Z 
01:0002AA1C ?_dispatchNotification@checkButton@@SAXQAVcontrol@@@PBUunsigned16@@PAPAUnativeResponse_struct@window@@@Z 
01:0002AA4C ?_getCheckedState@checkButton@@SAXQAV1@@PAPAUstate_struct@1@@Z 
01:0002AB34 ?setCheckedState@checkButton@@SAXQAV1@@PAUstate_struct@1@@Z 
01:0002AB9C ?stateTable@checkButton@@SAXPAUstate_struct@1@PAI@Z 
01:0002ABD0 ?setChecked@checkButton@@SAXQAV1@@PAUboolean_struct@_builtIn@@@Z 
01:0002ABFC ?_getChecked@checkButton@@SAXQAV1@@PAPAUboolean_struct@_builtIn@@@Z 
01:0002AC3C ?setStyle@checkButton@@SAXQAV1@@PAUboolean_struct@_builtIn@@1@Z 
01:0002ACB8 ?getStyle@checkButton@@SAXQAV1@@PAPAUboolean_struct@_builtIn@@1@Z 
01:0002AD50 ?buttonStyleTable@checkButton@@SAXPAUboolean_struct@_builtIn@@0PAI@Z 
01:0002ADA0 ?setAuto@checkButton@@SAXQAV1@@@Z 
01:0002ADB4 ?setAuto@checkButton@@SAXQAV1@@PAUboolean_struct@_builtIn@@@Z 
01:0002ADE0 ?_getAuto@checkButton@@SAXQAV1@@PAPAUboolean_struct@_builtIn@@@Z 
01:0002AE00 ?setLeftText@checkButton@@SAXQAV1@@@Z 
01:0002AE14 ?setLeftText@checkButton@@SAXQAV1@@PAUboolean_struct@_builtIn@@@Z 
01:0002AE88 ?_getLeftText@checkButton@@SAXQAV1@@PAPAUboolean_struct@_builtIn@@@Z 
--- From 'Obj\scilexersupport.81F1978C.obj'
01:0002AEA4 ?_new@checkButton@@SAXQAVcontainerWindow@@@PAPAV1@@@Z 
--- From 'Obj\controls.363FB18E.obj'
01:0002AECC ?_new@checkButton@@SAXPAPAV1@@@Z  (Idle)
01:0002AEF4 ?stateTable@checkButton@@SAXPAPAUstate_struct@1@I@Z 
01:0002AF34 ?buttonStyleTable@checkButton@@SAXPAPAUboolean_struct@_builtIn@@0I@Z 
01:0002AFB8 ?_object_facts_initializer@checkButton@@SGXQAV1@@@Z 
01:0002AFDC ?new@button@@SAXQAV1@@QAVcontainerWindow@@@@Z  (Idle)
01:0002AFF8 ?new@button@@SAXQAV1@@@Z 
01:0002B050 ?anonymous$o0$1$newok/1np$button@1@SAXPAUanonymous$o0$1$newok/1np$buttonc_struct@1@QAVwindow@@@PBUlParam@@@Z 
01:0002B0E0 ?newOk@button@@SAXQAV1@@QAVcontainerWindow@@@@Z  (Idle)
01:0002B15C ?newCancel@button@@SAXQAV1@@QAVcontainerWindow@@@@Z  (Idle)
01:0002B1DC ?show@button@@SAXQAVwindow@@@@Z 
01:0002B2B0 ?anonymous$o0$1$defaultheight/1np$button@1@SAXPAUanonymous$o0$1$defaultheight/1np$buttonc_struct@1@@Z 
01:0002B2D0 ?defaultHeight@button@@SGXQAV1@@PAUboolean_struct@_builtIn@@@Z 
01:0002B324 ?defaultHeight@button@@SGPAUboolean_struct@_builtIn@@QAV1@@@Z 
01:0002B364 ?onCancelButtonDestroy@button@@SAXQAV1@@QAVwindow@@@@Z 
01:0002B418 ?_getClickResponder@button@@SAXQAV1@@PAX@Z 
01:0002B42C ?setClickResponder@button@@SAXQAV1@@X@Z 
01:0002B440 ?resetClickResponder@button@@SAXQAV1@@@Z 
01:0002B454 ?_defaultClickResponder@button@@SAXQAV1@@PAPAUactionResponse_struct@1@@Z 
01:0002B468 ?click@button@@SAXQAV1@@@Z 
01:0002B5AC ?_dispatchNotification@button@@SAXQAVcontrol@@@PBUunsigned16@@PAPAUnativeResponse_struct@window@@@Z 
01:0002B5DC ?setValidateOnClick@button@@SAXQAV1@@@Z 
01:0002B5F0 ?setValidateOnClick@button@@SAXQAV1@@PAUboolean_struct@_builtIn@@@Z 
01:0002B604 ?_getValidateOnClick@button@@SAXQAV1@@PAPAUboolean_struct@_builtIn@@@Z 
01:0002B618 ?setImageList@button@@SAXQAV1@@QAVimageList@@@@Z 
01:0002B640 ?anonymous$o0$1$setimagelist/6np$button@1@SAXPAUanonymous$o0$1$setimagelist/6np$buttonc_struct@1@@Z 
01:0002B6A8 ?setImageList@button@@SAXQAV1@@QAVimageList@@@HHHHPAUimageAlign_struct@1@@Z 
01:0002B760 ?_toAlignNative@button@@SAXPAUimageAlign_struct@1@AAUbutton_imageList_align@gui_native@@@Z 
--- From 'Obj\bmcform.6A63E4AF.obj'
01:0002B7A4 ?_new@button@@SAXQAVcontainerWindow@@@PAPAV1@@@Z 
--- From 'Obj\controls.363FB18E.obj'
01:0002B7CC ?_new@button@@SAXPAPAV1@@@Z  (Idle)
--- From 'Obj\aboutdialog.C4CC6B1D.obj'
01:0002B7F4 ?_newOk@button@@SAXQAVcontainerWindow@@@PAPAV1@@@Z 
--- From 'Obj\errorpresentationdialog.0BD1CEB3.obj'
01:0002B81C ?_newCancel@button@@SAXQAVcontainerWindow@@@PAPAV1@@@Z 
--- From 'Obj\controls.363FB18E.obj'
01:0002B844 ?_object_facts_initializer@button@@SGXQAV1@@@Z 
01:0002C9BC versionControl?_initObject@@@QAGXQAV1@H@Z 
01:0002C9E8 ?@create_object@versionControl@@SGQAV1@@XZ 
01:0002CA04 versionControl?_InternalFinalizer@@@QAGXQAV1@@Z 
01:0002F04C timerControl?_initObject@@@QAGXQAV1@H@Z 
01:0002F084 ?@create_object@timerControl@@SGQAV1@@XZ 
01:0002F0A0 timerControl?_InternalFinalizer@@@QAGXQAV1@@Z 
--- From 'Obj\controlsupport.BED97958.obj'
01:00031734 textControl?_initObject@@@QAGXQAV1@H@Z 
--- From 'Obj\controls.363FB18E.obj'
01:0003176C ?@create_object@textControl@@SGQAV1@@XZ 
--- From 'Obj\controlsupport.BED97958.obj'
01:00031788 textControl?_InternalFinalizer@@@QAGXQAV1@@Z 
--- From 'Obj\controls.363FB18E.obj'
01:00033DFC scrollControl?_initObject@@@QAGXQAV1@H@Z 
01:00033E28 ?@create_object@scrollControl@@SGQAV1@@XZ 
01:00033E44 scrollControl?_InternalFinalizer@@@QAGXQAV1@@Z 
01:000363FC realControl?_initObject@@@QAGXQAV1@H@Z 
01:00036440 ?@create_object@realControl@@SGQAV1@@XZ 
01:0003645C realControl?_InternalFinalizer@@@QAGXQAV1@@Z 
01:00036474 radioButtonGroup?_initObject@@@QAGXQAV1@H@Z 
01:0003648C ?@create_object@radioButtonGroup@@SGQAV1@@XZ 
01:000364A8 radioButtonGroup?_InternalFinalizer@@@QAGXQAV1@@Z 
01:00038B3C radioButton?_initObject@@@QAGXQAV1@H@Z 
01:00038B74 ?@create_object@radioButton@@SGQAV1@@XZ 
01:00038B90 radioButton?_InternalFinalizer@@@QAGXQAV1@@Z 
01:0003C918 listEdit?_initObject@@@QAGXQAV1@H@Z 
01:0003C950 ?@create_object@listEdit@@SGQAV1@@XZ 
01:0003C96C listEdit?_InternalFinalizer@@@QAGXQAV1@@Z 
01:00040764 listButton?_initObject@@@QAGXQAV1@H@Z 
01:0004079C ?@create_object@listButton@@SGQAV1@@XZ 
01:000407B8 listButton?_InternalFinalizer@@@QAGXQAV1@@Z 
01:00044544 listBox?_initObject@@@QAGXQAV1@H@Z 
01:00044570 ?@create_object@listBox@@SGQAV1@@XZ 
01:0004458C listBox?_InternalFinalizer@@@QAGXQAV1@@Z 
01:00046B34 integerControl?_initObject@@@QAGXQAV1@H@Z 
01:00046B78 ?@create_object@integerControl@@SGQAV1@@XZ 
01:00046B94 integerControl?_InternalFinalizer@@@QAGXQAV1@@Z 
01:00048234 iconControl?_initObject@@@QAGXQAV1@H@Z 
01:00048288 ?@create_object@iconControl@@SGQAV1@@XZ 
01:000482A4 iconControl?_InternalFinalizer@@@QAGXQAV1@@Z 
01:0004B61C groupBox?_initObject@@@QAGXQAV1@H@Z 
01:0004B650 ?@create_object@groupBox@@SGQAV1@@XZ 
01:0004B66C groupBox?_InternalFinalizer@@@QAGXQAV1@@Z 
01:0004EC98 editControl?_initObject@@@QAGXQAV1@H@Z 
01:0004ECD0 ?@create_object@editControl@@SGQAV1@@XZ 
01:0004ECEC editControl?_InternalFinalizer@@@QAGXQAV1@@Z 
01:000513C0 containerControl?_initObject@@@QAGXQAV1@H@Z 
01:00051420 ?@create_object@containerControl@@SGQAV1@@XZ 
01:0005143C containerControl?_InternalFinalizer@@@QAGXQAV1@@Z 
01:00053AE8 checkButton?_initObject@@@QAGXQAV1@H@Z 
01:00053B20 ?@create_object@checkButton@@SGQAV1@@XZ 
01:00053B3C checkButton?_InternalFinalizer@@@QAGXQAV1@@Z 
01:000561DC button?_initObject@@@QAGXQAV1@H@Z 
01:00056214 ?@create_object@button@@SGQAV1@@XZ 
01:00056230 button?_InternalFinalizer@@@QAGXQAV1@@Z 
--- From 'Obj\splittercontrol.3D396B1A.obj'
01:00056240 ?new@userControlSupport@@SAXQAV1@@@Z 
--- From 'Obj\scilexersupport.81F1978C.obj'
01:0005632C ?new@userControlSupport@@SAXQAV1@@QAVcontainerWindow@@@@Z 
--- From 'Obj\controlsupport.BED97958.obj'
01:00056348 ?_onControlNative@userControlSupport@@SAXQAV1@@QAVwindow@@@IPBUwParam@@PBUlParam@@PAPAUnativeResponse_struct@3@@Z 
01:00056600 ?redirectEditEvents@userControlSupport@@SAXQAV1@@QAVcontrol@@@@Z 
01:00056628 ?redirectTextEvents@userControlSupport@@SAXQAV1@@QAVcontrol@@@@Z 
01:00056650 ?_anonymous$o0$1$getdlgcode/0nf$userControlSupport@1@SAXPAUkeyHook_struct@1@IPAI@Z 
01:00056680 ?_getDlgCode@userControlSupport@@SAXQAV1@@PAI@Z 
01:000566C8 ?_mapKeyHook@userControlSupport@@SAXPAUkeyHook_struct@1@PAI@Z 
01:00056710 ?show@userControlSupport@@SAXQAVwindow@@@@Z 
01:00056914 ?onBackgroundGetFocus@userControlSupport@@SAXQAV1@@QAVwindow@@@@Z 
01:00056934 ?_getDrawWindow@userControlSupport@@SAXQAV1@@PAPAVwindow@@@@Z 
01:00056958 ?setContainer@userControlSupport@@SAXQAVcontrol@@@QAVcontainerWindow@@@@Z 
01:000569F0 ?addToParentContainer@userControlSupport@@SAXQAV1@@QAVcontainerWindow@@@@Z 
01:00056A30 ?_tryGetControl@userControlSupport@@SAXQAVcontainerWindow@@@PAPAVcontrol@@@@Z 
01:00056A54 ?_validate@userControlSupport@@SAXQAVcontrol@@@PAPAUvalidateResult_struct@2@@Z 
01:00056AC4 ?_onControlEraseBackground@userControlSupport@@SAXQAV1@@QAVwindow@@@QAVwindowGDI@@@PAPAUeraseBackgroundResponse_struct@3@@Z 
01:00056ACC ?setHorizontalScroll@userControlSupport@@SAXQAVcontrol@@@@Z 
01:00056AE0 ?setHorizontalScroll@userControlSupport@@SAXQAVcontrol@@@PAUboolean_struct@_builtIn@@@Z 
01:00056B40 ?_getHorizontalScroll@userControlSupport@@SAXQAVcontrol@@@PAPAUboolean_struct@_builtIn@@@Z 
01:00056B54 ?setVerticalScroll@userControlSupport@@SAXQAVcontrol@@@@Z 
01:00056B68 ?setVerticalScroll@userControlSupport@@SAXQAVcontrol@@@PAUboolean_struct@_builtIn@@@Z 
01:00056BC8 ?_getVerticalScroll@userControlSupport@@SAXQAVcontrol@@@PAPAUboolean_struct@_builtIn@@@Z 
01:00056BDC ?setTransparent@userControlSupport@@SAXQAVcontrol@@@@Z 
01:00056BF0 ?setTransparent@userControlSupport@@SAXQAVcontrol@@@PAUboolean_struct@_builtIn@@@Z 
01:00056C50 ?_getTransparent@userControlSupport@@SAXQAVcontrol@@@PAPAUboolean_struct@_builtIn@@@Z 
01:00056C64 ?setBorder@userControlSupport@@SAXQAVcontrol@@@@Z 
01:00056C78 ?setBorder@userControlSupport@@SAXQAVcontrol@@@PAUboolean_struct@_builtIn@@@Z 
01:00056CD8 ?_getBorder@userControlSupport@@SAXQAVcontrol@@@PAPAUboolean_struct@_builtIn@@@Z 
--- From 'Obj\ribboncontrol.D20F9C1C.obj'
01:00056CEC ?_new@userControlSupport@@SAXQAVcontainerWindow@@@PAPAV1@@@Z 
--- From 'Obj\controlsupport.BED97958.obj'
01:00056D14 ?_new@userControlSupport@@SAXPAPAV1@@@Z  (Idle)
01:00056D3C ?_object_facts_initializer@userControlSupport@@SGXQAV1@@@Z 
01:00056D70 ?keyboardHook@userControlSupport@@SGXQAV1@@PAU?$__packedList_struct@UkeyHook@@@@@Z 
01:00056D80 ?keyboardHook@userControlSupport@@SGPAU?$__packedList_struct@UkeyHook@@@@QAV1@@@Z 
01:00056D8C ?new@nullControlSupport@@SAXQAV1@@QAVcontainerWindow@@@@Z  (Idle)
01:00056DA8 ?new@nullControlSupport@@SAXQAV1@@@Z 
--- From 'Obj\guisupport.49D10144.obj'
01:00056DD0 ?_new@nullControlSupport@@SAXQAVcontainerWindow@@@PAPAV1@@@Z 
--- From 'Obj\controlsupport.BED97958.obj'
01:00056DF8 ?_new@nullControlSupport@@SAXPAPAV1@@@Z  (Idle)
01:00056E1C ?new@listControlSupport@@SAXQAV1@@QAVcontrolSite@@@QAVcontrol@@@PB_W@Z 
01:00056EB8 ?localInitialize@listControlSupport@@SAXQAV1@@@Z 
01:00056EDC ?initSelectAt@listControlSupport@@SAXQAV1@@@Z 
01:00056F9C ?anonymous$o0$1$setmaxdropdownrows/1np$listControlSupport@1@SAXPAUanonymous$o0$1$setmaxdropdownrows/1np$listControlSupportc_struct@1@@Z 
01:000570C0 ?setMaxDropDownRows@listControlSupport@@SAXQAVlistControl@@@I@Z 
01:00057100 ?_getMaxDropDownRows@listControlSupport@@SAXQAVlistControl@@@PAI@Z 
01:00057114 ?_getDroppedState@listControlSupport@@SAXQAVlistControl@@@PAPAUboolean_struct@_builtIn@@@Z 
01:00057154 ?addRow@listControlSupport@@SAXQAVlistControl@@@PAU?$__packedList_struct@Ustring@@@@@Z 
01:0005717C ?addRowAt@listControlSupport@@SAXQAVlistControl@@@PBUpositiveOptional@@PAU?$__packedList_struct@Ustring@@@@@Z 
01:000571A4 ?addRowList@listControlSupport@@SAXQAVlistControl@@@PAU?$__packedList_struct@PAU?$__packedList_struct@Ustring@@@@@@@Z 
01:000571CC ?addRowListAt@listControlSupport@@SAXQAVlistControl@@@PBUpositiveOptional@@PAU?$__packedList_struct@PAU?$__packedList_struct@Ustring@@@@@@@Z 
01:000571F4 ?add@listControlSupport@@SAXQAVlistControl@@@PB_W@Z 
01:00057218 ?addAt@listControlSupport@@SAXQAVlistControl@@@PBUpositiveOptional@@PB_W@Z 
01:0005723C ?addList@listControlSupport@@SAXQAVlistControl@@@PAU?$__packedList_struct@Ustring@@@@@Z 
01:00057310 ?addListAt@listControlSupport@@SAXQAVlistControl@@@PBUpositiveOptional@@PAU?$__packedList_struct@Ustring@@@@@Z 
01:0005740C ?clearAll@listControlSupport@@SAXQAVlistControl@@@@Z 
01:000574EC ?delete@listControlSupport@@SAXQAVlistControl@@@PBUpositive@@@Z 
01:000575D4 ?_getAllRows@listControlSupport@@SAXQAVlistControl@@@PAPAU?$__packedList_struct@PAPAU?$__packedList_struct@Ustring@@@@@@@Z 
01:000575FC ?_getAll@listControlSupport@@SAXQAVlistControl@@@PAPAU?$__packedList_struct@Ustring@@@@@Z 
01:000576D8 ?_getCount@listControlSupport@@SAXQAVlistControl@@@PAH@Z 
01:00057794 ?_getRowAt@listControlSupport@@SAXQAVlistControl@@@PBUpositive@@PAPAU?$__packedList_struct@Ustring@@@@@Z 
01:000577C4 ?_getAt@listControlSupport@@SAXQAVlistControl@@@PBUpositive@@PAPB_W@Z 
01:000578CC ?getAllSelectedRows@listControlSupport@@SAXQAVlistControl@@@PAPAU?$__packedList_struct@PAPAU?$__packedList_struct@Ustring@@@@@@PAPAU?$__packedList_struct@Upositive@@@@@Z 
01:000578F4 ?getAllSelected@listControlSupport@@SAXQAVlistControl@@@PAPAU?$__packedList_struct@Ustring@@@@PAPAU?$__packedList_struct@Upositive@@@@@Z 
01:0005797C ?_getSelectedItems@listControlSupport@@SAXQAVlistControl@@@PAPAU?$__packedList_struct@Ustring@@@@@Z 
01:00057A00 ?_getSelectedIndices@listControlSupport@@SAXQAVlistControl@@@PAPAU?$__packedList_struct@Upositive@@@@@Z 
01:00057BB4 ?_getSelectedIndices_listbox@listControlSupport@@SAXQAV1@@PAPAU?$__packedList_struct@Upositive@@@@@Z 
01:00057C60 ?_tryGetSelectedIndex@listControlSupport@@SAXQAVlistControl@@@AAUpositive@@@Z 
01:00057CF0 ?isSelectedIndex@listControlSupport@@SAXQAVlistControl@@@PBUpositive@@@Z 
01:00057D6C ?selectAt@listControlSupport@@SAXQAVlistControl@@@PBUpositive@@PAUboolean_struct@_builtIn@@@Z 
01:00057FC0 ?suspend@listControlSupport@@SAXQAVlistControl@@@@Z 
01:00057FD4 ?resume@listControlSupport@@SAXQAVlistControl@@@@Z 
01:00057FE8 ?setRedraw@listControlSupport@@SAXQAV1@@PBUwParam@gui_native@@@Z 
01:00058040 ?_insertListAt@listControlSupport@@SAXHPAU?$__packedList_struct@Ustring@@@@1PAPAU?$__packedList_struct@U2@@@@Z 
01:0005811C ?_deleteListItem@listControlSupport@@SAXHPAU?$__packedList_struct@Ustring@@@@PAPAU?$__packedList_struct@U2@@@@Z 
01:00058190 ?addSelectionChangedListener@listControlSupport@@SAXQAVlistControl@@@X@Z 
01:000581B8 ?removeSelectionChangedListener@listControlSupport@@SAXQAVlistControl@@@X@Z 
01:00058280 ?addDelayedSelectionChangedListener@listControlSupport@@SAXQAVlistControl@@@PBUpositive@@X@Z 
01:000582C0 ?removeDelayedSelectionChangedListener@listControlSupport@@SAXQAVlistControl@@@X@Z 
01:0005838C ?dispatchSelectionChanged@listControlSupport@@SAXQAV1@@PAU?$__packedList_struct@Upositive@@@@1@Z 
01:0005865C ?onListControlTimer@listControlSupport@@SAXQAV1@@QAVwindow@@@PBUtimerHandle@@@Z 
01:0005874C ?addCloseUpListener@listControlSupport@@SAXQAVlistControl@@@X@Z 
01:00058774 ?removeCloseUpListener@listControlSupport@@SAXQAVlistControl@@@X@Z 
01:0005883C ?dispatchCloseUp@listControlSupport@@SAXQAV1@@@Z  (Idle)
01:000588C8 ?addDropDownListener@listControlSupport@@SAXQAVlistControl@@@X@Z 
01:000588F0 ?removeDropDownListener@listControlSupport@@SAXQAVlistControl@@@X@Z 
01:000589B8 ?dispatchDropDown@listControlSupport@@SAXQAV1@@@Z  (Idle)
01:00058A44 ?dispatchEvent@listControlSupport@@SAXQAVcontrol@@@PAUcontrolInfo_struct@vpiDomains@@@Z 
01:00058AC0 ?setVScroll@listControlSupport@@SAXQAVlistControl@@@@Z 
01:00058AD4 ?setVScroll@listControlSupport@@SAXQAVlistControl@@@PAUboolean_struct@_builtIn@@@Z 
01:00058B00 ?_getVScroll@listControlSupport@@SAXQAVlistControl@@@PAPAUboolean_struct@_builtIn@@@Z 
01:00058B1C ?setStaticScrollbar@listControlSupport@@SAXQAVlistControl@@@@Z 
01:00058B30 ?setStaticScrollbar@listControlSupport@@SAXQAVlistControl@@@PAUboolean_struct@_builtIn@@@Z 
01:00058B64 ?_getStaticScrollbar@listControlSupport@@SAXQAVlistControl@@@PAPAUboolean_struct@_builtIn@@@Z 
01:00058B8C ?setAllowPartialRows@listControlSupport@@SAXQAVlistControl@@@@Z 
01:00058BA0 ?setAllowPartialRows@listControlSupport@@SAXQAVlistControl@@@PAUboolean_struct@_builtIn@@@Z 
01:00058BD4 ?_getAllowPartialRows@listControlSupport@@SAXQAVlistControl@@@PAPAUboolean_struct@_builtIn@@@Z 
01:00058BFC ?setSort@listControlSupport@@SAXQAVlistControl@@@@Z 
01:00058C10 ?setSort@listControlSupport@@SAXQAVlistControl@@@PAUboolean_struct@_builtIn@@@Z 
01:00058C44 ?_getSort@listControlSupport@@SAXQAVlistControl@@@PAPAUboolean_struct@_builtIn@@@Z 
01:00058C6C ?_split_tab_list@listControlSupport@@SAXPAU?$__packedList_struct@Ustring@@@@PAPAU?$__packedList_struct@PAPAU?$__packedList_struct@U2@@@@@@Z 
01:00058CAC ?_split_tab@listControlSupport@@SAXPB_WPAPAU?$__packedList_struct@Ustring@@@@@Z 
01:00058CCC ?_concat_tab_list@listControlSupport@@SAXPAU?$__packedList_struct@PAU?$__packedList_struct@Ustring@@@@@@PAPAU?$__packedList_struct@U2@@@@Z 
01:00058D0C ?_concat_tab@listControlSupport@@SAXPAU?$__packedList_struct@Ustring@@@@PAPB_W@Z 
01:00058D2C ?style_disablenoscroll@listControlSupport@@SGIQAV1@@@Z 
01:00058D64 ?style_nointegralheight@listControlSupport@@SGIQAV1@@@Z 
01:00058D9C ?style_sort@listControlSupport@@SGIQAV1@@@Z 
01:00058DD0 ?msg_addstring@listControlSupport@@SGIQAV1@@@Z 
01:00058E08 ?msg_insertstring@listControlSupport@@SGIQAV1@@@Z 
01:00058E40 ?msg_resetcontent@listControlSupport@@SGIQAV1@@@Z 
01:00058E78 ?msg_deletestring@listControlSupport@@SGIQAV1@@@Z 
01:00058EB0 ?msg_getcount@listControlSupport@@SGIQAV1@@@Z 
01:00058EE8 ?msg_gettextlen@listControlSupport@@SGIQAV1@@@Z 
01:00058F20 ?msg_gettext@listControlSupport@@SGIQAV1@@@Z 
01:00058F58 ?_ifListBox@listControlSupport@@SAXQAV1@@QAVrTypeLibrary@TypeLibraries@RunTime@VIP@@PAXPAXPAPAX@Z 
01:00058FAC ?isListbox@listControlSupport@@SAXQAV1@@@Z 
01:00058FDC ?_new@listControlSupport@@SAXQAVcontrolSite@@@QAVcontrol@@@PB_WPAPAV1@@@Z  (Idle)
01:0005900C ?_object_facts_initializer@listControlSupport@@SGXQAV1@@@Z 
01:00059030 ?new@drawControlSupport@@SAXQAV1@@@Z  (Idle)
01:000590FC ?new@drawControlSupport@@SAXQAV1@@QAVcontainerWindow@@@@Z  (Idle)
01:00059118 ?show@drawControlSupport@@SAXQAVwindow@@@@Z 
01:000591FC ?setContainer@drawControlSupport@@SAXQAVcontrol@@@QAVcontainerWindow@@@@Z 
01:00059298 ?addToParentContainer@drawControlSupport@@SAXQAV1@@QAVcontainerWindow@@@@Z 
01:000592D8 ?redirectEditEvents@drawControlSupport@@SAXQAV1@@QAVcontrol@@@@Z 
01:00059300 ?redirectTextEvents@drawControlSupport@@SAXQAV1@@QAVcontrol@@@@Z 
01:00059328 ?_onControlEraseBackground@drawControlSupport@@SAXQAV1@@QAVwindow@@@QAVwindowGDI@@@PAPAUeraseBackgroundResponse_struct@3@@Z 
01:00059330 ?_anonymous$o0$1$getdlgcode/0nf$drawControlSupport@1@SAXPAUkeyHook_struct@1@IPAI@Z 
01:00059360 ?_getDlgCode@drawControlSupport@@SAXQAV1@@PAI@Z  (Idle)
01:000593A8 ?_mapKeyHook@drawControlSupport@@SAXPAUkeyHook_struct@1@PAI@Z 
01:000593F0 ?_onControlNative@drawControlSupport@@SAXQAV1@@QAVwindow@@@IPBUwParam@@PBUlParam@@PAPAUnativeResponse_struct@3@@Z 
01:000595A0 ?setHorizontalScroll@drawControlSupport@@SAXQAVcontrol@@@@Z 
01:000595B4 ?setHorizontalScroll@drawControlSupport@@SAXQAVcontrol@@@PAUboolean_struct@_builtIn@@@Z 
01:00059614 ?_getHorizontalScroll@drawControlSupport@@SAXQAVcontrol@@@PAPAUboolean_struct@_builtIn@@@Z 
01:00059628 ?setVerticalScroll@drawControlSupport@@SAXQAVcontrol@@@@Z 
01:0005963C ?setVerticalScroll@drawControlSupport@@SAXQAVcontrol@@@PAUboolean_struct@_builtIn@@@Z 
01:0005969C ?_getVerticalScroll@drawControlSupport@@SAXQAVcontrol@@@PAPAUboolean_struct@_builtIn@@@Z 
01:000596B0 ?setTransparent@drawControlSupport@@SAXQAVcontrol@@@@Z 
01:000596C4 ?setTransparent@drawControlSupport@@SAXQAVcontrol@@@PAUboolean_struct@_builtIn@@@Z 
01:00059724 ?_getTransparent@drawControlSupport@@SAXQAVcontrol@@@PAPAUboolean_struct@_builtIn@@@Z 
01:00059738 ?setBorder@drawControlSupport@@SAXQAVcontrol@@@@Z 
01:0005974C ?setBorder@drawControlSupport@@SAXQAVcontrol@@@PAUboolean_struct@_builtIn@@@Z 
01:000597AC ?_getBorder@drawControlSupport@@SAXQAVcontrol@@@PAPAUboolean_struct@_builtIn@@@Z 
01:000597C0 ?_new@drawControlSupport@@SAXQAVcontainerWindow@@@PAPAV1@@@Z  (Idle)
01:000597E8 ?_new@drawControlSupport@@SAXPAPAV1@@@Z  (Idle)
01:00059810 ?_object_facts_initializer@drawControlSupport@@SGXQAV1@@@Z 
01:0005983C ?keyboardHook@drawControlSupport@@SGXQAV1@@PAU?$__packedList_struct@UkeyHook@@@@@Z 
01:0005984C ?keyboardHook@drawControlSupport@@SGPAU?$__packedList_struct@UkeyHook@@@@QAV1@@@Z 
--- From 'Obj\listviewcontrol.85E99595.obj'
01:00059858 ?new@controlSupport@@SAXQAV1@@QAVcontrolSite@@@QAVcontrol@@@@Z 
--- From 'Obj\controlsupport.BED97958.obj'
01:00059924 ?newId@controlSupport@@SAXQAV1@@QAVcontrolSite@@@QAVcontrol@@@H@Z  (Idle)
01:0005994C ?dispatchEvent@controlSupport@@SAXQAV1@@PAUcontrolInfo_struct@vpiDomains@@@Z 
01:00059954 ?_dispatchNotification@controlSupport@@SAXQAV1@@PBUunsigned16@@PAPAUnativeResponse_struct@window@@@Z 
01:00059968 ?_dispatchWmNotify@controlSupport@@SAXQAV1@@IPAUnmhdr_struct@gui_native@@PAPAUnativeResponse_struct@window@@@Z 
01:0005997C ?_getContainer@controlSupport@@SAXQAV1@@PAPAVcontainerWindow@@@@Z 
01:000599C0 ?_tryGetContainer@controlSupport@@SAXQAV1@@PAPAVcontainerWindow@@@@Z 
01:000599E4 ?setContainer@controlSupport@@SAXQAV1@@QAVcontainerWindow@@@@Z 
01:00059AF4 ?resetContainer@controlSupport@@SAXQAV1@@@Z 
01:00059C78 ?_getCtrlId@controlSupport@@SAXQAV1@@PAH@Z 
01:00059C8C ?setCtrlId@controlSupport@@SAXQAV1@@H@Z 
01:00059CD4 ?setRect@controlSupport@@SAXQAV1@@PAUrct_struct@vpiDomains@@@Z 
01:00059D48 ?_getRect@controlSupport@@SAXQAV1@@PAPAUrct_struct@vpiDomains@@@Z 
01:00059D5C ?setPosition@controlSupport@@SAXQAV1@@PAUpnt_struct@vpiDomains@@@Z 
01:00059DDC ?setPosition@controlSupport@@SAXQAV1@@HH@Z 
01:00059E08 ?_getPosition@controlSupport@@SAXQAV1@@PAPAUpnt_struct@vpiDomains@@@Z 
01:00059E54 ?getPosition@controlSupport@@SAXQAV1@@PAHPAH@Z 
01:00059E80 ?setSize@controlSupport@@SAXQAV1@@HH@Z 
01:00059EF8 ?getSize@controlSupport@@SAXQAV1@@PAHPAH@Z 
01:00059F40 ?setWidth@controlSupport@@SAXQAV1@@H@Z 
01:00059F68 ?_getWidth@controlSupport@@SAXQAV1@@PAH@Z 
01:00059F88 ?setHeight@controlSupport@@SAXQAV1@@H@Z 
01:00059FB8 ?_getHeight@controlSupport@@SAXQAV1@@PAH@Z 
01:00059FD8 ?setFocus@controlSupport@@SAXQAV1@@@Z 
01:0005A07C ?isActive@controlSupport@@SAXQAV1@@@Z 
01:0005A170 ?_getParent_nd@controlSupport@@SAXPBUwindowHandle@vpiDomains@@AAU23@@Z 
01:0005A1EC ?onControlSize@controlSupport@@SAXQAV1@@QAVwindow@@@@Z 
01:0005A1F8 ?onControlMove@controlSupport@@SAXQAV1@@QAVwindow@@@@Z 
01:0005A204 ?onDestroy@controlSupport@@SAXQAV1@@QAVwindow@@@@Z 
01:0005A220 ?updateControlUnitRect@controlSupport@@SAXQAV1@@@Z 
01:0005A2F0 ?updateLayout@controlSupport@@SAXQAV1@@@Z 
01:0005A408 ?updateCtlLayout@controlSupport@@SAXQAVcontrol@@@PAUdockStyle_struct@2@PAUrct_struct@vpiDomains@@2@Z 
01:0005A5B4 ?setTabStop@controlSupport@@SAXQAV1@@@Z 
01:0005A5C8 ?setTabStop@controlSupport@@SAXQAV1@@PAUboolean_struct@_builtIn@@@Z 
01:0005A6C0 ?_getTabStop@controlSupport@@SAXQAV1@@PAPAUboolean_struct@_builtIn@@@Z 
01:0005A724 ?addValidateResponder@controlSupport@@SAXQAV1@@X@Z 
01:0005A74C ?removeValidateResponder@controlSupport@@SAXQAV1@@X@Z 
01:0005A814 ?_validate@controlSupport@@SAXQAV1@@PAPAUvalidateResult_struct@control@@@Z 
01:0005A8BC ?tryValidateWithErrorDialog@controlSupport@@SAXQAV1@@@Z 
01:0005A94C ?setLabel@controlSupport@@SAXQAV1@@PB_W@Z 
01:0005A960 ?_getLabel@controlSupport@@SAXQAV1@@PAPB_W@Z 
01:0005A9A4 ?tooltipText@controlSupport@@SGPAUtipText_struct@toolTip@@QAV1@@@Z 
01:0005A9BC ?anonymous$o0$1$tooltiptext/1np$controlSupport@1@SAXPAUanonymous$o0$1$tooltiptext/1np$controlSupportc_struct@1@@Z 
01:0005AA34 ?tooltipText@controlSupport@@SGXQAV1@@PAUtipText_struct@toolTip@@@Z 
01:0005AA90 ?_findTooltip@controlSupport@@SAXQAV1@@PAPAVcontrolTooltip@@@@Z 
01:0005AB14 ?setAnchors@controlSupport@@SAXQAV1@@PAU?$__packedList_struct@UanchorEdge@@@@@Z 
01:0005ABD0 ?dockStyle@controlSupport@@SGXQAV1@@PAUdockStyle_struct@control@@@Z 
01:0005ACB0 ?dockStyle@controlSupport@@SGPAUdockStyle_struct@control@@QAV1@@@Z 
01:0005ACC8 ?checkSizeListener@controlSupport@@SAXQAV1@@@Z 
01:0005AE40 ?removeSizeListener@controlSupport@@SAXQAV1@@@Z 
01:0005AECC ?resetAnchorSize@controlSupport@@SAXQAV1@@@Z 
01:0005AEE8 ?_tryDetermineUnitSize@controlSupport@@SAXQAVcontainerWindow@@@PAPAUtuple_struct@core@@PAHPAH@Z 
01:0005AFB0 ?onParentContainerSize@controlSupport@@SAXQAV1@@QAVwindow@@@@Z 
01:0005B16C ?anchorToContainer@controlSupport@@SAXQAV1@@PAUboolean_struct@_builtIn@@1PAUanchorDimension_struct@1@HHHPAHPAH@Z 
01:0005B280 ?_getPreviousReminder@controlSupport@@SAXQAV1@@PAUanchorDimension_struct@1@PAH@Z 
01:0005B2A8 ?fixPreviousReminder@controlSupport@@SAXQAV1@@PAUanchorDimension_struct@1@H@Z 
01:0005B2CC ?exploreAnchorList@controlSupport@@SAXPAU?$__packedList_struct@UanchorEdge@control@@@@PAUboolean_struct@_builtIn@@111PAPAU45@555@Z 
01:0005B360 ?_getAnchors@controlSupport@@SAXQAV1@@PAPAU?$__packedList_struct@UanchorEdge@@@@@Z 
01:0005B4B0 ?_controlEraseBackground@controlSupport@@SAXQAV1@@QAVwindow@@@QAVwindowGDI@@@PAPAUeraseBackgroundResponse_struct@3@@Z 
01:0005B520 ?controlEraseBackgroundRect@controlSupport@@SAXQAV1@@PBUhDC@gui_native@@PAUrct_struct@vpiDomains@@@Z 
01:0005B5D0 ?_selectControlColorBrush@controlSupport@@SAXQAV1@@PBUhDC@gui_native@@IHAAUcontrolColorCookie@@@Z 
01:0005B650 ?restoreControlColorBrush@controlSupport@@SAXQAV1@@PBUhDC@gui_native@@PBUcontrolColorCookie@@@Z 
01:0005B670 ?setBorder@controlSupport@@SAXQAV1@@@Z 
01:0005B684 ?setBorder@controlSupport@@SAXQAV1@@PAUboolean_struct@_builtIn@@@Z 
01:0005B770 ?_getBorder@controlSupport@@SAXQAV1@@PAPAUboolean_struct@_builtIn@@@Z 
01:0005B8A8 ?setTransparent@controlSupport@@SAXQAV1@@@Z 
01:0005B8B0 ?setTransparent@controlSupport@@SAXQAV1@@PAUboolean_struct@_builtIn@@@Z 
01:0005B8B8 ?_getTransparent@controlSupport@@SAXQAV1@@PAPAUboolean_struct@_builtIn@@@Z 
01:0005B8CC ?setHorizontalScroll@controlSupport@@SAXQAV1@@@Z 
01:0005B8D4 ?setHorizontalScroll@controlSupport@@SAXQAV1@@PAUboolean_struct@_builtIn@@@Z 
01:0005B8DC ?_getHorizontalScroll@controlSupport@@SAXQAV1@@PAPAUboolean_struct@_builtIn@@@Z 
01:0005B8F0 ?setVerticalScroll@controlSupport@@SAXQAV1@@@Z 
01:0005B8F8 ?setVerticalScroll@controlSupport@@SAXQAV1@@PAUboolean_struct@_builtIn@@@Z 
01:0005B900 ?_getVerticalScroll@controlSupport@@SAXQAV1@@PAPAUboolean_struct@_builtIn@@@Z 
01:0005B914 ?_new@controlSupport@@SAXQAVcontrolSite@@@QAVcontrol@@@PAPAV1@@@Z  (Idle)
01:0005B940 ?_newId@controlSupport@@SAXQAVcontrolSite@@@QAVcontrol@@@HPAPAV1@@@Z  (Idle)
01:0005B970 ?_object_facts_initializer@controlSupport@@SGXQAV1@@@Z 
01:0005B9B8 ?publicSelf@controlSupport@@SGXQAV1@@QAVcontrol@@@@Z 
01:0005B9C8 ?publicSelf@controlSupport@@SGQAVcontrol@@@QAV1@@@Z 
01:0005B9D4 ?toolTip@controlSupport@@SGXQAV1@@PAUoptional_struct@core@@QAVcontrolTooltip@@@@Z 
01:0005B9E4 ?toolTip@controlSupport@@SGPAUoptional_struct@core@@QAVcontrolTooltip@@@QAV1@@@Z 
--- From 'Obj\statusbarcontrol.5D8188C3.obj'
01:0005B9F0 ?new@commonControlSupport@@SAXQAV1@@QAVcontrolSite@@@QAVcontrol@@@PB_W@Z 
--- From 'Obj\controlsupport.BED97958.obj'
01:0005BA14 ?_createWindowEx@commonControlSupport@@SAXQAV1@@AAUhwnd@@@Z 
01:0005BB9C ?show@commonControlSupport@@SAXQAVwindow@@@@Z 
01:0005BBC4 ?_sendMessageIfShown@commonControlSupport@@SAXQAV1@@IPBUwParam@gui_native@@PBUlParam@4@AAUlResult@4@@Z 
01:0005BC28 ?setBorder@commonControlSupport@@SAXQAVcontrol@@@@Z 
01:0005BC3C ?setBorder@commonControlSupport@@SAXQAVcontrol@@@PAUboolean_struct@_builtIn@@@Z 
01:0005BC68 ?_getBorder@commonControlSupport@@SAXQAVcontrol@@@PAPAUboolean_struct@_builtIn@@@Z 
01:0005BC84 ?setTabStop@commonControlSupport@@SAXQAVcontrol@@@PAUboolean_struct@_builtIn@@@Z 
01:0005BCB0 ?_getTabStop@commonControlSupport@@SAXQAVcontrol@@@PAPAUboolean_struct@_builtIn@@@Z 
01:0005BCCC ?setVisible@commonControlSupport@@SAXQAVwindow@@@@Z 
01:0005BCE0 ?setVisible@commonControlSupport@@SAXQAVwindow@@@PAUboolean_struct@_builtIn@@@Z 
01:0005BD88 ?_getVisible@commonControlSupport@@SAXQAVwindow@@@PAPAUboolean_struct@_builtIn@@@Z 
01:0005BDA4 ?setEnabled@commonControlSupport@@SAXQAVwindow@@@@Z 
01:0005BDB8 ?setEnabled@commonControlSupport@@SAXQAVwindow@@@PAUboolean_struct@_builtIn@@@Z 
01:0005BE40 ?_getEnabled@commonControlSupport@@SAXQAVwindow@@@PAPAUboolean_struct@_builtIn@@@Z 
01:0005BE6C ?_dispatchNotification@commonControlSupport@@SAXQAVcontrol@@@PBUunsigned16@@PAPAUnativeResponse_struct@window@@@Z 
01:0005BEA4 ?setOuterRectAlignBaseline@commonControlSupport@@SAXQAV1@@PAUrct_struct@vpiDomains@@PAUboolean_struct@_builtIn@@HH@Z 
01:0005BED8 ?_rectAlignBaseline@commonControlSupport@@SAXQAV1@@PAUrct_struct@vpiDomains@@PAUboolean_struct@_builtIn@@HHPAPAU34@@Z 
01:0005BF78 ?style@commonControlSupport@@SGXQAVstyleFlagsEx@@@I@Z 
01:0005C010 ?style@commonControlSupport@@SGIQAVstyleFlagsEx@@@@Z 
01:0005C07C ?styleEx@commonControlSupport@@SGXQAVstyleFlagsEx@@@I@Z 
01:0005C0FC ?styleEx@commonControlSupport@@SGIQAVstyleFlagsEx@@@@Z 
01:0005C168 ?setStyle@commonControlSupport@@SAXQAVstyleFlagsEx@@@I@Z 
01:0005C194 ?resetStyle@commonControlSupport@@SAXQAVstyleFlagsEx@@@I@Z 
01:0005C1C8 ?setStyleMasked@commonControlSupport@@SAXQAVstyleFlagsEx@@@II@Z 
01:0005C208 ?setStyleEx@commonControlSupport@@SAXQAVstyleFlagsEx@@@I@Z 
01:0005C234 ?resetStyleEx@commonControlSupport@@SAXQAVstyleFlagsEx@@@I@Z 
01:0005C268 ?_getStyleBoolean@commonControlSupport@@SAXQAVstyleFlagsEx@@@IPAPAUboolean_struct@_builtIn@@@Z 
01:0005C2B8 ?setStyleBoolean@commonControlSupport@@SAXQAVstyleFlagsEx@@@IPAUboolean_struct@_builtIn@@@Z 
01:0005C2D4 ?_getStyleExBoolean@commonControlSupport@@SAXQAVstyleFlagsEx@@@IPAPAUboolean_struct@_builtIn@@@Z 
01:0005C324 ?setStyleExBoolean@commonControlSupport@@SAXQAVstyleFlagsEx@@@IPAUboolean_struct@_builtIn@@@Z 
01:0005C340 ?setWsflags@commonControlSupport@@SAXQAVstyleFlagsEx@@@PAU?$__packedList_struct@Uwsflag@@@@@Z 
01:0005C390 ?resetWsflags@commonControlSupport@@SAXQAVstyleFlagsEx@@@PAU?$__packedList_struct@Uwsflag@@@@@Z 
01:0005C3E0 ?setWsflag@commonControlSupport@@SAXQAVstyleFlagsEx@@@PBUwsflag@@@Z 
01:0005C46C ?resetWsflag@commonControlSupport@@SAXQAVstyleFlagsEx@@@PBUwsflag@@@Z 
01:0005C4F8 ?mapStyle@commonControlSupport@@SAXPBUwsflag@@PAI@Z 
01:0005C654 ?mapStyleEx@commonControlSupport@@SAXPBUwsflag@@PAI@Z 
01:0005C794 ?_new@commonControlSupport@@SAXQAVcontrolSite@@@QAVcontrol@@@PB_WPAPAV1@@@Z  (Idle)
01:0005C7C4 ?_object_facts_initializer@commonControlSupport@@SGXQAV1@@@Z 
01:0005C7E4 ?windowClass@commonControlSupport@@SGPB_WQAV1@@@Z 
--- From 'Obj\splittercontrol.3D396B1A.obj'
01:0005EDE4 userControlSupport?_initObject@@@QAGXQAV1@H@Z 
--- From 'Obj\controlsupport.BED97958.obj'
01:0005EE44 ?@create_object@userControlSupport@@SGQAV1@@XZ 
--- From 'Obj\splittercontrol.3D396B1A.obj'
01:0005EE60 userControlSupport?_InternalFinalizer@@@QAGXQAV1@@Z 
--- From 'Obj\controlsupport.BED97958.obj'
01:00061114 nullControlSupport?_initObject@@@QAGXQAV1@H@Z 
01:00061138 ?@create_object@nullControlSupport@@SGQAV1@@XZ 
01:00061154 nullControlSupport?_InternalFinalizer@@@QAGXQAV1@@Z 
01:00063738 listControlSupport?_initObject@@@QAGXQAV1@H@Z 
01:0006377C ?@create_object@listControlSupport@@SGQAV1@@XZ 
01:00063798 listControlSupport?_InternalFinalizer@@@QAGXQAV1@@Z 
01:00064D9C drawControlSupport?_initObject@@@QAGXQAV1@H@Z 
01:00064DF0 ?@create_object@drawControlSupport@@SGQAV1@@XZ 
01:00064E0C drawControlSupport?_InternalFinalizer@@@QAGXQAV1@@Z 
--- From 'Obj\listviewcontrol.85E99595.obj'
01:00064E2C controlSupport?_initObject@@@QAGXQAV1@H@Z 
--- From 'Obj\controlsupport.BED97958.obj'
01:00064E50 ?@create_object@controlSupport@@SGQAV1@@XZ 
--- From 'Obj\listviewcontrol.85E99595.obj'
01:00064E6C controlSupport?_InternalFinalizer@@@QAGXQAV1@@Z 
--- From 'Obj\statusbarcontrol.5D8188C3.obj'
01:000663A4 commonControlSupport?_initObject@@@QAGXQAV1@H@Z 
--- From 'Obj\controlsupport.BED97958.obj'
01:000663F0 ?@create_object@commonControlSupport@@SGQAV1@@XZ 
--- From 'Obj\statusbarcontrol.5D8188C3.obj'
01:0006640C commonControlSupport?_InternalFinalizer@@@QAGXQAV1@@Z 
--- From 'Obj\listviewcontrol.85E99595.obj'
01:00066430 ?raise_invalidItemIdException_explicit@listViewControl_exception@@SAXPAUprogramPoint_struct@core@@PBUitemId@listViewControl@@@Z  (Idle)
01:000664A4 ?raise_invalidBitmapIdException_explicit@listViewControl_exception@@SAXPAUprogramPoint_struct@core@@PAUbitmapId_struct@vpiDomains@@@Z  (Idle)
01:00066528 ?raise_invalidColumnException_explicit@listViewControl_exception@@SAXPAUprogramPoint_struct@core@@PBUpositive@@@Z  (Idle)
01:0006659C ?raise_invalidRowException_explicit@listViewControl_exception@@SAXPAUprogramPoint_struct@core@@I@Z  (Idle)
01:00066610 ?columnarray@listViewControl@@SGPAXQAV1@@@Z 
01:00066664 ?new@listViewControl@@SAXQAV1@@@Z  (Idle)
01:000666C4 ?new@listViewControl@@SAXQAV1@@QAVcontainerWindow@@@@Z  (Idle)
01:000666DC ?show@listViewControl@@SAXQAVwindow@@@@Z 
01:00066998 ?setMaxStringLength@listViewControl@@SAXQAV1@@PBUcharCount@@@Z 
01:000669AC ?_defaultEmptyText@listViewControl@@SAXPAPB_W@Z 
01:000669C0 ?_wcc_summ_list@listViewControl@@SAXPAU?$__packedList_struct@Uunsigned@@@@IPAI@Z  (Idle)
01:00066A04 ?_wcc_get_state_list@listViewControl@@SAXIPAU?$__packedList_struct@Uunsigned@@@@1PAPAU?$__packedList_struct@U2@@@@Z  (Idle)
01:00066A74 ?_lv_convert_alignment@listViewControl@@SAXPAUalignment_struct@vpiDomains@@PAH@Z  (Idle)
01:00066AA8 ?_lv_convert_alignment1@listViewControl@@SAXHPAPAUalignment_struct@vpiDomains@@@Z  (Idle)
01:00066AFC ?lv_add_column@listViewControl@@SAXQAV1@@PAUcolumn_struct@1@I@Z  (Idle)
01:00066BB0 ?lv_add_subitems@listViewControl@@SAXQAV1@@IPAU?$__packedList_struct@Ustring@@@@H@Z  (Idle)
01:00066C80 ?lv_add_item@listViewControl@@SAXQAV1@@PAUitem_struct@1@I@Z  (Idle)
01:00066E40 ?_lv_get_mouse_pos@listViewControl@@SAXQAV1@@PAPAUpnt_struct@vpiDomains@@@Z  (Idle)
01:00066E60 ?_getItemId@listViewControl@@SAXQAV1@@IAAUitemId@@@Z 
01:00066EBC ?_lv_get_SubitemText@listViewControl@@SAXQAV1@@IHPAU?$__packedList_struct@Ustring@@@@PAPAU?$__packedList_struct@U3@@@@Z  (Idle)
01:00066FB8 ?_lv_adjust_style@listViewControl@@SAXPAU?$__packedList_struct@Uunsigned@@@@PAPAU?$__packedList_struct@U2@@@@Z  (Idle)
01:00067034 ?_lv_adjust_style1@listViewControl@@SAXPAU?$__packedList_struct@Uunsigned@@@@0PAPAU?$__packedList_struct@U2@@@@Z  (Idle)
01:00067234 ?_lv_save_items_order1@listViewControl@@SAXQAV1@@HPAU?$__packedList_struct@UitemId@@@@PAPAU?$__packedList_struct@U3@@@@Z  (Idle)
01:00067310 ?lv_save_items_order@listViewControl@@SAXQAV1@@@Z  (Idle)
01:00067398 ?lv_adjust_item_index1@listViewControl@@SAXQAV1@@H@Z  (Idle)
01:00067554 ?lv_adjust_item_index@listViewControl@@SAXQAV1@@@Z  (Idle)
01:00067590 ?lv_reload_item_images@listViewControl@@SAXQAV1@@@Z  (Idle)
01:00067658 ?_lv_convert_arrange@listViewControl@@SAXPAUarrange_struct@1@PAI@Z  (Idle)
01:00067694 ?_lv_convert_relpos@listViewControl@@SAXPAUrelativepos_struct@1@PAI@Z  (Idle)
01:000676D0 ?_lv_convert_portion@listViewControl@@SAXPAUportion_struct@1@PAI@Z  (Idle)
01:0006770C ?lv_check_edit@listViewControl@@SAXQAV1@@@Z  (Idle)
01:000677B4 ?recognize_code@listViewControl@@SAXQAV1@@IPBUlParam@gui_native@@@Z  (Idle)
01:00068424 ?_tryStateChanged@listViewControl@@SAXIIIPAPAUboolean_struct@_builtIn@@@Z 
01:000684B4 ?getItemPosition@listViewControl@@SAXQAV1@@HHAAUitemId@@PAI@Z 
01:00068544 ?_getItemRow@listViewControl@@SAXQAV1@@PBUitemId@@PAI@Z 
01:000685A8 ?getItemSpacing@listViewControl@@SAXQAV1@@AAUunsigned16@@1@Z 
01:00068660 ?setItemSpacing@listViewControl@@SAXQAV1@@PBUunsigned16@@1@Z 
01:000686C8 ?_getRowItem@listViewControl@@SAXQAV1@@IAAUitemId@@@Z 
01:0006872C ?_getLvType@listViewControl@@SAXQAV1@@PAI@Z 
01:00068798 ?setLvType@listViewControl@@SAXQAV1@@I@Z 
01:0006883C ?_getStyle@listViewControl@@SAXQAV1@@PAPAU?$__packedList_struct@Uunsigned@@@@@Z 
01:000688D8 ?setStyle@listViewControl@@SAXQAV1@@PAU?$__packedList_struct@Uunsigned@@@@@Z 
01:00068A38 ?_getSel@listViewControl@@SAXQAV1@@PAPAU?$__packedList_struct@UitemId@@@@@Z 
01:00068A54 ?_getSel2@listViewControl@@SAXQAV1@@IPAPAU?$__packedList_struct@UitemId@@@@@Z 
01:00068BA8 ?_getFocus@listViewControl@@SAXQAV1@@AAUitemId@@@Z 
01:00068CBC ?_tryGetItem@listViewControl@@SAXQAV1@@PBUitemId@@PAPAUitem_struct@1@@Z 
01:00068E34 ?_getItem@listViewControl@@SAXQAV1@@PBUitemId@@PAPAUitem_struct@1@@Z 
01:00068E78 ?selectAndFocused@listViewControl@@SAXQAV1@@PBUitemId@@@Z 
01:00068F5C ?select@listViewControl@@SAXQAV1@@PAU?$__packedList_struct@UitemId@@@@PAUboolean_struct@_builtIn@@@Z 
01:00069048 ?selectAll@listViewControl@@SAXQAV1@@PAUboolean_struct@_builtIn@@@Z 
01:0006909C ?focus@listViewControl@@SAXQAV1@@PBUitemId@@PAUboolean_struct@_builtIn@@@Z 
01:00069168 ?setItem@listViewControl@@SAXQAV1@@PAUitem_struct@1@@Z 
01:00069394 ?updateItem@listViewControl@@SAXQAV1@@PAUitem_struct@1@@Z 
01:00069888 ?updateTextSubItem@listViewControl@@SAXQAV1@@PBUitemId@@HPB_W@Z 
01:00069984 ?_lv_check_HeaderFooter@listViewControl@@SAXIIIIIPAPAUcompareResult_struct@_builtIn@@@Z  (Idle)
01:00069AF8 ?_getItemColumnText@listViewControl@@SAXQAV1@@IIPAPB_W@Z 
01:00069BBC ?_lv_get_text_FromColumn@listViewControl@@SAXQAV1@@PBUitemId@@IPAPB_W@Z  (Idle)
01:00069C48 ?lv_NativeCompare@listViewControl@@SGHPBUlParam@@00@Z 
01:00069CC4 ?lv_NativeCompareEx@listViewControl@@SGHPBUlParam@@00@Z 
01:00069D64 ?_alreadyEqualCompare@listViewControl@@SAXQAV1@@PBUitemId@@1PAPAUcompareResult_struct@_builtIn@@@Z 
01:00069D78 ?_compareInvoke@listViewControl@@SAXQAV1@@PBUitemId@@1PAPAUcompareResult_struct@_builtIn@@@Z 
01:00069DB4 ?_compareInvokeEx@listViewControl@@SAXQAV1@@IIPAPAUcompareResult_struct@_builtIn@@@Z 
01:00069DF0 ?_sortingByTextCompareCallBack@listViewControl@@SAXQAV1@@IIPAPAUcompareResult_struct@_builtIn@@@Z 
01:00069E2C ?_compareItemsByTextColumn@listViewControl@@SAXQAV1@@IIIPAUorder_struct@1@PAPAUcompareResult_struct@_builtIn@@@Z 
01:00069EA4 ?_defaultCallback@listViewControl@@SAXQAV1@@PBUitemId@@1PAPAUcompareResult_struct@_builtIn@@@Z 
01:0006A0F4 ?_invertCompareResult@listViewControl@@SAXPAUcompareResult_struct@_builtIn@@PAPAU23@@Z 
01:0006A128 ?sortItems@listViewControl@@SAXQAV1@@X@Z 
01:0006A198 ?sortItemIdxs@listViewControl@@SAXQAV1@@X@Z 
01:0006A208 ?sortItems@listViewControl@@SAXQAV1@@PAUorder_struct@1@I@Z 
01:0006A2B8 ?sortItems@listViewControl@@SAXQAV1@@PAUorder_struct@1@III@Z 
01:0006A36C ?deleteItem@listViewControl@@SAXQAV1@@PBUitemId@@@Z 
01:0006A524 ?insertItem@listViewControl@@SAXQAV1@@PAUitem_struct@1@@Z 
01:0006A5F0 ?insertItemList@listViewControl@@SAXQAV1@@PAU?$__packedList_struct@Uitem@@@@@Z 
01:0006A640 ?insertColumn@listViewControl@@SAXQAV1@@IPAUcolumn_struct@1@@Z 
01:0006A6C4 ?insertColumnList@listViewControl@@SAXQAV1@@IPAU?$__packedList_struct@Ucolumn@@@@@Z 
01:0006A710 ?deleteColumn@listViewControl@@SAXQAV1@@PBUpositive@@@Z 
01:0006A7AC ?_getColumn@listViewControl@@SAXQAV1@@PBUpositive@@PAPAUcolumn_struct@1@@Z 
01:0006A930 ?setColumn@listViewControl@@SAXQAV1@@PBUpositive@@PAUcolumn_struct@1@@Z 
01:0006AA28 ?setColumnWidth@listViewControl@@SAXQAV1@@IH@Z 
01:0006AA74 ?_getColumnOrder@listViewControl@@SAXQAV1@@PAPAU?$__packedList_struct@Upositive@@@@@Z 
01:0006ABAC ?setColumnOrder@listViewControl@@SAXQAV1@@PAU?$__packedList_struct@Upositive@@@@@Z 
01:0006ACA8 ?columnCount@listViewControl@@SGHQAV1@@@Z 
01:0006ACC4 ?_getItemText@listViewControl@@SAXQAV1@@IPAPB_W@Z  (Idle)
01:0006AD98 ?registerGroup@listViewControl@@SAXQAV1@@PBUgroupItem@@I@Z  (Idle)
01:0006AEE0 ?groupByColumn@listViewControl@@SAXQAV1@@PBUpositive@@X@Z 
01:0006B064 ?disableGroup@listViewControl@@SAXQAV1@@@Z 
01:0006B0C4 ?getColors@listViewControl@@SAXQAV1@@AAUcolor@@1@Z 
01:0006B134 ?setColors@listViewControl@@SAXQAV1@@PBUcolor@@1@Z 
01:0006B1A4 ?arrange@listViewControl@@SAXQAV1@@PAUarrange_struct@1@@Z 
01:0006B1F8 ?deleteAllItems@listViewControl@@SAXQAV1@@@Z 
01:0006B298 ?approximateViewRect@listViewControl@@SAXQAV1@@PAHPAH@Z 
01:0006B2C8 ?approximateViewRect@listViewControl@@SAXQAV1@@HHHPAHPAH@Z 
01:0006B37C ?ensureVisible@listViewControl@@SAXQAV1@@PBUitemId@@@Z 
01:0006B424 ?_getCountPerPage@listViewControl@@SAXQAV1@@PAI@Z 
01:0006B454 ?_getItemCount@listViewControl@@SAXQAV1@@PAI@Z 
01:0006B484 ?_getItemPosition@listViewControl@@SAXQAV1@@PBUitemId@@PAPAUpnt_struct@vpiDomains@@@Z 
01:0006B544 ?setItemPosition@listViewControl@@SAXQAV1@@PBUitemId@@PAUpnt_struct@vpiDomains@@@Z 
01:0006B5F4 ?_getItemRect@listViewControl@@SAXQAV1@@PBUitemId@@PAUportion_struct@1@PAPAUrct_struct@vpiDomains@@@Z 
01:0006B6DC ?_getNextItem@listViewControl@@SAXQAV1@@PBUitemId@@PAUrelativePos_struct@1@AAU3@@Z 
01:0006B7D8 ?lv_Init@listViewControl@@SAXQAV1@@IPAU?$__packedList_struct@Uunsigned@@@@@Z 
01:0006BA18 ?_interLeaved@listViewControl@@SAXQAV1@@PAUnmLvCustomDraw_struct@1@PAPAUnativeResponse_struct@window@@@Z  (Idle)
01:0006BAD8 ?_onControlNative@listViewControl@@SAXQAV1@@QAVwindow@@@IPBUwParam@@PBUlParam@@PAPAUnativeResponse_struct@3@@Z 
01:0006BB14 ?_controlNative@listViewControl@@SAXQAV1@@IPBUlParam@gui_native@@PAPAUnativeResponse_struct@window@@@Z 
01:0006BD24 ?onControlSize@listViewControl@@SAXQAV1@@QAVwindow@@@@Z 
01:0006BD80 ?stateListener@listViewControl@@SAXQAV1@@QAVwindow@@@PAUstateInfo_struct@vpiDomains@@@Z 
01:0006BE30 ?destroyListener@listViewControl@@SAXQAV1@@QAVwindow@@@@Z 
01:0006BE5C ?addGetFocusListener@listViewControl@@SAXQAVwindow@@@X@Z 
01:0006BE84 ?removeGetFocusListener@listViewControl@@SAXQAVwindow@@@X@Z 
01:0006BF4C ?addLoseFocusListener@listViewControl@@SAXQAVwindow@@@X@Z 
01:0006BF74 ?removeLoseFocusListener@listViewControl@@SAXQAVwindow@@@X@Z 
01:0006BF9C ?addReturnPressedListener@listViewControl@@SAXQAV1@@X@Z 
01:0006BFC4 ?removeReturnPressedListener@listViewControl@@SAXQAV1@@X@Z 
01:0006C08C ?addMouseClickListener@listViewControl@@SAXQAV1@@X@Z 
01:0006C0B4 ?removeMouseClickListener@listViewControl@@SAXQAV1@@X@Z 
01:0006C17C ?addMouseDblClickListener@listViewControl@@SAXQAV1@@X@Z 
01:0006C1A4 ?removeMouseDblClickListener@listViewControl@@SAXQAV1@@X@Z 
01:0006C270 ?addMouseRightClickListener@listViewControl@@SAXQAV1@@X@Z 
01:0006C298 ?removeMouseRightClickListener@listViewControl@@SAXQAV1@@X@Z 
01:0006C364 ?addMouseDblRightClickListener@listViewControl@@SAXQAV1@@X@Z 
01:0006C38C ?removeMouseDblRightClickListener@listViewControl@@SAXQAV1@@X@Z 
01:0006C458 ?addSelectEndListener@listViewControl@@SAXQAV1@@X@Z 
01:0006C480 ?removeSelectEndListener@listViewControl@@SAXQAV1@@X@Z 
01:0006C54C ?addFocusListener@listViewControl@@SAXQAV1@@X@Z 
01:0006C574 ?removeFocusListener@listViewControl@@SAXQAV1@@X@Z 
01:0006C640 ?addColumnClickListener@listViewControl@@SAXQAV1@@X@Z 
01:0006C668 ?removeColumnClickListener@listViewControl@@SAXQAV1@@X@Z 
01:0006C734 ?addKeyDownListener@listViewControl@@SAXQAV1@@X@Z 
01:0006C75C ?removeKeyDownListener@listViewControl@@SAXQAV1@@X@Z 
01:0006C828 ?setSelectBeginResponder@listViewControl@@SAXQAV1@@X@Z 
01:0006C83C ?setCheckResponder@listViewControl@@SAXQAV1@@X@Z 
01:0006C850 ?_getSelectBeginResponder@listViewControl@@SAXQAV1@@PAX@Z 
01:0006C868 ?resetSelectBeginResponder@listViewControl@@SAXQAV1@@@Z 
01:0006C880 ?setEditBeginResponder@listViewControl@@SAXQAV1@@X@Z 
01:0006C894 ?_getEditBeginResponder@listViewControl@@SAXQAV1@@PAX@Z 
01:0006C8AC ?resetEditBeginResponder@listViewControl@@SAXQAV1@@@Z 
01:0006C8C4 ?setEditEndResponder@listViewControl@@SAXQAV1@@X@Z 
01:0006C8D8 ?_getEditEndResponder@listViewControl@@SAXQAV1@@PAX@Z 
01:0006C8F0 ?resetEditEndResponder@listViewControl@@SAXQAV1@@@Z 
01:0006C908 ?_defaultSelectBeginResponder@listViewControl@@SAXQAV1@@PBUitemId@@PAUboolean_struct@_builtIn@@PAPAUselectBeginResponse_struct@1@@Z 
01:0006C91C ?_defaultEditBeginResponder@listViewControl@@SAXQAV1@@PBUitemId@@PAPAUeditBeginResponse_struct@1@@Z 
01:0006C930 ?_defaultEditEndResponder@listViewControl@@SAXQAV1@@PBUitemId@@PB_WPAPAUeditEndResponse_struct@1@@Z 
01:0006C944 ?_sendNative@listViewControl@@SAXQAV1@@IPBUwParam@gui_native@@PBUlParam@4@AAUlResult@4@@Z 
01:0006C970 ?_getNativeWindow@listViewControl@@SAXQAV1@@AAUwindowHandle@@@Z 
01:0006C988 ?setFocus@listViewControl@@SAXQAVwindow@@@@Z 
01:0006C9A0 ?setCheckedAll@listViewControl@@SAXQAV1@@@Z 
01:0006C9BC ?setInvertCheckedAll@listViewControl@@SAXQAV1@@@Z 
01:0006CA54 ?setChecked@listViewControl@@SAXQAV1@@PAU?$__packedList_struct@UitemId@@@@@Z 
01:0006CA98 ?setUncheckedAll@listViewControl@@SAXQAV1@@@Z 
01:0006CAB4 ?setUnchecked@listViewControl@@SAXQAV1@@PAU?$__packedList_struct@UitemId@@@@@Z 
01:0006CAF8 ?_getChecked@listViewControl@@SAXQAV1@@PAPAU?$__packedList_struct@UitemId@@@@@Z 
01:0006CBA4 ?_getAll@listViewControl@@SAXQAV1@@PAPAU?$__packedList_struct@UitemId@@@@@Z 
01:0006CC28 ?_getItemCheckState@listViewControl@@SAXQAV1@@PBUitemId@@PAPAUboolean_struct@_builtIn@@@Z 
01:0006CCD0 ?_getItemCheckState1@listViewControl@@SAXQAV1@@IAAUbooleanInt@@@Z 
01:0006CD60 ?setItemCheckState@listViewControl@@SAXQAV1@@PBUitemId@@I@Z 
01:0006CDEC ?setItemIdxCheckState@listViewControl@@SAXQAV1@@II@Z 
01:0006CE78 ?invalidate@listViewControl@@SAXQAVwindow@@@@Z 
01:0006CE98 ?_sendMessageItem@listViewControl@@SAXQAV1@@IPBUwParam@gui_native@@PAUlv_items_struct@1@AAUlResult@4@@Z 
--- From 'Obj\ribbondesignerdlg.56B6615E.obj'
01:0006CEC4 ?_new@listViewControl@@SAXQAVcontainerWindow@@@PAPAV1@@@Z 
--- From 'Obj\listviewcontrol.85E99595.obj'
01:0006CEEC ?_new@listViewControl@@SAXPAPAV1@@@Z  (Idle)
01:0006CF14 ?_alreadyEqualCompare@listViewControl@@SAXQAV1@@IIPAPAUcompareResult_struct@_builtIn@@@Z 
01:0006CF28 ?anonymous$o0$1$destroylistener/1np$listViewControl@1@SAXQAV1@@IH@Z 
01:0006CF3C ?_object_facts_initializer@listViewControl@@SGXQAV1@@@Z 
01:0006CFEC ?emptyText@listViewControl@@SGXQAV1@@X@Z 
01:0006CFFC ?imageList@listViewControl@@SGXQAV1@@QAV0@@@Z 
01:0006D00C ?imageList@listViewControl@@SGQAV0@@QAV1@@@Z 
01:0006D02C ?nativeWindow@listViewControl@@SGPBUwindowHandle@@QAV1@@@Z 
01:0006D03C ?customDraw@listViewControl@@SGXQAV1@@PAUoptional_struct@core@@X@Z 
01:0006D04C ?customDraw@listViewControl@@SGPAUoptional_struct@core@@XQAV1@@@Z 
01:0006D058 ?dragBeginResponder@listViewControl@@SGXQAV1@@X@Z 
01:0006D06C ?dragBeginResponder@listViewControl@@SGXQAV1@@@Z 
01:0006E700 listViewControl?_initObject@@@QAGXQAV1@H@Z 
01:0006E754 ?@create_object@listViewControl@@SGQAV1@@XZ 
01:0006E770 listViewControl?_InternalFinalizer@@@QAGXQAV1@@Z 
--- From 'Obj\messagecontrol.71EAC8FF.obj'
01:0006E790 ?new_attachStdio@messageForm@@SAXQAV1@@QAVwindow@@@@Z  (Idle)
01:0006E7D4 ?new@messageForm@@SAXQAV1@@QAVwindow@@@@Z 
01:0006E8EC ?_display@messageForm@@SAXQAVwindow@@@PAPAV1@@@Z  (Idle)
01:0006E914 ?_display_noStdioAttach@messageForm@@SAXQAVwindow@@@PAPAV1@@@Z  (Idle)
01:0006E93C ?resizeListener@messageForm@@SAXQAV1@@QAVwindow@@@@Z 
01:0006E9C4 ?onParentResize@messageForm@@SAXQAV1@@QAVwindow@@@@Z 
01:0006E9F4 ?doOnParentResize@messageForm@@SAXQAV1@@@Z 
01:0006EB30 ?resizeMessageForm@messageForm@@SAXQAV1@@PAUtuple_struct@core@@HH@Z 
01:0006EBB8 ?_calculateY@messageForm@@SAXPAUverticalSize_struct@1@HPAH@Z 
01:0006EC94 ?anonymous$o0$1$setverticalsize/1np$messageForm@1@SAXPAUanonymous$o0$1$setverticalsize/1np$messageFormc_struct@1@@Z 
01:0006ECAC ?setVerticalSize@messageForm@@SAXQAV1@@PAUverticalSize_struct@1@@Z 
01:0006ECEC ?_getVerticalSize@messageForm@@SAXQAV1@@PAPAUverticalSize_struct@1@@Z 
01:0006ED00 ?onDestroy@messageForm@@SAXQAV1@@QAVwindow@@@@Z 
01:0006EDB8 ?_getOutputStream@messageForm@@SAXQAV1@@PAPAVoutputStream@@@@Z 
01:0006EDE8 ?_getMessageControl@messageForm@@SAXQAV1@@PAPAVmessageControl@@@@Z 
01:0006EE0C ?sciLexer@messageForm@@SGQAV0@@QAV1@@@Z 
01:0006EE40 ?_new@messageForm@@SAXQAVwindow@@@PAPAV1@@@Z 
01:0006EE68 ?_new_attachStdio@messageForm@@SAXQAVwindow@@@PAPAV1@@@Z 
01:0006EE90 ?_object_facts_initializer@messageForm@@SGXQAV1@@@Z 
01:0006EEA8 ?new@messageControlOutputStreamSupport@@SAXQAV1@@QAVwindow@@@QAVoutputStream@@@@Z  (Idle)
01:0006EEC0 ?write@messageControlOutputStreamSupport@@SAXQAVoutputStream@@@@Z 
01:0006EEE0 ?writeQuoted@messageControlOutputStreamSupport@@SAXQAVoutputStream@@@@Z 
01:0006EF40 ?writeBytes@messageControlOutputStreamSupport@@SAXQAVoutputStream@@@PAXPBUbyteCount@@@Z 
01:0006EFA4 ?writef@messageControlOutputStreamSupport@@SAXQAVoutputStream@@@PB_W@Z 
01:0006EFC8 ?nl@messageControlOutputStreamSupport@@SAXQAVoutputStream@@@@Z 
01:0006EFE0 ?anonymous$o0$1$save/1np$messageControlOutputStreamSupport@1@SAXPAUanonymous$o0$1$save/1np$messageControlOutputStreamSupportc_struct@1@@Z 
01:0006F010 ?save@messageControlOutputStreamSupport@@SAXQAVoutputStream@@@PBUfactDB@@@Z 
01:0006F068 ?anonymous$o0$1$postwrite/1np$messageControlOutputStreamSupport@1@SAXPAUanonymous$o0$1$postwrite/1np$messageControlOutputStreamSupportc_struct@1@@Z 
01:0006F0AC ?postWrite@messageControlOutputStreamSupport@@SAXQAV1@@PB_W@Z 
01:0006F104 ?anonymous$o0$1$flush/0np$messageControlOutputStreamSupport@1@SAXPAUanonymous$o0$1$flush/0np$messageControlOutputStreamSupportc_struct@1@@Z 
01:0006F124 ?flush@messageControlOutputStreamSupport@@SAXQAVoutputStream@@@@Z 
01:0006F17C ?_new@messageControlOutputStreamSupport@@SAXQAVwindow@@@QAVoutputStream@@@PAPAV3@@@Z  (Idle)
01:0006F1A8 ?getPosition@messageControlOutputStreamSupport@@SGPBUfileSize@fileSystem_api@@QAVstream@@@@Z 
01:0006F1D4 ?setPosition@messageControlOutputStreamSupport@@SGXQAVstream@@@PBUfileSize@fileSystem_api@@@Z 
01:0006F1FC ?getCRLFconversion@messageControlOutputStreamSupport@@SGPAUboolean_struct@_builtIn@@QAVstream@@@@Z 
01:0006F220 ?setCRLFconversion@messageControlOutputStreamSupport@@SGXQAVstream@@@PAUboolean_struct@_builtIn@@@Z 
01:0006F244 ?close@messageControlOutputStreamSupport@@SGXQAVstream@@@@Z 
01:0006F264 ?setMode@messageControlOutputStreamSupport@@SGXQAVstream@@@PAUmode_struct@2@@Z 
01:0006F288 ?getMode@messageControlOutputStreamSupport@@SGPAUmode_struct@stream@@QAV3@@@Z 
01:0006F2AC ?allowNullPointers@messageControlOutputStreamSupport@@SGXQAVstream@@@PAUboolean_struct@_builtIn@@@Z 
01:0006F2D0 ?allowNullPointers@messageControlOutputStreamSupport@@SGPAUboolean_struct@_builtIn@@QAVstream@@@@Z 
01:0006F2F4 ?new@messageControl@@SAXQAV1@@QAVcontainerWindow@@@@Z  (Idle)
01:0006F310 ?new@messageControl@@SAXQAV1@@@Z 
01:0006F4B0 ?init@messageControl@@SAXQAV1@@@Z 
01:0006F560 ?setReadonly@messageControl@@SAXQAV1@@PAUboolean_struct@_builtIn@@@Z 
01:0006F574 ?_getOutputStream@messageControl@@SAXQAV1@@PAPAVoutputStream@@@@Z 
01:0006F598 ?setLines@messageControl@@SAXQAV1@@PBUpositive@@@Z 
01:0006F5AC ?getBuffer@messageControl@@SGXQAVbufferSupport@@@PAPAXAAUbyteCount@@@Z 
01:0006F604 ?getBufferLocked@messageControl@@SGXQAVbufferSupport@@@PAPAXAAUbyteCount@@@Z 
01:0006F620 ?bufferFullCallBack@messageControl@@SAXQAV1@@PBUbyteCount@@@Z 
01:0006F730 ?writeZero@messageControl@@SAXPAXPBUbyteCount@@@Z 
01:0006F76C ?trimLineCount@messageControl@@SAXQAV1@@@Z 
01:0006F818 ?_onControlNative@messageControl@@SAXQAV1@@QAVwindow@@@IPBUwParam@@PBUlParam@@PAPAUnativeResponse_struct@3@@Z 
01:0006FA58 ?_onContextMenu@messageControl@@SAXQAV1@@QAVwindow@@@PAUcontextMenuInput_struct@3@PAPAUcontextMenuResponse_struct@3@@Z 
01:0006FC20 ?onMenu@messageControl@@SAXQAV1@@QAVwindow@@@PBUmenuTag@@@Z 
01:0006FC80 ?clearAll@messageControl@@SAXQAV1@@@Z 
01:0006FCB8 ?sciLexer@messageControl@@SGQAV0@@QAV1@@@Z 
01:0006FCD0 ?_new@messageControl@@SAXQAVcontainerWindow@@@PAPAV1@@@Z 
01:0006FCF8 ?_new@messageControl@@SAXPAPAV1@@@Z  (Idle)
01:0006FD20 ?_object_facts_initializer@messageControl@@SGXQAV1@@@Z 
01:0006FD7C ?allowedClear@messageControl@@SGXQAV1@@PAUboolean_struct@_builtIn@@@Z 
01:0006FD8C ?allowedClear@messageControl@@SGPAUboolean_struct@_builtIn@@QAV1@@@Z 
01:0006FD98 ?outputStream@messageControl@@SGXQAV1@@QAV0@@@Z 
01:0006FDA8 ?outputStream@messageControl@@SGQAV0@@QAV1@@@Z 
01:0006FDC4 ?allowNullPointersBufferSupport@messageControl@@SGPAUboolean_struct@_builtIn@@QAVbufferSupport@@@@Z 
01:00072090 messageForm?_initObject@@@QAGXQAV1@H@Z 
01:000720D4 ?@create_object@messageForm@@SGQAV1@@XZ 
01:000720F0 messageForm?_InternalFinalizer@@@QAGXQAV1@@Z 
01:00072108 messageControlOutputStreamSupport?_initObject@@@QAGXQAV1@H@Z 
01:0007211C ?@create_object@messageControlOutputStreamSupport@@SGQAV1@@XZ 
01:00072138 messageControlOutputStreamSupport?_InternalFinalizer@@@QAGXQAV1@@Z 
01:0007980C messageControl?_initObject@@@QAGXQAV1@H@Z 
01:00079844 ?@create_object@messageControl@@SGQAV1@@XZ 
01:00079860 messageControl?_InternalFinalizer@@@QAGXQAV1@@Z 
--- From 'Obj\navigationoverlay.DB25AE7D.obj'
01:00079870 ?_anonymous$c0$1$initmdi/1np$navigationOverlay@1@SAXPAPAU?$__packedList_struct@PAPAPAUnavigationPoint_struct@window@@@@@Z 
01:00079884 ?initMDI@navigationOverlay@@SAXQAVapplicationWindow@@@@Z  (Idle)
01:000798A0 ?_anonymous$c0$1$initmdi/2np$navigationOverlay@1@SAXPAUanonymous$c0$1$initmdi/2np$navigationOverlayc_struct@1@PAPAU?$__packedList_struct@UnavigationPoint@@@@@Z 
01:000798B8 ?anonymous$c0$2$initmdi/2np$navigationOverlay@1@SAXXZ 
01:000798F0 ?anonymous$c0$3$initmdi/2np$navigationOverlay@1@SAXQAVwindow@@@@Z 
01:0007991C ?initMDI@navigationOverlay@@SAXQAVapplicationWindow@@@X@Z 
01:000799AC ?_onGetNavigationPoints@navigationOverlay@@SAXXPAPAU?$__packedList_struct@UnavigationPoint@@@@@Z 
01:00079A48 ?_anonymous$c0$1$registersdi/1np$navigationOverlay@1@SAXPAUanonymous$c0$1$registersdi/1np$navigationOverlayc_struct@1@PAPAU?$__packedList_struct@PAPAPAUnavigationPoint_struct@window@@@@@Z 
01:00079AC8 ?anonymous$c0$2$registersdi/1np$navigationOverlay@1@SAXPAUanonymous$c0$2$registersdi/1np$navigationOverlayc_struct@1@@Z 
01:00079B9C ?anonymous$c0$3$registersdi/1np$navigationOverlay@1@SAXPAUanonymous$c0$3$registersdi/1np$navigationOverlayc_struct@1@QAVwindow@@@@Z 
01:00079CA8 ?registerSDI@navigationOverlay@@SAXQAVformWindow@@@@Z  (Idle)
01:00079DB0 ?_onNative@navigationOverlay@@SAXQAVwindow@@@IPBUwParam@@PBUlParam@@PAPAUnativeResponse_struct@2@@Z 
01:00079E5C ?nextState@navigationOverlay@@SAXPAUoverlayState_struct@1@PAUoverlayEvent_struct@1@@Z  (Idle)
01:00079FE0 ?closeNavigationOverlay@navigationOverlay@@SAXXZ 
01:0007A064 ?anonymous$c0$1$delaystartoverlay/0np$navigationOverlay@1@SAXXZ 
01:0007A100 ?delayStartOverlay@navigationOverlay@@SAXXZ 
01:0007A148 ?startOverlayAndShow@navigationOverlay@@SAXXZ 
01:0007A1F0 ?startOverlay@navigationOverlay@@SAXXZ 
01:0007A3AC ?updateState@navigationOverlay@@SAXPAUoverlayEvent_struct@1@@Z  (Idle)
01:0007A3D0 ?keyboardHook@navigationOverlay@@SGIHPBUwParam@@PBUlParam@@@Z 
01:0007A520 ?_tryGetMnemonic@navigationOverlay@@SAXPB_WPAPB_W@Z  (Idle)
01:0007A560 ?anonymous$c0$1$getmenunavigationpoints/1nf$navigationOverlay@1@SAXPAUanonymous$c0$1$getmenunavigationpoints/1nf$navigationOverlayc_struct@1@@Z 
01:0007A578 ?_getMenuNavigationPoints@navigationOverlay@@SAXQAVwindow@@@PAPAU?$__packedList_struct@UnavigationPoint@@@@@Z 
01:0007A7CC ?selectMenu@navigationOverlay@@SAXPB_W@Z 
01:0007A8B8 ?_tryGetActiveForm@navigationOverlay@@SAXPAPAVwindow@@@@Z 
01:0007A9EC ?_getFormNavigationPoints@navigationOverlay@@SAXPAPAU?$__packedList_struct@UnavigationPoint@@@@@Z 
01:0007AA3C ?_anonymous$o0$1$new/0np$navigationOverlay@1@SAXQAVwindow@@@QAVwindowGDI@@@PAPAUeraseBackgroundResponse_struct@2@@Z 
01:0007AA50 ?new@navigationOverlay@@SAXQAV1@@@Z  (Idle)
01:0007ABBC ?show@navigationOverlay@@SAXQAVwindow@@@@Z 
01:0007AEEC ?onShow@navigationOverlay@@SAXQAV1@@QAVwindow@@@PBUlParam@@@Z 
01:0007AF48 ?_focusMsg@navigationOverlay@@SAXQAV1@@QAVwindow@@@IPBUwParam@@PBUlParam@@PAPAUnativeResponse_struct@3@@Z 
01:0007B134 ?onChar@navigationOverlay@@SAXQAV1@@_W@Z 
01:0007B180 ?addCommand@navigationOverlay@@SAXQAV1@@QAVwindow@@@PAUpnt_struct@vpiDomains@@PAU?$__packedList_struct@PAUtuple_struct@core@@PBUpositive@@PB_W@@PAUboolean_struct@_builtIn@@3X@Z 
01:0007B1D8 ?anonymous$o0$1$pushnavigationpoints/1np$navigationOverlay@1@SAXPAUanonymous$o0$1$pushnavigationpoints/1np$navigationOverlayc_struct@1@@Z 
01:0007B204 ?pushNavigationPoints@navigationOverlay@@SAXQAV1@@PAU?$__packedList_struct@UnavigationPoint@window@@@@@Z 
01:0007B2F8 ?anonymous$o0$1$checkcommand/0np$navigationOverlay@1@SAXXZ 
01:0007B300 ?checkCommand@navigationOverlay@@SAXQAV1@@@Z 
01:0007B4FC ?stopNavigate@navigationOverlay@@SAXQAV1@@@Z 
01:0007B5EC ?restoreFocus@navigationOverlay@@SAXQAV1@@@Z 
01:0007B6A4 ?anonymous$o0$1$escape/0np$navigationOverlay@1@SAXPAUanonymous$o0$1$escape/0np$navigationOverlayc_struct@1@@Z 
01:0007B6BC ?anonymous$o0$2$escape/0np$navigationOverlay@1@SAXXZ 
01:0007B6C4 ?escape@navigationOverlay@@SAXQAV1@@@Z 
01:0007B788 ?onOverlayMouseDown@navigationOverlay@@SAXQAVwindow@@@PAUpnt_struct@vpiDomains@@PBUkeyModifier@@H@Z 
01:0007B79C ?shortcutkey@navigationOverlay@@SGQAVmapM@@@PB_W0QAV1@@@Z 
01:0007B7E4 ?initShortcutKeys@navigationOverlay@@SAXQAV1@@@Z 
01:0007BB9C ?prefixUsed@navigationOverlay@@SAXQAVsetM@@@PB_W0@Z 
01:0007BC18 ?updateOverlay@navigationOverlay@@SAXQAV1@@@Z 
01:0007BDC4 ?_getOverlayBmp@navigationOverlay@@SAXQAV1@@HHPAPAVbitmap@@@@Z 
01:0007BFD8 ?inside@navigationOverlay@@SAXPAUrct_struct@vpiDomains@@PAUpnt_struct@3@@Z  (Idle)
01:0007C038 ?_tryGetOverlayPnt@navigationOverlay@@SAXQAV1@@QAVwindow@@@PAUpnt_struct@vpiDomains@@PAPAU45@@Z 
01:0007C240 ?drawShortcutSquare@navigationOverlay@@SAXQAV1@@QAVgraphics@@@PAUpnt_struct@vpiDomains@@PB_W@Z 
01:0007C400 ?roundCorneredRect@navigationOverlay@@SAXQAVgraphics@@@QAVpen@@@QAVbrush@@@PAUrectF_struct@gdiplus@@PAN@Z 
01:0007CED4 ?_new@navigationOverlay@@SAXPAPAV1@@@Z 
01:0007CEFC ?_object_facts_initializer@navigationOverlay@@SGXQAV1@@@Z 
01:0007DC8C navigationOverlay?_initObject@@@QAGXQAV1@H@Z 
01:0007DCCC ?@create_object@navigationOverlay@@SGQAV1@@XZ 
01:0007DCE8 navigationOverlay?_InternalFinalizer@@@QAGXQAV1@@Z 
--- From 'Obj\ribboncontrol.D20F9C1C.obj'
01:0007DD00 ?section_height@ribbonControl@@SGHQAV1@@@Z 
01:0007DD50 ?layout@ribbonControl@@SGPAU?$__packedList_struct@Usection@@@@QAV1@@@Z 
01:0007DD68 ?layout@ribbonControl@@SGXQAV1@@PAU?$__packedList_struct@Usection@@@@@Z 
01:0007DDD8 ?width@ribbonControl@@SGHQAV1@@@Z 
01:0007DE44 ?height@ribbonControl@@SGHQAV1@@@Z 
01:0007DED4 ?new@ribbonControl@@SAXQAV1@@QAVcontainerWindow@@@@Z  (Idle)
01:0007DEF0 ?anonymous$o0$1$new/0np$ribbonControl@1@SAXPAUanonymous$o0$1$new/0np$ribbonControlc_struct@1@@Z 
01:0007DF34 ?new@ribbonControl@@SAXQAV1@@@Z 
01:0007E2F8 ?_item_nd@ribbonControl@@SAXQAV1@@PAPAUitem_struct@1@@Z 
01:0007E3A0 ?_cmd_nd@ribbonControl@@SAXPAU?$__packedList_struct@Usection@@@@PAPB_W@Z  (Idle)
01:0007E44C ?_tryGetCustomControl@ribbonControl@@SAXQAV1@@PB_WPAPAVcontrol@@@@Z 
01:0007E4D0 ?setViewport@ribbonControl@@SAXQAV1@@H@Z  (Idle)
01:0007E70C ?setGraphicsViewport@ribbonControl@@SAXQAV1@@QAVgraphics@@@@Z  (Idle)
01:0007E720 ?setGraphicsViewport@ribbonControl@@SAXQAV1@@QAVgraphics@@@PAUboolean_struct@_builtIn@@@Z 
01:0007E858 ?resetGraphicsViewport@ribbonControl@@SAXQAVgraphics@@@@Z  (Idle)
01:0007E880 ?_mapPntFromViewPort@ribbonControl@@SAXQAV1@@PAUpnt_struct@vpiDomains@@PAPAU34@@Z  (Idle)
01:0007E8C8 ?_mapPntToViewPort@ribbonControl@@SAXQAV1@@PAUpnt_struct@vpiDomains@@PAPAU34@@Z  (Idle)
01:0007E910 ?_mapRctToViewPort@ribbonControl@@SAXQAV1@@PAUrct_struct@vpiDomains@@PAPAU34@@Z 
01:0007E980 ?_mapRctFromViewPort@ribbonControl@@SAXQAV1@@PAUrct_struct@vpiDomains@@PAPAU34@@Z  (Idle)
01:0007E9F0 ?_rectIIncludeBorder@ribbonControl@@SAXPAUrectI_struct@gdiplus@@PAPAU23@@Z  (Idle)
01:0007EA58 ?_rectFIncludeBorder@ribbonControl@@SAXPAUrectF_struct@gdiplus@@PAPAU23@@Z  (Idle)
01:0007EADC ?viewPortTryHandleMouseUp@ribbonControl@@SAXQAV1@@PAUpnt_struct@vpiDomains@@@Z  (Idle)
01:0007EBB8 ?calcViewPortScrollButtonRects@ribbonControl@@SAXQAV1@@PAPAUrct_struct@vpiDomains@@111@Z 
01:0007ECC4 ?viewportDrawScrollButtons@ribbonControl@@SAXQAV1@@QAVgraphics@@@@Z  (Idle)
01:0007EE60 ?isViewportScrollNeeded@ribbonControl@@SAXQAV1@@@Z 
01:0007EF3C ?startKeyboardNavigation@ribbonControl@@SAXQAV1@@@Z 
01:0007EF44 ?anonymous$o0$1$ongetnavigationpoints/0nf$ribbonControl@1@SAXPAUanonymous$o0$1$ongetnavigationpoints/0nf$ribbonControlc_struct@1@@Z 
01:0007F0E4 ?_onGetNavigationPoints@ribbonControl@@SAXQAV1@@PAPAU?$__packedList_struct@UnavigationPoint@@@@@Z 
01:0007F2EC ?toolbar_set_flagMouseDown@ribbonControl@@SAXQAV1@@@Z  (Idle)
01:0007F348 ?toolbar_release_flagMouseDown@ribbonControl@@SAXQAV1@@@Z  (Idle)
01:0007F380 ?show@ribbonControl@@SAXQAVwindow@@@@Z 
01:0007F3A8 ?buttonColors@ribbonControl@@SAXAAUcolor@@00@Z  (Idle)
01:0007F3D4 ?_renderTipText@ribbonControl@@SAXPAUtipText_struct@tooltip@@PAPB_W@Z  (Idle)
01:0007F444 ?isTooltipAllowed@ribbonControl@@SAXQAV1@@@Z 
01:0007F474 ?_tooltipRender@ribbonControl@@SAXQAV1@@PAUpnt_struct@vpiDomains@@PAPAUtuple_struct@core@@PAPAUrct_struct@4@PAPB_WPAPAUoptional_struct@6@PAPAU34@@Z 
01:0007F5B8 ?_getMenuTooltipPnt@ribbonControl@@SAXQAV1@@PAPAUpnt_struct@vpiDomains@@@Z  (Idle)
01:0007F628 ?tooltipPrepare@ribbonControl@@SAXQAV1@@QAVcommand@@@PAUpnt_struct@vpiDomains@@PAUoptional_struct@core@@PAUrct_struct@5@@Z  (Idle)
01:0007F770 ?tooltipShow@ribbonControl@@SAXQAV1@@@Z 
01:0007F98C ?_tooltipAdjustPnt@ribbonControl@@SAXQAV1@@PAUpnt_struct@vpiDomains@@HPAPAU34@@Z 
01:0007FA6C ?_tooltipFormat@ribbonControl@@SAXQAVcommand@@@PAPB_W@Z 
01:0007FB9C ?tooltipHide@ribbonControl@@SAXQAV1@@@Z 
01:0007FBFC ?_layoutItem@ribbonControl@@SAXQAV1@@PAUlayoutDirection_struct@1@PAUitem_struct@1@PAUpnt_struct@vpiDomains@@HPAUboolean_struct@_builtIn@@PAU?$__packedList_struct@Upositive@@@@PAPAUrct_struct@8@@Z  (Idle)
01:0007FFEC ?_validateCmdStyle@ribbonControl@@SAXPAUcmdStyle_struct@1@PAUboolean_struct@_builtIn@@PAPAU21@@Z 
01:00080048 ?_layoutSectionList@ribbonControl@@SAXQAV1@@PAUlayoutDirection_struct@1@PAU?$__packedList_struct@Usection@@@@PAUpnt_struct@vpiDomains@@HPAU?$__packedList_struct@Upositive@@@@PAPAUrct_struct@7@@Z  (Idle)
01:000801A8 ?_layoutSectionSeparator@ribbonControl@@SAXQAV1@@PAUlayoutDirection_struct@1@PAUpnt_struct@vpiDomains@@HPAPAUrct_struct@6@@Z 
01:000803DC ?_layoutSection@ribbonControl@@SAXQAV1@@PAUlayoutDirection_struct@1@PAUsection_struct@1@PAUpnt_struct@vpiDomains@@HPAU?$__packedList_struct@Upositive@@@@PAPAUrct_struct@8@@Z 
01:00080580 ?_removeMenuMarks@ribbonControl@@SAXPB_WPAPB_W@Z 
01:000805F0 ?_layoutBlockList@ribbonControl@@SAXQAV1@@PAUlayoutDirection_struct@1@PAU?$__packedList_struct@Ublock@@@@PAUpnt_struct@vpiDomains@@HPAU?$__packedList_struct@Upositive@@@@PAPAUrct_struct@7@@Z 
01:00080720 ?_layoutBlock@ribbonControl@@SAXQAV1@@PAUlayoutDirection_struct@1@PAUblock_struct@1@PAUpnt_struct@vpiDomains@@HPAU?$__packedList_struct@Upositive@@@@PAPAUrct_struct@8@@Z 
01:00080B10 ?_layoutRowList@ribbonControl@@SAXQAV1@@PAUlayoutDirection_struct@1@PAU?$__packedList_struct@PAU?$__packedList_struct@Uitem@@@@@@PAU?$__packedList_struct@Upnt@@@@HPAUboolean_struct@_builtIn@@PAU?$__packedList_struct@Upositive@@@@PAPAUrct_struct@vpiDomains@@@Z 
01:00080D14 ?_layoutRow@ribbonControl@@SAXQAV1@@PAUlayoutDirection_struct@1@PAU?$__packedList_struct@Uitem@@@@PAUpnt_struct@vpiDomains@@HPAUboolean_struct@_builtIn@@PAU?$__packedList_struct@Upositive@@@@PAPAUrct_struct@7@@Z 
01:00080D8C ?_layoutItemList@ribbonControl@@SAXQAV1@@PAUlayoutDirection_struct@1@PAU?$__packedList_struct@Uitem@@@@PAUpnt_struct@vpiDomains@@HPAUboolean_struct@_builtIn@@PAU?$__packedList_struct@Upositive@@@@PAPAUrct_struct@7@@Z 
01:00080ED0 ?_incPath@ribbonControl@@SAXPAU?$__packedList_struct@Upositive@@@@PAPAU?$__packedList_struct@U2@@@@Z 
01:00080F64 ?_incPathLevel@ribbonControl@@SAXPAU?$__packedList_struct@Upositive@@@@PAPAU?$__packedList_struct@U2@@@@Z 
01:00080F9C ?_advanceOffset@ribbonControl@@SAXPAUlayoutDirection_struct@1@PAUpnt_struct@vpiDomains@@PAUrct_struct@5@PAPAU45@@Z 
01:00081018 ?_makeFlatLayout@ribbonControl@@SAXQAV1@@PAU?$__packedList_struct@Uitem@@@@PAPAU?$__packedList_struct@Usection@@@@@Z 
01:000810AC ?_tryGetActiveCommand@ribbonControl@@SAXQAV1@@QAVribbonCommand@@@PAPAVcommand@@@@Z 
01:000810DC ?_getCommandFocusWindow@ribbonControl@@SAXQAV1@@PAPAVwindow@@@@Z 
01:0008118C $getEffectiveCmdList$ribbonControl_implement$predicate$(i,i,o)$c$_m101 
01:00081220 $getEffectiveCmdSize$ribbonControl_implement$predicate$(i,i,i,i,i,o,o,o)$c$_m102 
01:00081368 ?getCmdSize@ribbonControl@@SAXQAV1@@QAVcommand@@@PAUcmdType_struct@ribbonCommand@@PAUcmdStyle_struct@1@HPAHPAHPAH@Z 
01:00081534 ?_getSubCmd_nd@ribbonControl@@SAXQAVcommand@@@PAPAV2@@@Z 
01:000815E4 ?calcLabelSize@ribbonControl@@SAXQAV1@@QAVcommand@@@PAUcmdType_struct@ribbonCommand@@PAUcmdStyle_struct@1@AAUpositive@@4@Z 
01:0008185C ?_calcIconSize@ribbonControl@@SAXHPAH@Z 
01:00081880 ?_calcCmdSize@ribbonControl@@SAXQAVcommand@@@PAUcmdType_struct@ribbonCommand@@PAUcmdStyle_struct@1@HHHHPAPAUtuple_struct@core@@PAHPAH@Z 
01:00081A3C ?_calcCmdTypeWidth@ribbonControl@@SAXPAUcmdType_struct@ribbonCommand@@PAH@Z 
01:00081A60 ?_sideBySide@ribbonControl@@SAXPAUtuple_struct@core@@PBUpositive@@PBU4@0PAPAU23@AAU4@AAU4@@Z 
01:00081AE8 ?_onTop@ribbonControl@@SAXPAUtuple_struct@core@@PBUpositive@@PBU4@0PAPAU23@AAU4@AAU4@@Z 
01:00081B74 ?_max@ribbonControl@@SAXPAUtuple_struct@core@@PBUpositive@@PBU4@0PAPAU23@AAU4@AAU4@@Z 
01:00081C10 ?_add@ribbonControl@@SAXPAUtuple_struct@core@@PBUpositive@@PBU4@0PAPAU23@AAU4@AAU4@@Z 
01:00081C88 ?measureLayout@ribbonControl@@SAXQAV1@@PAU?$__packedList_struct@Usection@@@@PAPAUtuple_struct@core@@AAUpositive@@AAU6@@Z  (Idle)
01:00081DC4 ?_measureSection@ribbonControl@@SAXQAV1@@PAUsection_struct@1@PAPAUtuple_struct@core@@AAUpositive@@AAU7@@Z 
01:00081EC0 ?_anonymous$o0$1$measureblock/1nf$ribbonControl@1@SAXPAUanonymous$o0$1$measureblock/1nf$ribbonControlc_struct@1@PAU?$__packedList_struct@Uitem@@@@PAPAUtuple_struct@core@@AAUpositive@@AAU7@@Z 
01:00081EF8 ?_measureBlock@ribbonControl@@SAXQAV1@@PAUblock_struct@1@PAPAUtuple_struct@core@@AAUpositive@@AAU7@@Z 
01:00082034 ?_anonymous$o0$1$measurerow/2nf$ribbonControl@1@SAXPAUanonymous$o0$1$measurerow/2nf$ribbonControlc_struct@1@PAUitem_struct@1@PAPAUtuple_struct@core@@AAUpositive@@AAU8@@Z 
01:0008206C ?_measureRow@ribbonControl@@SAXQAV1@@PAU?$__packedList_struct@Uitem@@@@PAUboolean_struct@_builtIn@@PAPAUtuple_struct@core@@AAUpositive@@AAU8@@Z 
01:00082140 ?_measureItem@ribbonControl@@SAXQAV1@@PAUitem_struct@1@PAUboolean_struct@_builtIn@@PAPAUtuple_struct@core@@AAUpositive@@AAU9@@Z 
01:00082208 ?_roundedRectangle@ribbonControl@@SAXPAUrct_struct@vpiDomains@@HPAPAVgraphicsPath@@@@Z  (Idle)
01:0008230C ?_oval@ribbonControl@@SAXPAUrct_struct@vpiDomains@@PAPAVgraphicsPath@@@@Z  (Idle)
01:000823AC ?drawButtonFrame@ribbonControl@@SAXQAVgraphics@@@PAUrct_struct@vpiDomains@@QAVcolor@@@2@Z  (Idle)
01:00082470 ?drawButtonFrame_raised@ribbonControl@@SAXQAVgraphics@@@PAUrct_struct@vpiDomains@@@Z  (Idle)
01:000824BC ?drawButtonFrame_sunken@ribbonControl@@SAXQAVgraphics@@@PAUrct_struct@vpiDomains@@@Z  (Idle)
01:00082508 ?drawButtonFrame_down@ribbonControl@@SAXQAVgraphics@@@PAUrct_struct@vpiDomains@@@Z  (Idle)
01:00082554 ?drawButtonFrame_none@ribbonControl@@SAXQAV1@@QAVgraphics@@@PAUrct_struct@vpiDomains@@@Z  (Idle)
01:00082654 ?toolbar_if_draw_frame@ribbonControl@@SAXQAV1@@PAUrct_struct@vpiDomains@@PAUboolean_struct@_builtIn@@2@Z  (Idle)
01:00082724 ?imagePosition@ribbonControl@@SAXPAUcmdStyle_struct@1@PAUrct_struct@vpiDomains@@HHHPAPAUpnt_struct@5@@Z  (Idle)
01:00082870 ?_convertPointI@ribbonControl@@SAXPAUpnt_struct@vpiDomains@@PAPAUpointI_struct@gdiplus@@@Z  (Idle)
01:000828AC ?drawImage@ribbonControl@@SAXQAVgraphics@@@PAUcmdStyle_struct@1@QAVimage@@@PAUrct_struct@vpiDomains@@PAUboolean_struct@_builtIn@@@Z  (Idle)
01:00082A74 ?drawImage_released@ribbonControl@@SAXQAVgraphics@@@PAUcmdStyle_struct@1@QAVimage@@@PAUrct_struct@vpiDomains@@@Z  (Idle)
01:00082A88 ?drawImage_raised@ribbonControl@@SAXQAVgraphics@@@PAUcmdStyle_struct@1@QAVimage@@@PAUrct_struct@vpiDomains@@@Z  (Idle)
01:00082A9C ?drawImage_down@ribbonControl@@SAXQAVgraphics@@@PAUcmdStyle_struct@1@QAVimage@@@PAUrct_struct@vpiDomains@@@Z  (Idle)
01:00082AB0 ?drawImage_pressed@ribbonControl@@SAXQAVgraphics@@@PAUcmdStyle_struct@1@QAVimage@@@PAUrct_struct@vpiDomains@@@Z  (Idle)
01:00082AC4 ?drawImage_gray@ribbonControl@@SAXQAVgraphics@@@PAUcmdStyle_struct@1@QAVimage@@@PAUrct_struct@vpiDomains@@@Z  (Idle)
01:00082AD8 ?drawButton@ribbonControl@@SAXQAV1@@QAVribbonCommand@@@QAVcommand@@@PAUboolean_struct@_builtIn@@33@Z 
01:00082B6C ?anonymous$o0$1$drawbutton/6np$ribbonControl@1@SAXPAUanonymous$o0$1$drawbutton/6np$ribbonControlc_struct@1@@Z 
01:00082BA8 ?drawButton@ribbonControl@@SAXQAV1@@QAVgraphics@@@QAVribbonCommand@@@QAVcommand@@@PAUboolean_struct@_builtIn@@44@Z 
01:00082FC8 ?drawMenuButton@ribbonControl@@SAXQAVgraphics@@@PAUrct_struct@vpiDomains@@QAVbrush@@@@Z 
01:00083030 ?_rect_DownTriangle@ribbonControl@@SAXPAUrct_struct@vpiDomains@@PAPAU?$__packedList_struct@UpointI@gdiplus@@@@@Z 
01:00083150 ?_rect_LeftTriangle@ribbonControl@@SAXPAUrct_struct@vpiDomains@@PAPAU?$__packedList_struct@UpointI@gdiplus@@@@@Z 
01:00083274 ?_rect_RightTriangle@ribbonControl@@SAXPAUrct_struct@vpiDomains@@PAPAU?$__packedList_struct@UpointI@gdiplus@@@@@Z 
01:00083398 ?drawButtonText@ribbonControl@@SAXQAV1@@QAVgraphics@@@QAVribbonCommand@@@PAUrct_struct@vpiDomains@@QAVcommand@@@@Z 
01:00083B4C ?drawButtonTextLines@ribbonControl@@SAXQAV1@@QAVgraphics@@@PAU?$__packedList_struct@Ustring@@@@PAUcmdType_struct@ribbonCommand@@QAVfont@@@PAUrectf_struct@gdiplus@@QAVstringFormat@@@QAVbrush@@@@Z 
01:000843D8 ?drawBackground@ribbonControl@@SAXQAV1@@QAVgraphics@@@QAVribbonCommand@@@QAVcommand@@@PAUboolean_struct@_builtIn@@44@Z 
01:000845C0 ?tryGetDividingLine@ribbonControl@@SAXPAUrct_struct@vpiDomains@@0PAPAUpointI_struct@gdiplus@@2@Z  (Idle)
01:000846EC ?drawSeparatorLine@ribbonControl@@SAXQAVgraphics@@@PAUrct_struct@vpiDomains@@1PAUboolean_struct@_builtIn@@333@Z 
01:000848A0 ?gradientFill@ribbonControl@@SAXQAV1@@QAVgraphics@@@PAUrct_struct@vpiDomains@@PAUcolorDef_struct@ribbonCommand@@3@Z 
01:000848E0 ?gradientFillEx@ribbonControl@@SAXQAV1@@QAVgraphics@@@PAUrct_struct@vpiDomains@@QAVcolor@@@3@Z 
01:00084990 ?gradientFillBackground@ribbonControl@@SAXQAV1@@QAVgraphics@@@PAUrct_struct@vpiDomains@@PAUcolorDef_struct@ribbonCommand@@3@Z 
01:00084A9C ?fillSelectedButtonBackground@ribbonControl@@SAXQAVgraphics@@@PAUrct_struct@vpiDomains@@PAUcolorDef_struct@ribbonCommand@@2@Z 
01:00084D04 ?drawImage@ribbonControl@@SAXQAVgraphics@@@PAUrct_struct@vpiDomains@@PAUcmdStyle_struct@1@QAVimage@@@PAUboolean_struct@_builtIn@@444@Z 
01:00084E24 ?drawBadge@ribbonControl@@SAXQAV1@@QAVgraphics@@@QAVribbonCommand@@@QAVcommand@@@@Z 
01:000854A8 ?drawSections@ribbonControl@@SAXQAV1@@QAVgraphics@@@PAUrct_struct@vpiDomains@@@Z  (Idle)
01:00085790 ?show_toolbar_controls@ribbonControl@@SAXQAV1@@QAVgraphics@@@PAUrct_struct@vpiDomains@@@Z  (Idle)
01:00085A38 ?set_button_released@ribbonControl@@SAXQAV1@@@Z  (Idle)
01:00085AD0 ?eraseFrame@ribbonControl@@SAXQAV1@@PAUrct_struct@vpiDomains@@PAUboolean_struct@_builtIn@@@Z 
01:00085B50 ?test_not_leave_button@ribbonControl@@SAXQAV1@@PBUmenuTag@@PAUpnt_struct@vpiDomains@@@Z  (Idle)
01:00085D5C ?test_enter_button@ribbonControl@@SAXQAV1@@PAUpnt_struct@vpiDomains@@PAUboolean_struct@_builtIn@@@Z  (Idle)
01:00085F78 ?restartTimer@ribbonControl@@SAXQAV1@@@Z 
01:00085FAC ?timerExpired@ribbonControl@@SAXQAV1@@@Z 
01:00086064 ?restore_pressed_button@ribbonControl@@SAXQAV1@@HPAUboolean_struct@_builtIn@@22@Z 
01:0008620C ?set_flagMouseDown@ribbonControl@@SAXQAV1@@PAUcmdType_struct@ribbonCommand@@@Z  (Idle)
01:00086224 ?onCmdStateChange@ribbonControl@@SAXQAV1@@QAVcommand@@@@Z 
01:00086314 ?onPaint@ribbonControl@@SAXQAV1@@QAVwindow@@@PAUrct_struct@vpiDomains@@QAVwindowGDI@@@@Z 
01:000863F4 ?_getFocusWindow@ribbonControl@@SAXQAV1@@PAPAUoptional_struct@core@@PAPAVwindow@@@@Z  (Idle)
01:000864E0 ?_tryGetToplevelWindow@ribbonControl@@SAXQAVwindow@@@PAPAV2@@@Z 
01:00086598 ?onAnalyzeFocus@ribbonControl@@SAXQAV1@@@Z 
01:0008663C ?_compareFocusWindow@ribbonControl@@SAXPAUoptional_struct@core@@QAVwindow@@@0PAPAUcompareResult_struct@_builtIn@@@Z 
01:00086724 ?drawRibbon@ribbonControl@@SAXQAV1@@QAVgraphics@@@PAUrct_struct@vpiDomains@@@Z 
01:0008678C ?onSize@ribbonControl@@SAXQAV1@@QAVwindow@@@@Z 
01:00086864 ?onMouseMove@ribbonControl@@SAXQAV1@@QAVwindow@@@PAUpnt_struct@vpiDomains@@PBUkeyModifier@@PAU?$__packedList_struct@Uinteger@@@@@Z 
01:00086A5C ?onMousedown@ribbonControl@@SAXQAV1@@QAVwindow@@@PAUpnt_struct@vpiDomains@@PBUkeyModifier@@H@Z 
01:00086BE0 ?onMouseUp@ribbonControl@@SAXQAV1@@QAVwindow@@@PAUpnt_struct@vpiDomains@@PBUkeyModifier@@H@Z 
01:00087110 ?onMouseDbl@ribbonControl@@SAXQAV1@@QAVwindow@@@PAUpnt_struct@vpiDomains@@PBUkeyModifier@@H@Z 
01:00087204 ?onLoseFocus@ribbonControl@@SAXQAV1@@QAVwindow@@@@Z 
01:00087210 ?_onNative@ribbonControl@@SAXQAV1@@QAVwindow@@@IPBUwParam@@PBUlParam@@PAPAUnativeResponse_struct@3@@Z 
01:0008757C ?onDestroy@ribbonControl@@SAXQAV1@@QAVwindow@@@@Z 
01:00087678 ?_no_handler@ribbonControl@@SAXPBUwindowHandle@@PAUevent_struct@vpiDomains@@AAUlResult@@@Z 
01:00087684 ?layout@ribbonControl@@SAXQAV1@@@Z 
01:00087C80 ?queryState@ribbonControl@@SAXQAV1@@@Z 
01:00087D18 ?_layoutTryGetElement@ribbonControl@@SAXQAV1@@PAU?$__packedList_struct@Usection@@@@PAU?$__packedList_struct@Upositive@@@@PAPAUelement_struct@1@@Z 
01:00087D80 ?_sectionTryGetElement@ribbonControl@@SAXPAUsection_struct@1@PAU?$__packedList_struct@Upositive@@@@PAPAUelement_struct@1@@Z 
01:00087E00 ?_blockTryGetElement@ribbonControl@@SAXPAUblock_struct@1@PAU?$__packedList_struct@Upositive@@@@PAPAUelement_struct@1@@Z 
01:00087E8C ?_rowTryGetElement@ribbonControl@@SAXPAU?$__packedList_struct@Uitem@@@@PAU?$__packedList_struct@Upositive@@@@PAPAUelement_struct@1@@Z 
01:00087F24 ?_layoutRemoveElement@ribbonControl@@SAXQAV1@@PAU?$__packedList_struct@Usection@@@@PAU?$__packedList_struct@Upositive@@@@PAPAU?$__packedList_struct@U3@@@@Z 
01:00088014 ?_sectionRemoveElement@ribbonControl@@SAXPAUsection_struct@1@PAU?$__packedList_struct@Upositive@@@@PAPAU?$__packedList_struct@Usection@@@@@Z 
01:00088174 ?_blockRemoveElement@ribbonControl@@SAXPAUblock_struct@1@PAU?$__packedList_struct@Upositive@@@@PAPAU?$__packedList_struct@Ublock@@@@@Z 
01:000882BC ?_rowRemoveElement@ribbonControl@@SAXPAU?$__packedList_struct@Uitem@@@@PAU?$__packedList_struct@Upositive@@@@PAPAU?$__packedList_struct@PAPAU?$__packedList_struct@U2@@@@@@Z 
01:000883B8 ?_layoutInsertElement@ribbonControl@@SAXQAV1@@PAU?$__packedList_struct@Usection@@@@PAU?$__packedList_struct@Upositive@@@@PAUelement_struct@1@PAPAU?$__packedList_struct@U4@@@PAPAU?$__packedList_struct@U3@@@@Z 
01:00088638 ?_sectionInsertElement@ribbonControl@@SAXPAUsection_struct@1@PAU?$__packedList_struct@Upositive@@@@PAUelement_struct@1@PAPAU?$__packedList_struct@U4@@@PAPAU21@@Z 
01:00088AE8 ?_blockInsertElement@ribbonControl@@SAXPAUblock_struct@1@PAU?$__packedList_struct@Upositive@@@@PAUelement_struct@1@PAPAU?$__packedList_struct@U4@@@PAPAU21@@Z 
01:00088E78 ?_rowInsertElement@ribbonControl@@SAXPAU?$__packedList_struct@Uitem@@@@PAU?$__packedList_struct@Upositive@@@@PAUelement_struct@1@PAPAU?$__packedList_struct@U3@@@PAPAU?$__packedList_struct@U2@@@@Z 
01:00088FD8 ?_layoutUpdateElement@ribbonControl@@SAXQAV1@@PAU?$__packedList_struct@Usection@@@@PAU?$__packedList_struct@Upositive@@@@PAUelement_struct@1@PAPAU?$__packedList_struct@U3@@@@Z 
01:000891B8 ?_sectionUpdateElement@ribbonControl@@SAXPAUsection_struct@1@PAU?$__packedList_struct@Upositive@@@@PAUelement_struct@1@PAPAU21@@Z 
01:00089434 ?_blockUpdateElement@ribbonControl@@SAXPAUblock_struct@1@PAU?$__packedList_struct@Upositive@@@@PAUelement_struct@1@PAPAU21@@Z 
01:00089660 ?_rowUpdateElement@ribbonControl@@SAXPAU?$__packedList_struct@Uitem@@@@PAU?$__packedList_struct@Upositive@@@@PAUelement_struct@1@PAPAU?$__packedList_struct@U2@@@@Z 
01:00089768 ?_getTextExtent@ribbonControl@@SAXQAV1@@PB_WPAPAUtuple_struct@core@@AAUpositive@@AAU5@@Z 
01:000899B0 ?_getTextWidth@ribbonControl@@SAXQAV1@@PB_WAAUpositive@@@Z 
01:000899D8 ?designSelection@ribbonControl@@SGPAU?$__packedList_struct@Upositive@@@@QAV1@@@Z 
01:000899F4 ?designSelection@ribbonControl@@SGXQAV1@@PAU?$__packedList_struct@Upositive@@@@@Z 
01:00089AB0 ?_anonymous$o0$1$designshow/0np$ribbonControl@1@SAXQAVwindow@@@QAVwindowGDI@@@PAPAUeraseBackgroundResponse_struct@2@@Z 
01:00089AC4 ?anonymous$o0$2$designshow/0np$ribbonControl@1@SAXPAUanonymous$o0$2$designshow/0np$ribbonControlc_struct@1@QAVwindow@@@@Z 
01:00089ADC ?designShow@ribbonControl@@SAXQAV1@@@Z 
01:00089CFC ?designResizeOverlay@ribbonControl@@SAXQAV1@@@Z 
01:00089D78 ?onOverlayMouseDown@ribbonControl@@SAXQAV1@@QAVwindow@@@PAUpnt_struct@vpiDomains@@PBUkeyModifier@@H@Z 
01:00089ED8 ?onOverlayPaint@ribbonControl@@SAXQAV1@@QAVwindow@@@PAUrct_struct@vpiDomains@@QAVwindowGDI@@@@Z 
01:00089F74 ?overlayPaintPath@ribbonControl@@SAXQAV1@@QAVgraphics@@@PAU?$__packedList_struct@Upositive@@@@@Z 
01:0008A2C8 ?overlayPaintCaret@ribbonControl@@SAXQAV1@@QAVgraphics@@@PAU?$__packedList_struct@Upositive@@@@@Z 
01:0008A68C ?_designHitTest@ribbonControl@@SAXQAV1@@PAUpnt_struct@vpiDomains@@PAPAU?$__packedList_struct@Upositive@@@@@Z 
01:0008A958 ?designShowDropTarget@ribbonControl@@SAXQAV1@@PAUpnt_struct@vpiDomains@@@Z 
01:0008AA20 ?designClearDropTarget@ribbonControl@@SAXQAV1@@@Z 
01:0008AA38 ?_designTryGetElementBoundingRct@ribbonControl@@SAXQAV1@@PAU?$__packedList_struct@Upositive@@@@PAPAUrct_struct@vpiDomains@@@Z 
01:0008ACD8 ?_designTryGetCmd@ribbonControl@@SAXQAV1@@PAU?$__packedList_struct@Upositive@@@@PAPAVribbonCommand@@@@Z 
01:0008AD3C ?_rctExcludeRightBottom@ribbonControl@@SAXPAUrct_struct@vpiDomains@@PAPAU23@@Z 
01:0008ADB0 ?_createAlphaColor@ribbonControl@@SAXPBUunsigned8@@PAUcolorDef_struct@ribbonCommand@@PAPAVcolor@@@@Z 
01:0008AEEC ?_anonymous$c0$1$filtercmdinlayout/2nf$ribbonControl@1@SAXPAUanonymous$c0$1$filtercmdinlayout/2nf$ribbonControlc_struct@1@PAUsection_struct@1@PAPAU41@@Z 
01:0008AF0C ?_filterCmdInLayout@ribbonControl@@SAXPAU?$__packedList_struct@Usection@@@@XPAPAU?$__packedList_struct@U2@@@@Z  (Idle)
01:0008AF70 ?_anonymous$c0$1$filtercmdinsection/2nf$ribbonControl@1@SAXPAUanonymous$c0$1$filtercmdinsection/2nf$ribbonControlc_struct@1@PAUblock_struct@1@PAPAU41@@Z 
01:0008AF90 ?_filterCmdInSection@ribbonControl@@SAXPAUsection_struct@1@XPAPAU21@@Z 
01:0008B040 ?_anonymous$c0$1$filtercmdinblock/2nf$ribbonControl@1@SAXPAUanonymous$c0$1$filtercmdinblock/2nf$ribbonControlc_struct@1@PAU?$__packedList_struct@Uitem@@@@PAPAU?$__packedList_struct@U4@@@@Z 
01:0008B060 ?_filterCmdInBlock@ribbonControl@@SAXPAUblock_struct@1@XPAPAU21@@Z 
01:0008B0FC ?anonymous$c0$1$filtercmdinrow/2nf$ribbonControl@1@SAXPAUanonymous$c0$1$filtercmdinrow/2nf$ribbonControlc_struct@1@PAUitem_struct@1@@Z 
01:0008B11C ?_filterCmdInRow@ribbonControl@@SAXPAU?$__packedList_struct@Uitem@@@@XPAPAU?$__packedList_struct@U2@@@@Z 
01:0008B178 ?filterCmdInItem@ribbonControl@@SAXPAUitem_struct@1@X@Z 
01:0008B1AC ?_anonymous$c0$1$compresslayout/1nf$ribbonControl@1@SAXPAUsection_struct@1@PAPAU21@@Z 
01:0008B1B4 ?anonymous$c0$2$compresslayout/1nf$ribbonControl@1@SAXPAUsection_struct@1@@Z 
01:0008B1D0 ?_compressLayout@ribbonControl@@SAXPAU?$__packedList_struct@Usection@@@@PAPAU?$__packedList_struct@U2@@@@Z  (Idle)
01:0008B228 ?_anonymous$c0$1$compresssection/1nf$ribbonControl@1@SAXPAUblock_struct@1@PAPAU21@@Z 
01:0008B230 ?_compressSection@ribbonControl@@SAXPAUsection_struct@1@PAPAU21@@Z 
01:0008B380 ?_compressBlock@ribbonControl@@SAXPAUblock_struct@1@PAPAU21@@Z 
01:0008B434 ?_compressRow@ribbonControl@@SAXPAU?$__packedList_struct@Uitem@@@@PAPAU?$__packedList_struct@U2@@@@Z 
01:0008B488 ?_eliminateEmptyBlocks@ribbonControl@@SAXPAU?$__packedList_struct@Ublock@@@@PAPAU?$__packedList_struct@U2@@@@Z 
01:0008B5D4 ?_trimRearSep@ribbonControl@@SAXPAU?$__packedList_struct@Ublock@@@@PAPAU?$__packedList_struct@U2@@@@Z 
01:0008B67C ?_trimFrontSep@ribbonControl@@SAXPAU?$__packedList_struct@Ublock@@@@PAPAU?$__packedList_struct@U2@@@@Z 
01:0008B6BC ?_new@ribbonControl@@SAXPAPAV1@@@Z  (Idle)
--- From 'Obj\ribbondesignerdlg.56B6615E.obj'
01:0008B6E4 ?_new@ribbonControl@@SAXQAVcontainerWindow@@@PAPAV1@@@Z 
--- From 'Obj\ribboncontrol.D20F9C1C.obj'
01:0008B70C ?anonymous$o0$1$section_height/0nf$ribbonControl@1@SAXQAV1@@@Z 
01:0008B720 ?_anonymous$o0$2$gettextwidth/1nf$ribbonControl@1@SAXQAV1@@PAUpnt_struct@vpiDomains@@PAU?$__packedList_struct@Upositive@@@@PAPAUdesignDragBeginResponse_struct@1@@Z 
01:0008B734 ?_object_facts_initializer@ribbonControl@@SGXQAV1@@@Z 
01:0008B80C ?showSectionLabels@ribbonControl@@SGXQAV1@@PAUboolean_struct@_builtIn@@@Z 
01:0008B820 ?showSectionLabels@ribbonControl@@SGPAUboolean_struct@_builtIn@@QAV1@@@Z 
01:0008B830 ?useFixedSize@ribbonControl@@SGXQAV1@@PAUoptional_struct@core@@H@Z 
01:0008B840 ?useFixedSize@ribbonControl@@SGPAUoptional_struct@core@@HQAV1@@@Z 
01:0008B84C ?mouseDblClickBackgroundResponder@ribbonControl@@SGXQAV1@@X@Z 
01:0008B85C ?mouseDblClickBackgroundResponder@ribbonControl@@SGXQAV1@@@Z 
01:0008B868 ?defaultColorBackgroundGradientFrom@ribbonControl@@SGXPAUcolorDef_struct@ribbonCommand@@@Z  (Idle)
01:0008B874 ?defaultColorBackgroundGradientFrom@ribbonControl@@SGPAUcolorDef_struct@ribbonCommand@@XZ  (Idle)
01:0008B87C ?defaultColorBackgroundGradientTo@ribbonControl@@SGXPAUcolorDef_struct@ribbonCommand@@@Z  (Idle)
01:0008B888 ?defaultColorBackgroundGradientTo@ribbonControl@@SGPAUcolorDef_struct@ribbonCommand@@XZ  (Idle)
01:0008B890 ?defaultColorSectionBackground@ribbonControl@@SGXPAUcolorDef_struct@ribbonCommand@@@Z  (Idle)
01:0008B89C ?defaultColorSectionBackground@ribbonControl@@SGPAUcolorDef_struct@ribbonCommand@@XZ  (Idle)
01:0008B8A4 ?colorBackgroundGradientFrom@ribbonControl@@SGXQAV1@@PAUcolorDef_struct@ribbonCommand@@@Z 
01:0008B8B8 ?colorBackgroundGradientFrom@ribbonControl@@SGPAUcolorDef_struct@ribbonCommand@@QAV1@@@Z 
01:0008B8C8 ?colorBackgroundGradientTo@ribbonControl@@SGXQAV1@@PAUcolorDef_struct@ribbonCommand@@@Z 
01:0008B8DC ?colorBackgroundGradientTo@ribbonControl@@SGPAUcolorDef_struct@ribbonCommand@@QAV1@@@Z 
01:0008B8EC ?colorSectionBackground@ribbonControl@@SGXQAV1@@PAUcolorDef_struct@ribbonCommand@@@Z 
01:0008B900 ?colorSectionBackground@ribbonControl@@SGPAUcolorDef_struct@ribbonCommand@@QAV1@@@Z 
01:0008B910 ?designMode@ribbonControl@@SGXQAV1@@PAUboolean_struct@_builtIn@@@Z 
01:0008B924 ?designMode@ribbonControl@@SGPAUboolean_struct@_builtIn@@QAV1@@@Z 
01:0008B934 ?designSelectionChangedEvent@ribbonControl@@SGXQAV1@@QAVevent0@@@QAV1@@@Z 
01:0008B948 ?designSelectionChangedEvent@ribbonControl@@SGQAVevent0@@@QAV1@@QAV1@@@Z 
01:0008B958 ?designDragBeginResponder@ribbonControl@@SGXQAV1@@X@Z 
01:0008B96C ?designDragBeginResponder@ribbonControl@@SGXQAV1@@@Z 
01:0008B97C $new$ribbonCommand_class$predicate$(i,i,i,i,i,i,i)$b$  (Idle)
01:0008BA3C ?prepareCustomCmd@ribbonCommand@@SAXQAV1@@@Z 
01:0008BC84 ?_tooltipRender@ribbonCommand@@SAXQAV1@@PAUpnt_struct@vpiDomains@@PAPAUtuple_struct@core@@PAPAUrct_struct@4@PAPB_WPAPAUoptional_struct@6@PAPAU34@@Z 
01:0008BE44 ?updateViewportRect@ribbonCommand@@SAXQAV1@@PAUrct_struct@vpiDomains@@@Z 
01:0008BEEC ?isPointInside@ribbonCommand@@SAXQAV1@@PAUpnt_struct@vpiDomains@@@Z 
01:0008BF04 ?_tryGetActiveCommand@ribbonCommand@@SAXQAV1@@QAVwindow@@@PAPAVcommand@@@@Z 
01:0008C024 $isCommandActive$ribbonCommand_implement$predicate$(i,i)$c$_m12 
01:0008C0F4 ?_tryGetCustomCommand@ribbonCommand@@SAXQAV1@@PAPAVcontrol@@@PAPAVcustomCommand@@@@Z 
01:0008C178 ?_getTextColor@ribbonCommand@@SAXQAV1@@PAUboolean_struct@_builtIn@@PAPAVcolor@@@@Z 
01:0008C1AC ?_createColor@ribbonCommand@@SAXPAUcolorDef_struct@1@PAPAVcolor@@@@Z 
01:0008C21C ?calcCmdRects@ribbonCommand@@SAXQAV1@@PAPAUrct_struct@vpiDomains@@1@Z 
01:0008C358 ?_getCmdLabel@ribbonCommand@@SAXQAVcommand@@@PAPB_W@Z 
01:0008C3B4 ?_getCmdType@ribbonCommand@@SAXQAVcommand@@@PAPAUcmdType_struct@1@@Z 
01:0008C454 $new$ribbonCommand_class$predicate$(i,i,i,i,i,i,o)$b$_c7 
01:0008C48C ?_object_facts_initializer@ribbonCommand@@SGXQAV1@@@Z 
01:0008C4A4 ?id@ribbonCommand@@SGHQAV1@@@Z 
01:0008C4B0 ?cmdId@ribbonCommand@@SGPB_WQAV1@@@Z 
01:0008C4BC $effectiveCmdList$ribbonCommand_implement$predicate$(i)$c$ 
01:0008C4C8 ?style@ribbonCommand@@SGPAUcmdStyle_struct@ribbonControl@@QAV1@@@Z 
01:0008C4D4 ?rect@ribbonCommand@@SGPAUrct_struct@vpiDomains@@QAV1@@@Z 
01:0008C4E0 ?iconSize@ribbonCommand@@SGHQAV1@@@Z 
01:0008E6C0 ribbonControl?_initObject@@@QAGXQAV1@H@Z 
01:0008E708 ?@create_object@ribbonControl@@SGQAV1@@XZ 
01:0008E724 ribbonControl?_InternalFinalizer@@@QAGXQAV1@@Z 
01:0008E740 ribbonCommand?_initObject@@@QAGXQAV1@H@Z 
01:0008E760 ?@create_object@ribbonCommand@@SGQAV1@@XZ 
01:0008E77C ribbonCommand?_InternalFinalizer@@@QAGXQAV1@@Z 
--- From 'Obj\ribbondesignerdlg.56B6615E.obj'
01:0008E790 ?_map@ribbonDesignerDlg_English@@SAXPB_WPAPB_W@Z  (Idle)
01:0008E80C ?_class_facts_initializer@ribbonDesignerDlg_English@@SGXXZ 
01:0008F120 ?_defaultUIPathTranslator@ribbonDesignerDlg@@SAXQAVcommand@@@PAPAU?$__packedList_struct@Ustring@@@@@Z 
01:0008F1C0 ?_defaultUITranslator@ribbonDesignerDlg@@SAXPB_WPAPB_W@Z 
01:0008F1C8 ?_tryTranslate@ribbonDesignerDlg@@SAXPB_WPAPB_W@Z  (Idle)
01:0008F214 ?translateCmd@ribbonDesignerDlg@@SAXQAVcommand@@@@Z  (Idle)
01:0008F46C ?_translateSection@ribbonDesignerDlg@@SAXPAUsection_struct@ribbonControl@@PAPAU23@@Z  (Idle)
01:0008F5DC ?_formatLangKey@ribbonDesignerDlg@@SAXPAU?$__packedList_struct@Ustring@@@@PAPB_W@Z 
01:0008F604 ?isOk@ribbonDesignerDlg@@SAXQAV1@@@Z 
01:0008F620 ?isCancelled@ribbonDesignerDlg@@SAXQAV1@@@Z 
01:0008F63C ?designLayout@ribbonDesignerDlg@@SGPAU?$__packedList_struct@Usection@ribbonControl@@@@QAV1@@@Z 
01:0008F670 ?designLayout@ribbonDesignerDlg@@SGXQAV1@@PAU?$__packedList_struct@Usection@ribbonControl@@@@@Z 
01:0008F75C ?headerUpdateColumnIcon@ribbonDesignerDlg@@SAXPBUhwnd@@IPAUorder_struct@listViewControl@@@Z  (Idle)
01:0008F930 ?undo@ribbonDesignerDlg@@SAXQAV1@@@Z  (Idle)
01:0008FACC ?redo@ribbonDesignerDlg@@SAXQAV1@@@Z  (Idle)
01:0008FC68 ?anonymous$o0$1$getundoribbon/0nf$ribbonDesignerDlg@1@SAXPAUanonymous$o0$1$getundoribbon/0nf$ribbonDesignerDlgc_struct@1@QAVcommand@@@@Z 
01:0008FCC4 ?anonymous$o0$2$getundoribbon/0nf$ribbonDesignerDlg@1@SAXPAUanonymous$o0$2$getundoribbon/0nf$ribbonDesignerDlgc_struct@1@QAVcommand@@@@Z 
01:0008FCDC ?anonymous$o0$3$getundoribbon/0nf$ribbonDesignerDlg@1@SAXPAUanonymous$o0$3$getundoribbon/0nf$ribbonDesignerDlgc_struct@1@QAVcommand@@@@Z 
01:0008FD38 ?anonymous$o0$4$getundoribbon/0nf$ribbonDesignerDlg@1@SAXPAUanonymous$o0$4$getundoribbon/0nf$ribbonDesignerDlgc_struct@1@QAVcommand@@@@Z 
01:0008FD50 ?_getUndoRibbon@ribbonDesignerDlg@@SAXQAV1@@PAPAUsection_struct@ribbonControl@@@Z  (Idle)
01:00090114 ?anonymous$o0$1$getblockribbon/0nf$ribbonDesignerDlg@1@SAXPAUanonymous$o0$1$getblockribbon/0nf$ribbonDesignerDlgc_struct@1@QAVcommand@@@@Z 
01:000901AC ?anonymous$o0$2$getblockribbon/0nf$ribbonDesignerDlg@1@SAXPAUanonymous$o0$2$getblockribbon/0nf$ribbonDesignerDlgc_struct@1@QAVcommand@@@@Z 
01:000901C8 ?anonymous$o0$3$getblockribbon/0nf$ribbonDesignerDlg@1@SAXPAUanonymous$o0$3$getblockribbon/0nf$ribbonDesignerDlgc_struct@1@QAVcommand@@@@Z 
01:000901E4 ?anonymous$o0$4$getblockribbon/0nf$ribbonDesignerDlg@1@SAXPAUanonymous$o0$4$getblockribbon/0nf$ribbonDesignerDlgc_struct@1@QAVcommand@@@@Z 
01:000901FC ?_getBlockRibbon@ribbonDesignerDlg@@SAXQAV1@@PAPAUsection_struct@ribbonControl@@@Z  (Idle)
01:00090688 ?cmdBreakBlock@ribbonDesignerDlg@@SAXQAV1@@PAUboolean_struct@_builtIn@@@Z 
01:00090AA8 ?cmdBreakMerge@ribbonDesignerDlg@@SAXQAV1@@@Z 
01:00090E68 ?_traverseRowList_nd@ribbonDesignerDlg@@SAXPAU?$__packedList_struct@PAU?$__packedList_struct@Uitem@@@@@@PBUpositive@@PAPAU?$__packedList_struct@U3@@@@Z  (Idle)
01:00090EE8 ?_traverseRow_nd@ribbonDesignerDlg@@SAXPAU?$__packedList_struct@Uitem@@@@PBUpositive@@PAPAU?$__packedList_struct@U3@@@@Z 
01:00090F50 ?_convItemCnt2Path@ribbonDesignerDlg@@SAXHPAU?$__packedList_struct@PAU?$__packedList_struct@Uitem@@@@@@PAPAU?$__packedList_struct@Upositive@@@@@Z 
01:00090FD0 ?_convPath2ItemCnt@ribbonDesignerDlg@@SAXPAU?$__packedList_struct@Upositive@@@@PAU?$__packedList_struct@PAU?$__packedList_struct@Uitem@@@@@@PAH@Z  (Idle)
01:00091050 ?cmdRemoveLeftSeparator@ribbonDesignerDlg@@SAXQAV1@@PAU?$__packedList_struct@Usection@@@@PAU?$__packedList_struct@Upositive@@@@PAPAU?$__packedList_struct@U3@@@PAPAU?$__packedList_struct@U4@@@@Z 
01:000911B0 ?anonymous$o0$1$getstyleribbon/0nf$ribbonDesignerDlg@1@SAXPAUanonymous$o0$1$getstyleribbon/0nf$ribbonDesignerDlgc_struct@1@QAVcommand@@@@Z 
01:00091350 ?anonymous$o0$2$getstyleribbon/0nf$ribbonDesignerDlg@1@SAXPAUanonymous$o0$2$getstyleribbon/0nf$ribbonDesignerDlgc_struct@1@QAVcheckCommand@@@@Z 
01:00091404 ?anonymous$o0$3$getstyleribbon/0nf$ribbonDesignerDlg@1@SAXPAUanonymous$o0$3$getstyleribbon/0nf$ribbonDesignerDlgc_struct@1@QAVcommand@@@@Z 
01:0009155C ?anonymous$o0$4$getstyleribbon/0nf$ribbonDesignerDlg@1@SAXPAUanonymous$o0$4$getstyleribbon/0nf$ribbonDesignerDlgc_struct@1@QAVcheckCommand@@@@Z 
01:00091608 ?_getStyleRibbon@ribbonDesignerDlg@@SAXQAV1@@PAPAUsection_struct@ribbonControl@@@Z  (Idle)
01:00092098 ?_tryGetRowStyle@ribbonDesignerDlg@@SAXQAV1@@PAH@Z 
01:00092178 ?cmdChangeRowStyle@ribbonDesignerDlg@@SAXQAV1@@H@Z 
01:00092398 ?_distributeEvenly@ribbonDesignerDlg@@SAXHPAU?$__packedList_struct@Uitem@@@@PAPAU?$__packedList_struct@PAPAU?$__packedList_struct@U2@@@@@@Z 
01:0009247C ?_tryGetStyle@ribbonDesignerDlg@@SAXQAV1@@AAUpositive@@@Z 
01:0009254C ?cmdChangeStyle@ribbonDesignerDlg@@SAXQAV1@@PBUpositive@@@Z 
01:000926CC ?onSelectChange@ribbonDesignerDlg@@SAXQAV1@@QAVribbonControl@@@@Z 
01:00092794 ?_onDesignRibbonBeginDrag@ribbonDesignerDlg@@SAXQAV1@@QAVribbonControl@@@PAUpnt_struct@vpiDomains@@PAU?$__packedList_struct@Upositive@@@@PAPAUdesignDragBeginResponse_struct@3@@Z 
01:000928CC ?_createDragBitmap@ribbonDesignerDlg@@SAXQAV1@@PAUrct_struct@vpiDomains@@PAPAVbitmap@@@@Z 
01:00092A3C ?onDesignRibbonDrop@ribbonDesignerDlg@@SAXQAV1@@QAVdropSite@@@QAVwindow@@@PAU?$__packedList_struct@Uany@@@@PAUdragShape_struct@dragNdrop@@PAUpnt_struct@vpiDomains@@PBUkeyModifier@@@Z 
01:00092A88 ?onDesignRibbonDrag@ribbonDesignerDlg@@SAXQAV1@@QAVdropSite@@@QAVwindow@@@PAU?$__packedList_struct@Uany@@@@PAUdragShape_struct@dragNdrop@@PAUpnt_struct@vpiDomains@@PBUkeyModifier@@@Z 
01:00092ABC ?onDesignRibbonBeginDrag@ribbonDesignerDlg@@SAXQAV1@@QAVdropSite@@@QAVwindow@@@PAU?$__packedList_struct@Uany@@@@PAUdragShape_struct@dragNdrop@@@Z 
01:00092AE8 ?onDesignRibbonCompleteDrag@ribbonDesignerDlg@@SAXQAV1@@QAVdropSite@@@QAVwindow@@@PAU?$__packedList_struct@Uany@@@@PAUdragShape_struct@dragNdrop@@PAUdragResult_struct@3@@Z 
01:00092B14 ?designRibbonDropItemList@ribbonDesignerDlg@@SAXQAV1@@PAU?$__packedList_struct@Uany@@@@PAU?$__packedList_struct@Upositive@@@@@Z 
01:00092D10 ?isDropItemValid@ribbonDesignerDlg@@SAXPAU?$__packedList_struct@Upositive@@@@0@Z 
01:00092D44 ?_removePathFromPath@ribbonDesignerDlg@@SAXPAU?$__packedList_struct@Upositive@@@@0PAPAU?$__packedList_struct@U2@@@@Z 
01:00092E8C ?onDlgDrop@ribbonDesignerDlg@@SAXQAV1@@QAVdropSite@@@QAVwindow@@@PAU?$__packedList_struct@Uany@@@@PAUdragShape_struct@dragNdrop@@PAUpnt_struct@vpiDomains@@PBUkeyModifier@9@@Z 
01:00092F2C ?isRibbonRibbonRequired@ribbonDesignerDlg@@SAXQAV1@@@Z  (Idle)
01:00092F8C ?anonymous$o0$1$getribbonribbon/0nf$ribbonDesignerDlg@1@SAXPAUanonymous$o0$1$getribbonribbon/0nf$ribbonDesignerDlgc_struct@1@QAVcommand@@@@Z 
01:00092FE0 ?anonymous$o0$2$getribbonribbon/0nf$ribbonDesignerDlg@1@SAXPAUanonymous$o0$2$getribbonribbon/0nf$ribbonDesignerDlgc_struct@1@QAVcommand@@@@Z 
01:00093034 ?anonymous$o0$3$getribbonribbon/0nf$ribbonDesignerDlg@1@SAXPAUanonymous$o0$3$getribbonribbon/0nf$ribbonDesignerDlgc_struct@1@QAVcommand@@@@Z 
01:00093088 ?_getRibbonRibbon@ribbonDesignerDlg@@SAXQAV1@@PAPAUsection_struct@ribbonControl@@@Z  (Idle)
01:000935C4 ?onRibbonSave@ribbonDesignerDlg@@SAXQAV1@@QAVcommand@@@@Z 
01:00093610 ?onRibbonDelete@ribbonDesignerDlg@@SAXQAV1@@QAVcommand@@@@Z 
01:0009365C ?onRibbonReset@ribbonDesignerDlg@@SAXQAV1@@QAVcommand@@@@Z 
01:00093698 ?sectionListViewShow@ribbonDesignerDlg@@SAXQAV1@@@Z  (Idle)
01:00093848 ?_itemId2Idx@ribbonDesignerDlg@@SAXPBUitemId@listViewControl@@AAUpositive@@@Z  (Idle)
01:0009387C ?_idx2ItemId@ribbonDesignerDlg@@SAXPBUpositive@@AAUitemId@listViewControl@@@Z  (Idle)
01:000938A0 ?sectionListViewQueryState@ribbonDesignerDlg@@SAXQAV1@@@Z 
01:00093A30 ?onSectionListViewDragBegin@ribbonDesignerDlg@@SAXQAV1@@QAVlistViewControl@@@IH@Z 
01:00093AC8 ?_getSectionDragItemList@ribbonDesignerDlg@@SAXQAV1@@PAPAU?$__packedList_struct@Uany@@@@@Z 
01:00093BD8 ?onSectionNew@ribbonDesignerDlg@@SAXQAV1@@QAVcommand@@@@Z 
01:00093D34 ?onSectionAdd@ribbonDesignerDlg@@SAXQAV1@@QAVcommand@@@@Z 
01:00093D8C ?onSectionRemove@ribbonDesignerDlg@@SAXQAV1@@QAVcommand@@@@Z 
01:00093E8C ?onSectionSave@ribbonDesignerDlg@@SAXQAV1@@QAVcommand@@@@Z 
01:00093F5C ?onSectionDelete@ribbonDesignerDlg@@SAXQAV1@@QAVcommand@@@@Z 
01:00094020 ?onSectionQuery@ribbonDesignerDlg@@SAXQAV1@@QAVcommand@@@@Z 
01:000941C8 ?anonymous$o0$1$getsectionribbon/0nf$ribbonDesignerDlg@1@SAXPAUanonymous$o0$1$getsectionribbon/0nf$ribbonDesignerDlgc_struct@1@QAVcommand@@@@Z 
01:00094268 ?anonymous$o0$2$getsectionribbon/0nf$ribbonDesignerDlg@1@SAXPAUanonymous$o0$2$getsectionribbon/0nf$ribbonDesignerDlgc_struct@1@QAVcommand@@@@Z 
01:00094320 ?anonymous$o0$3$getsectionribbon/0nf$ribbonDesignerDlg@1@SAXPAUanonymous$o0$3$getsectionribbon/0nf$ribbonDesignerDlgc_struct@1@QAVcommand@@@@Z 
01:00094408 ?anonymous$o0$4$getsectionribbon/0nf$ribbonDesignerDlg@1@SAXPAUanonymous$o0$4$getsectionribbon/0nf$ribbonDesignerDlgc_struct@1@QAVcommand@@@@Z 
01:00094518 ?anonymous$o0$5$getsectionribbon/0nf$ribbonDesignerDlg@1@SAXPAUanonymous$o0$5$getsectionribbon/0nf$ribbonDesignerDlgc_struct@1@QAVcommand@@@@Z 
01:000946AC ?_getSectionRibbon@ribbonDesignerDlg@@SAXQAV1@@PAPAUsection_struct@ribbonControl@@@Z  (Idle)
01:00095068 ?onSectionListViewCtlSelectEnd@ribbonDesignerDlg@@SAXQAV1@@QAVlistViewControl@@@PBUitemId@@PAUboolean_struct@_builtIn@@@Z 
01:000950F8 ?onSectionListViewCtlColumnClick@ribbonDesignerDlg@@SAXQAV1@@QAVlistViewControl@@@I@Z 
01:00095128 ?sectionSortItems@ribbonDesignerDlg@@SAXQAV1@@IPAUorder_struct@listViewControl@@@Z 
01:00095214 ?_sectionDeriveNewSortOrder@ribbonDesignerDlg@@SAXQAV1@@IPAPAUorder_struct@listViewControl@@@Z 
01:000952C8 ?_anonymous$o0$1$cmdlistviewshow/0np$ribbonDesignerDlg@1@SAXQAVcommand@@@0PAPAUcompareResult_struct@_builtIn@@@Z 
01:000952FC ?cmdListViewShow@ribbonDesignerDlg@@SAXQAV1@@@Z  (Idle)
01:000957D8 ?_tooltipRender@ribbonDesignerDlg@@SAXQAV1@@PAUpnt_struct@vpiDomains@@PAPAUtuple_struct@core@@PAPAUrct_struct@4@PAPB_WPAPAUoptional_struct@6@PAPAU34@@Z 
01:000959B8 ?_anonymous$o0$1$cmdlistrefresh/0np$ribbonDesignerDlg@1@SAXPAUanonymous$o0$1$cmdlistrefresh/0np$ribbonDesignerDlgc_struct@1@QAVlistViewControl@@@PBUitemId@@2PAPAUcompareResult_struct@_builtIn@@@Z 
01:00095A98 ?cmdListRefresh@ribbonDesignerDlg@@SAXQAV1@@@Z 
01:00095BA8 ?_cmpIdAndItem@ribbonDesignerDlg@@SAXPBUitemId@listViewControl@@PAUitem_struct@3@PAPAUcompareResult_struct@_builtIn@@@Z 
01:00095BE4 ?_cmdFormatName@ribbonDesignerDlg@@SAXPB_WPAPB_W@Z  (Idle)
01:00095C88 ?_cmdListQueryItems@ribbonDesignerDlg@@SAXQAV1@@PB_WPAPAU?$__packedList_struct@Uitem@listViewControl@@@@@Z 
01:000961F8 ?_anonymous$c0$1$cmdqueryrankitem/2nf$ribbonDesignerDlg@1@SAXPANPANPAN@Z 
01:00096234 ?_cmdQueryRankItem@ribbonDesignerDlg@@SAXPB_WPAU?$__packedList_struct@Ustring@@@@PAPAN@Z 
01:00096314 ?_queryRankItemMatch@ribbonDesignerDlg@@SAXPB_WPAU?$__packedList_struct@Ustring@@@@PAPAN@Z 
01:000965DC ?_queryRankWordMatch@ribbonDesignerDlg@@SAXPB_W0PAPAN@Z 
01:000966B8 ?_tryLookupCmdSection@ribbonDesignerDlg@@SAXQAV1@@PB_WPAPB_W@Z 
01:00096790 ?onCmdListViewDragBegin@ribbonDesignerDlg@@SAXQAV1@@QAVlistViewControl@@@IH@Z 
01:0009691C ?_getCmdDragItemList@ribbonDesignerDlg@@SAXQAV1@@PAPAU?$__packedList_struct@Uany@@@@@Z 
01:00096A64 ?onCmdListViewCtlSelectEnd@ribbonDesignerDlg@@SAXQAV1@@QAVlistViewControl@@@PBUitemId@@PAUboolean_struct@_builtIn@@@Z 
01:00096A90 ?onCmdAdd@ribbonDesignerDlg@@SAXQAV1@@QAVcommand@@@@Z 
01:00096AE8 ?onCmdRemove@ribbonDesignerDlg@@SAXQAV1@@QAVcommand@@@@Z 
01:00096B64 ?anonymous$o0$1$getcmdribbon/0nf$ribbonDesignerDlg@1@SAXPAUanonymous$o0$1$getcmdribbon/0nf$ribbonDesignerDlgc_struct@1@QAVcommand@@@@Z 
01:00096C04 ?anonymous$o0$2$getcmdribbon/0nf$ribbonDesignerDlg@1@SAXPAUanonymous$o0$2$getcmdribbon/0nf$ribbonDesignerDlgc_struct@1@QAVcommand@@@@Z 
01:00096CBC ?_getCmdRibbon@ribbonDesignerDlg@@SAXQAV1@@PAPAUsection_struct@ribbonControl@@@Z  (Idle)
01:00096FB4 ?onCmdListViewCtlColumnClick@ribbonDesignerDlg@@SAXQAV1@@QAVlistViewControl@@@I@Z 
01:00096FE4 ?cmdSortItems@ribbonDesignerDlg@@SAXQAV1@@@Z 
01:00097030 ?_anonymous$o0$1$cmdsortitems/2np$ribbonDesignerDlg@1@SAXPAUanonymous$o0$1$cmdsortitems/2np$ribbonDesignerDlgc_struct@1@QAVlistViewControl@@@IIPAPAUcompareResult_struct@_builtIn@@@Z 
01:00097084 ?cmdSortItems@ribbonDesignerDlg@@SAXQAV1@@IPAUorder_struct@listViewControl@@@Z 
01:000971A4 ?_cmpItem@ribbonDesignerDlg@@SAXQAV1@@IIIPAUorder_struct@listViewControl@@PAPAUcompareResult_struct@_builtIn@@@Z 
01:0009726C ?_cmpStr@ribbonDesignerDlg@@SAXPB_W0PAPAUcompareResult_struct@_builtIn@@@Z 
01:000972B8 ?_cmdDeriveNewSortOrder@ribbonDesignerDlg@@SAXQAV1@@IPAPAUorder_struct@listViewControl@@@Z 
01:0009736C ?cmdQuickSearchOnChange@ribbonDesignerDlg@@SAXQAV1@@QAVeditControl@@@@Z 
01:000973FC ?_cmdQuickSearchNativeMsg@ribbonDesignerDlg@@SAXQAV1@@QAVwindow@@@IPBUwParam@@PBUlParam@@PAPAUnativeResponse_struct@3@@Z 
01:000975D4 ?_onCmdQuickSearchResetCtlClick@ribbonDesignerDlg@@SAXQAV1@@QAVbutton@@@PAPAUactionResponse_struct@3@@Z 
01:00097614 ?_display@ribbonDesignerDlg@@SAXQAVwindow@@@PAPAV1@@@Z  (Idle)
01:0009763C ?anonymous$o0$1$new/1np$ribbonDesignerDlg@1@SAXPAUanonymous$o0$1$new/1np$ribbonDesignerDlgc_struct@1@QAVwindow@@@PBUlParam@@@Z 
01:000977C8 ?new@ribbonDesignerDlg@@SAXQAV1@@QAVwindow@@@@Z  (Idle)
01:00097F4C ?show@ribbonDesignerDlg@@SAXQAVwindow@@@@Z 
01:00098014 ?_onOkClick@ribbonDesignerDlg@@SAXQAV1@@QAVbutton@@@PAPAUactionResponse_struct@3@@Z 
01:00098034 ?_onCancelClick@ribbonDesignerDlg@@SAXQAV1@@QAVbutton@@@PAPAUactionResponse_struct@3@@Z 
01:00098050 ?generatedInitialize@ribbonDesignerDlg@@SAXQAV1@@@Z 
01:000998B0 ?_new@ribbonDesignerDlg@@SAXQAVwindow@@@PAPAV1@@@Z 
01:000998D8 ?_object_facts_initializer@ribbonDesignerDlg@@SGXQAV1@@@Z 
01:00099918 ?uiTranslator@ribbonDesignerDlg@@SGXX@Z  (Idle)
01:00099924 ?uiTranslator@ribbonDesignerDlg@@SGXXZ  (Idle)
01:0009992C ?uiPathTranslator@ribbonDesignerDlg@@SGXX@Z  (Idle)
01:00099938 ?uiPathTranslator@ribbonDesignerDlg@@SGXXZ  (Idle)
01:00099940 ?cmdHost@ribbonDesignerDlg@@SGXQAV1@@QAVwindow@@@@Z 
01:00099950 ?cmdHost@ribbonDesignerDlg@@SGQAVwindow@@@QAV1@@@Z 
01:00099970 ?predefinedSections@ribbonDesignerDlg@@SGXQAV1@@PAU?$__packedList_struct@Usection@ribbonControl@@@@@Z 
01:00099980 ?predefinedSections@ribbonDesignerDlg@@SGPAU?$__packedList_struct@Usection@ribbonControl@@@@QAV1@@@Z 
01:0009998C ?saveRibbonResponder@ribbonDesignerDlg@@SGXQAV1@@X@Z 
01:0009999C ?saveRibbonResponder@ribbonDesignerDlg@@SGXQAV1@@@Z 
01:000999BC ?deleteRibbonResponder@ribbonDesignerDlg@@SGXQAV1@@X@Z 
01:000999CC ?deleteRibbonResponder@ribbonDesignerDlg@@SGXQAV1@@@Z 
01:000999EC ?resetRibbonResponder@ribbonDesignerDlg@@SGXQAV1@@X@Z 
01:000999FC ?resetRibbonResponder@ribbonDesignerDlg@@SGXQAV1@@@Z 
01:00099A1C ?saveSectionResponder@ribbonDesignerDlg@@SGXQAV1@@X@Z 
01:00099A2C ?saveSectionResponder@ribbonDesignerDlg@@SGXQAV1@@@Z 
01:00099A4C ?deleteSectionResponder@ribbonDesignerDlg@@SGXQAV1@@X@Z 
01:00099A5C ?deleteSectionResponder@ribbonDesignerDlg@@SGXQAV1@@@Z 
01:00099A7C ?querySectionResponder@ribbonDesignerDlg@@SGXQAV1@@X@Z 
01:00099A8C ?querySectionResponder@ribbonDesignerDlg@@SGXQAV1@@@Z 
01:00099AAC $availableCmdList$ribbonDesignerDlg_implement$predicate$(i,i)$c$ 
01:00099ABC $availableCmdList$ribbonDesignerDlg_implement$predicate$(i)$c$ 
01:0009AD84 ribbonDesignerDlg?_initObject@@@QAGXQAV1@H@Z 
01:0009ADCC ?@create_object@ribbonDesignerDlg@@SGQAV1@@XZ 
01:0009ADE8 ribbonDesignerDlg?_InternalFinalizer@@@QAGXQAV1@@Z 
--- From 'Obj\scilexer.3C7EBDAC.obj'
01:0009AE00 ?new@sciLexer@@SAXQAV1@@@Z 
01:0009AE50 ?new@sciLexer@@SAXQAV1@@QAVcontainerWindow@@@@Z  (Idle)
01:0009AE68 ?show@sciLexer@@SAXQAVwindow@@@@Z 
01:0009B254 ?setFont@sciLexer@@SAXQAVwindow@@@PBUfont@vpiDomains@@@Z 
01:0009B440 ?usePopup@sciLexer@@SGXQAVsciLexerBase@@@PAUboolean_struct@_builtIn@@@Z 
01:0009B498 ?_onContextMenu@sciLexer@@SAXQAV1@@QAVwindow@@@PAUcontextMenuInput_struct@3@PAPAUcontextMenuResponse_struct@3@@Z 
01:0009B740 ?tryOnContextMenuItem@sciLexer@@SAXQAV1@@PBUmenuTag@@@Z  (Idle)
01:0009B7A8 ?anonymous$o0$1$onnative/4nf$sciLexer@1@SAXPAUanonymous$o0$1$onnative/4nf$sciLexerc_struct@1@@Z 
01:0009B7F0 ?_onNative@sciLexer@@SAXQAV1@@QAVwindow@@@IPBUwParam@@PBUlParam@@PAPAUnativeResponse_struct@3@@Z 
01:0009BB98 ?_getKeyModifier@sciLexer@@SAXAAUkeyModifier@vpiDomains@@@Z 
01:0009BC0C ?_getKeyModifier2@sciLexer@@SAXHPBUkeyModifier@vpiDomains@@AAU23@@Z 
01:0009BC70 ?_tryGetKeydownAction@sciLexer@@SAXQAV1@@PBUkeyModifier@vpiDomains@@HPAX@Z 
01:0009BDF4 ?tab_vip@sciLexer@@SAXQAVsciLexerBase@@@@Z 
01:0009BE08 ?backTab_vip@sciLexer@@SAXQAVsciLexerBase@@@@Z 
01:0009BE1C ?changeIndent@sciLexer@@SAXQAV1@@PAUboolean_struct@_builtIn@@@Z 
01:0009C064 ?changeIndentLine@sciLexer@@SAXQAV1@@PBUlineNumber@@H@Z 
01:0009C11C ?indentStep@sciLexer@@SGHQAVsciLexerBase@@@@Z 
--- From 'Obj\scilexersupport.81F1978C.obj'
01:0009C154 ?_getInVisitOrder_nd@sciLexer@@SAXPAPAV1@@@Z 
01:0009C1A0 ?_tryGetEditor@sciLexer@@SAXPAPAV1@@@Z 
--- From 'Obj\scilexer.3C7EBDAC.obj'
01:0009C1CC ?onCharLF@sciLexer@@SAXQAV1@@@Z  (Idle)
01:0009C26C ?onCharAdded@sciLexer@@SAXQAV1@@QAVsciLexerBase@@@H@Z 
01:0009C288 ?extraLineSeparation@sciLexer@@SGHQAVsciLexerBase@@@@Z 
01:0009C2B8 ?extraLineSeparation@sciLexer@@SGXQAVsciLexerBase@@@H@Z 
01:0009C2EC ?highlightSelectedWords@sciLexer@@SGHQAVsciLexerBase@@@@Z 
01:0009C304 ?highlightSelectedWords@sciLexer@@SGXQAVsciLexerBase@@@H@Z 
01:0009C3D8 ?onUpdateUI_highlightSelectedWords@sciLexer@@SAXQAV1@@QAVsciLexerBase@@@I@Z 
01:0009C4A8 ?_isWordSelected@sciLexer@@SAXQAV1@@PAPB_W@Z 
01:0009C544 ?highlightSelectedWords@sciLexer@@SAXQAV1@@PBUsci_style@@PB_W@Z 
01:0009C594 ?highlightSelectedWords2@sciLexer@@SAXQAV1@@PBUsci_style@@PB_WHH@Z 
01:0009C6B0 ?setDefaultLexerStyle@sciLexer@@SAXQAVsciLexerBase@@@@Z 
01:0009C6DC ?lexerDefault_visualProlog@sciLexer@@SAXQAVsciLexerBase@@@@Z 
01:0009C708 ?lexerDefault_vipGrammar@sciLexer@@SAXQAVsciLexerBase@@@@Z 
01:0009C734 ?lexerDefault_cpp@sciLexer@@SAXQAVsciLexerBase@@@@Z 
01:0009C760 ?lexerDefault_html@sciLexer@@SAXQAVsciLexerBase@@@@Z 
01:0009C78C ?lexerDefault_xml@sciLexer@@SAXQAVsciLexerBase@@@@Z 
01:0009C7B8 ?setDefaultLexerStyle_postAction@sciLexer@@SAXQAV1@@@Z 
01:0009C8A0 ?lexerDefault_visualProlog_postAction@sciLexer@@SAXQAV1@@@Z 
01:0009C90C ?lexerDefault_vipGrammar_postAction@sciLexer@@SAXQAV1@@@Z 
01:0009C978 ?lexerDefault_visualProlog_style@sciLexer@@SAXQAV1@@@Z 
01:0009CB74 ?lexerDefault_cpp_postAction@sciLexer@@SAXQAV1@@@Z 
01:0009CD5C ?styleSetFore_cpp@sciLexer@@SAXQAV1@@PBUsci_style@@H@Z 
01:0009CDA8 ?lexerDefault_html_postAction@sciLexer@@SAXQAV1@@@Z 
01:0009DE90 ?lexerDefault_xml_postAction@sciLexer@@SAXQAV1@@@Z 
01:0009DF68 ?xmlHtmlDefault@sciLexer@@SAXQAV1@@H@Z 
01:0009E204 ?lexerDefault_extension@sciLexer@@SAXQAVsciLexerBase@@@PB_W@Z 
01:0009E278 ?extension_lexer@sciLexer@@SAXQAV1@@PAXPAPAU?$__packedList_struct@Ustring@@@@@Z 
01:0009E3CC ?textUtf8@sciLexer@@SGPADQAVsciLexerBase@@@@Z 
01:0009E430 ?textUtf8@sciLexer@@SGXQAVsciLexerBase@@@PAD@Z 
01:0009E470 ?text@sciLexer@@SGPB_WQAVsciLexerBase@@@@Z 
01:0009E4A0 ?text@sciLexer@@SGXQAVsciLexerBase@@@PB_W@Z 
01:0009E4D0 ?setSavepoint@sciLexer@@SAXQAVsciLexerBase@@@@Z 
01:0009E4FC ?_getLine@sciLexer@@SAXQAVsciLexerBase@@@PBUlineNumber@@PAPB_W@Z 
01:0009E5C0 ?replaceSel@sciLexer@@SAXQAVsciLexerBase@@@PB_W@Z 
01:0009E60C ?readOnly@sciLexer@@SGPAUboolean_struct@_builtIn@@QAVsciLexerBase@@@@Z 
01:0009E664 ?anonymous$o0$1$readonly/1np$sciLexer@1@SAXPAUanonymous$o0$1$readonly/1np$sciLexerc_struct@1@@Z 
01:0009E6BC ?readOnly@sciLexer@@SGXQAVsciLexerBase@@@PAUboolean_struct@_builtIn@@@Z 
01:0009E70C ?lastPos@sciLexer@@SGPBUbyteCount@@QAVsciLexerBase@@@@Z 
01:0009E760 ?_getTextRange@sciLexer@@SAXQAVsciLexerBase@@@HHPAPB_W@Z 
01:0009E838 ?allocate@sciLexer@@SAXQAVsciLexerBase@@@PBUbyteCount@@@Z 
01:0009E864 ?appendText@sciLexer@@SAXQAVsciLexerBase@@@PB_W@Z 
01:0009E8C4 ?insertText@sciLexer@@SAXQAVsciLexerBase@@@PB_W@Z 
01:0009E8E0 ?insertText@sciLexer@@SAXQAVsciLexerBase@@@HPB_W@Z 
01:0009E92C ?addText@sciLexer@@SAXQAVsciLexerBase@@@PB_W@Z 
01:0009E98C ?clearAll@sciLexer@@SAXQAVsciLexerBase@@@@Z 
01:0009E9B8 ?deleteRange@sciLexer@@SAXQAVsciLexerBase@@@HH@Z 
01:0009E9E4 ?clearDocumentStyle@sciLexer@@SAXQAVsciLexerBase@@@@Z 
01:0009EA10 ?_tryGetChar8At@sciLexer@@SAXQAVsciLexerBase@@@HAAUchar8@@@Z 
01:0009EA58 ?_tryGetCharAt@sciLexer@@SAXQAVsciLexerBase@@@HPA_W@Z 
01:0009EB84 ?_tryGetStyleAt@sciLexer@@SAXQAVsciLexerBase@@@HAAUsci_style@@@Z 
01:0009EBCC ?styleBits@sciLexer@@SGXQAVsciLexerBase@@@PBUpositive@@@Z 
01:0009EC0C ?styleBits@sciLexer@@SGPBUpositive@@QAVsciLexerBase@@@@Z 
01:0009EC60 ?_tryFindText@sciLexer@@SAXQAVsciLexerBase@@@HPAUsci_characterRange_struct@sciLexer_native@@PB_WPAPAU34@@Z 
01:0009ED10 ?searchAnchor@sciLexer@@SAXQAVsciLexerBase@@@@Z 
01:0009ED3C ?_trySearchNext@sciLexer@@SAXQAVsciLexerBase@@@HPB_WPAH@Z 
01:0009ED9C ?_trySearchPrev@sciLexer@@SAXQAVsciLexerBase@@@HPB_WPAH@Z 
01:0009EDFC ?targetStart@sciLexer@@SGXQAVsciLexerBase@@@H@Z 
01:0009EE3C ?targetStart@sciLexer@@SGHQAVsciLexerBase@@@@Z 
01:0009EE80 ?targetEnd@sciLexer@@SGXQAVsciLexerBase@@@H@Z 
01:0009EEC0 ?targetEnd@sciLexer@@SGHQAVsciLexerBase@@@@Z 
01:0009EF04 ?targetFromSelection@sciLexer@@SAXQAVsciLexerBase@@@@Z 
01:0009EF30 ?searchFlags@sciLexer@@SGXQAVsciLexerBase@@@H@Z 
01:0009EF70 ?searchFlags@sciLexer@@SGHQAVsciLexerBase@@@@Z 
01:0009EFB4 ?_trySearchInTarget@sciLexer@@SAXQAVsciLexerBase@@@PB_WPAH@Z 
01:0009F020 ?replaceTarget@sciLexer@@SAXQAVsciLexerBase@@@PB_W@Z 
01:0009F040 ?_replaceTarget@sciLexer@@SAXQAVsciLexerBase@@@PB_WPAH@Z 
01:0009F09C ?replaceTargetRE@sciLexer@@SAXQAVsciLexerBase@@@PB_W@Z 
01:0009F0BC ?_replaceTargetRE@sciLexer@@SAXQAVsciLexerBase@@@PB_WPAH@Z 
01:0009F118 ?_getTag@sciLexer@@SAXQAVsciLexerBase@@@HPAPB_W@Z 
01:0009F1C8 ?removeTrailingSpaces@sciLexer@@SAXQAVsciLexerBase@@@@Z 
01:0009F228 ?removeTrailingSpaces2@sciLexer@@SAXQAV1@@@Z 
01:0009F29C ?overType@sciLexer@@SGXQAVsciLexerBase@@@PAUboolean_struct@_builtIn@@@Z 
01:0009F2F0 ?overType@sciLexer@@SGPAUboolean_struct@_builtIn@@QAVsciLexerBase@@@@Z 
01:0009F348 ?cut@sciLexer@@SAXQAVsciLexerBase@@@@Z 
01:0009F3B4 ?copy@sciLexer@@SAXQAVsciLexerBase@@@@Z 
01:0009F444 ?_getHTML@sciLexer@@SAXQAV1@@HHPAPB_W@Z 
01:0009F558 ?writeHTML@sciLexer@@SAXQAV1@@QAVoutputStream@@@PBUsci_style@@HH@Z 
01:0009F84C ?_mustEncode@sciLexer@@SAX_WPAPB_W@Z 
01:0009F900 ?paste@sciLexer@@SAXQAVsciLexerBase@@@@Z 
01:0009F92C ?clear@sciLexer@@SAXQAVsciLexerBase@@@@Z 
01:0009F958 ?canPaste@sciLexer@@SGPAUboolean_struct@_builtIn@@QAVsciLexerBase@@@@Z 
01:0009F9B0 ?canCopy@sciLexer@@SGPAUboolean_struct@_builtIn@@QAVsciLexerBase@@@@Z 
01:0009F9F4 ?canCut@sciLexer@@SGPAUboolean_struct@_builtIn@@QAVsciLexerBase@@@@Z 
01:0009FA60 ?copyAllowLine@sciLexer@@SAXQAVsciLexerBase@@@@Z 
01:0009FA8C ?copyRange@sciLexer@@SAXQAVsciLexerBase@@@HH@Z 
01:0009FAB8 ?copyText@sciLexer@@SAXQAVsciLexerBase@@@PB_W@Z 
01:0009FB18 ?pasteConvertEndings@sciLexer@@SGPAUboolean_struct@_builtIn@@QAVsciLexerBase@@@@Z 
01:0009FB70 ?pasteConvertEndings@sciLexer@@SGXQAVsciLexerBase@@@PAUboolean_struct@_builtIn@@@Z 
01:0009FBC4 ?status@sciLexer@@SGHQAVsciLexerBase@@@@Z 
01:0009FC08 ?status@sciLexer@@SGXQAVsciLexerBase@@@H@Z 
01:0009FC48 ?undo@sciLexer@@SAXQAVsciLexerBase@@@@Z 
01:0009FC74 ?redo@sciLexer@@SAXQAVsciLexerBase@@@@Z 
01:0009FCA0 ?canUndo@sciLexer@@SGPAUboolean_struct@_builtIn@@QAVsciLexerBase@@@@Z 
01:0009FCF8 ?canRedo@sciLexer@@SGPAUboolean_struct@_builtIn@@QAVsciLexerBase@@@@Z 
01:0009FD50 ?emptyUndoBuffer@sciLexer@@SAXQAVsciLexerBase@@@@Z 
01:0009FD7C ?undoCollection@sciLexer@@SGPAUboolean_struct@_builtIn@@QAVsciLexerBase@@@@Z 
01:0009FDD4 ?undoCollection@sciLexer@@SGXQAVsciLexerBase@@@PAUboolean_struct@_builtIn@@@Z 
01:0009FE40 ?beginUndoAction@sciLexer@@SAXQAVsciLexerBase@@@@Z 
01:0009FE6C ?endUndoAction@sciLexer@@SAXQAVsciLexerBase@@@@Z 
01:0009FE98 ?addUndoAction@sciLexer@@SAXQAVsciLexerBase@@@HH@Z 
01:0009FEC4 ?lineCount@sciLexer@@SGPBUlineNumber@@QAVsciLexerBase@@@@Z 
01:0009FF08 ?firstVisibleLine@sciLexer@@SGXQAVsciLexerBase@@@PBUlineNumber@@@Z 
01:0009FF5C ?firstVisibleLine@sciLexer@@SGPBUlineNumber@@QAVsciLexerBase@@@@Z 
01:0009FFB4 ?linesOnScreen@sciLexer@@SGHQAVsciLexerBase@@@@Z 
01:0009FFF8 ?isModified@sciLexer@@SAXQAVsciLexerBase@@@@Z 
01:000A0040 ?setSel@sciLexer@@SAXQAVsciLexerBase@@@HH@Z 
01:000A006C ?gotoPos@sciLexer@@SAXQAVsciLexerBase@@@H@Z 
01:000A0098 ?gotoLine@sciLexer@@SAXQAVsciLexerBase@@@PBUlineNumber@@@Z 
01:000A00E4 ?currentPos@sciLexer@@SGXQAVsciLexerBase@@@H@Z 
01:000A0124 ?currentPos@sciLexer@@SGHQAVsciLexerBase@@@@Z 
01:000A0168 ?anchor@sciLexer@@SGXQAVsciLexerBase@@@H@Z 
01:000A01A8 ?anchor@sciLexer@@SGHQAVsciLexerBase@@@@Z 
01:000A01EC ?selectionStart@sciLexer@@SGXQAVsciLexerBase@@@H@Z 
01:000A022C ?selectionStart@sciLexer@@SGHQAVsciLexerBase@@@@Z 
01:000A0270 ?selectionEnd@sciLexer@@SGXQAVsciLexerBase@@@H@Z 
01:000A02B0 ?selectionEnd@sciLexer@@SGHQAVsciLexerBase@@@@Z 
01:000A02F4 ?setEmptySelection@sciLexer@@SAXQAVsciLexerBase@@@H@Z 
01:000A0320 ?selectAll@sciLexer@@SAXQAVsciLexerBase@@@@Z 
01:000A034C ?_lineFromPosition@sciLexer@@SAXQAVsciLexerBase@@@HAAUlineNumber@@@Z 
01:000A039C ?_positionFromLine@sciLexer@@SAXQAVsciLexerBase@@@PBUlineNumber@@PAH@Z 
01:000A03E8 ?_getLineEndPosition@sciLexer@@SAXQAVsciLexerBase@@@PBUlineNumber@@PAH@Z 
01:000A0434 ?_lineLength@sciLexer@@SAXQAVsciLexerBase@@@PBUlineNumber@@PAH@Z 
01:000A0480 ?selText@sciLexer@@SGPB_WQAVsciLexerBase@@@@Z 
01:000A04C4 ?selTextMultiple@sciLexer@@SGPB_WQAVsciLexerBase@@@@Z 
01:000A056C ?curLine@sciLexer@@SGPB_WQAVsciLexerBase@@@@Z 
01:000A061C ?selectionIsRectangle@sciLexer@@SAXQAVsciLexerBase@@@@Z 
01:000A0664 ?selectionMode@sciLexer@@SGXQAVsciLexerBase@@@H@Z 
01:000A06A4 ?selectionMode@sciLexer@@SGHQAVsciLexerBase@@@@Z 
01:000A06E8 ?_tryGetLineSelStartPosition@sciLexer@@SAXQAVsciLexerBase@@@PBUlineNumber@@PAH@Z 
01:000A0748 ?_tryGetLineSelEndPosition@sciLexer@@SAXQAVsciLexerBase@@@PBUlineNumber@@PAH@Z 
01:000A07A8 ?moveCaretInsideView@sciLexer@@SAXQAVsciLexerBase@@@@Z 
01:000A07D4 ?_wordEndPosition@sciLexer@@SAXQAVsciLexerBase@@@HPAUboolean_struct@_builtIn@@PAH@Z 
01:000A0820 ?_wordStartPosition@sciLexer@@SAXQAVsciLexerBase@@@HPAUboolean_struct@_builtIn@@PAH@Z 
01:000A086C ?_tryPositionBefore@sciLexer@@SAXQAVsciLexerBase@@@HPAH@Z 
01:000A08A4 ?_tryPositionAfter@sciLexer@@SAXQAVsciLexerBase@@@HPAH@Z 
01:000A08F0 ?_countCharacters@sciLexer@@SAXQAVsciLexerBase@@@HHAAUcharCount@@@Z 
01:000A091C ?_textWidth@sciLexer@@SAXQAVsciLexerBase@@@PBUsci_style@@PB_WPAH@Z 
01:000A0968 ?_textHeight@sciLexer@@SAXQAVsciLexerBase@@@PBUlineNumber@@PAH@Z 
01:000A09B4 ?_getColumn@sciLexer@@SAXQAVsciLexerBase@@@HAAUlinePosition@@@Z 
01:000A0A04 ?_findColumn@sciLexer@@SAXQAVsciLexerBase@@@PBUlineNumber@@PBUlinePosition@@PAH@Z 
01:000A0A68 ?_positionFromPoint@sciLexer@@SAXQAVsciLexerBase@@@HHPAH@Z 
01:000A0A94 ?_tryPositionFromPointClose@sciLexer@@SAXQAVsciLexerBase@@@HHPAH@Z 
01:000A0AE0 ?_charPositionFromPoint@sciLexer@@SAXQAVsciLexerBase@@@HHPAH@Z 
01:000A0B0C ?_tryCharPositionFromPointClose@sciLexer@@SAXQAVsciLexerBase@@@HHPAH@Z 
01:000A0B58 ?_pointXFromPosition@sciLexer@@SAXQAVsciLexerBase@@@HPAH@Z 
01:000A0B84 ?_pointYFromPosition@sciLexer@@SAXQAVsciLexerBase@@@HPAH@Z 
01:000A0BB0 ?hideSelection@sciLexer@@SAXQAVsciLexerBase@@@PAUboolean_struct@_builtIn@@@Z 
01:000A0BFC ?chooseCaretX@sciLexer@@SAXQAVsciLexerBase@@@@Z 
01:000A0C28 ?moveSelectedLinesUp@sciLexer@@SAXQAVsciLexerBase@@@@Z 
01:000A0C54 ?moveSelectedLinesDown@sciLexer@@SAXQAVsciLexerBase@@@@Z 
01:000A0C80 ?multipleSelection@sciLexer@@SGXQAVsciLexerBase@@@PAUboolean_struct@_builtIn@@@Z 
01:000A0D00 ?multipleSelection@sciLexer@@SGPAUboolean_struct@_builtIn@@QAVsciLexerBase@@@@Z 
01:000A0D58 ?additionalSelectionTyping@sciLexer@@SGXQAVsciLexerBase@@@PAUboolean_struct@_builtIn@@@Z 
01:000A0DAC ?additionalSelectionTyping@sciLexer@@SGPAUboolean_struct@_builtIn@@QAVsciLexerBase@@@@Z 
01:000A0E04 ?multiPaste@sciLexer@@SGXQAVsciLexerBase@@@H@Z 
01:000A0E44 ?multiPaste@sciLexer@@SGHQAVsciLexerBase@@@@Z 
01:000A0E88 ?virtualSpaceOptions@sciLexer@@SGXQAVsciLexerBase@@@H@Z 
01:000A0EC8 ?virtualSpaceOptions@sciLexer@@SGHQAVsciLexerBase@@@@Z 
01:000A0F0C ?selections@sciLexer@@SGHQAVsciLexerBase@@@@Z 
01:000A0F50 ?clearSelections@sciLexer@@SAXQAVsciLexerBase@@@@Z 
01:000A0F7C ?setSelection@sciLexer@@SAXQAVsciLexerBase@@@HH@Z 
01:000A0FA8 ?addSelection@sciLexer@@SAXQAVsciLexerBase@@@HH@Z 
01:000A0FD4 ?mainSelection@sciLexer@@SGXQAVsciLexerBase@@@H@Z 
01:000A1014 ?mainSelection@sciLexer@@SGHQAVsciLexerBase@@@@Z 
01:000A1058 ?setSelectionNCaret@sciLexer@@SAXQAVsciLexerBase@@@HH@Z 
01:000A1084 ?_getSelectionNCaret@sciLexer@@SAXQAVsciLexerBase@@@HPAH@Z 
01:000A10B0 ?setSelectionNCaretVirtualSpace@sciLexer@@SAXQAVsciLexerBase@@@HH@Z 
01:000A10DC ?_getSelectionNCaretVirtualSpace@sciLexer@@SAXQAVsciLexerBase@@@HPAH@Z 
01:000A1108 ?setSelectionNAnchor@sciLexer@@SAXQAVsciLexerBase@@@HH@Z 
01:000A1134 ?_getSelectionNAnchor@sciLexer@@SAXQAVsciLexerBase@@@HPAH@Z 
01:000A1160 ?setSelectionNAnchorVirtualSpace@sciLexer@@SAXQAVsciLexerBase@@@HH@Z 
01:000A118C ?_getSelectionNAnchorVirtualSpace@sciLexer@@SAXQAVsciLexerBase@@@HPAH@Z 
01:000A11B8 ?setSelectionNStart@sciLexer@@SAXQAVsciLexerBase@@@HH@Z 
01:000A11E4 ?_getSelectionNStart@sciLexer@@SAXQAVsciLexerBase@@@HPAH@Z 
01:000A1210 ?setSelectionNEnd@sciLexer@@SAXQAVsciLexerBase@@@HH@Z 
01:000A123C ?_getSelectionNEnd@sciLexer@@SAXQAVsciLexerBase@@@HPAH@Z 
01:000A1268 ?rectangularSelectionCaret@sciLexer@@SGXQAVsciLexerBase@@@H@Z 
01:000A12A8 ?rectangularSelectionCaret@sciLexer@@SGHQAVsciLexerBase@@@@Z 
01:000A12EC ?rectangularSelectionCaretVirtualSpace@sciLexer@@SGXQAVsciLexerBase@@@H@Z 
01:000A132C ?rectangularSelectionCaretVirtualSpace@sciLexer@@SGHQAVsciLexerBase@@@@Z 
01:000A1370 ?rectangularSelectionAnchor@sciLexer@@SGXQAVsciLexerBase@@@H@Z 
01:000A13B0 ?rectangularSelectionAnchor@sciLexer@@SGHQAVsciLexerBase@@@@Z 
01:000A13F4 ?rectangularSelectionAnchorVirtualSpace@sciLexer@@SGXQAVsciLexerBase@@@H@Z 
01:000A1434 ?rectangularSelectionAnchorVirtualSpace@sciLexer@@SGHQAVsciLexerBase@@@@Z 
01:000A1478 ?additionalSelAlpha@sciLexer@@SGXQAVsciLexerBase@@@H@Z 
01:000A14B8 ?additionalSelAlpha@sciLexer@@SGHQAVsciLexerBase@@@@Z 
01:000A14FC ?setAdditionalSelFore@sciLexer@@SAXQAVsciLexerBase@@@H@Z 
01:000A1528 ?setAdditionalSelBack@sciLexer@@SAXQAVsciLexerBase@@@H@Z 
01:000A1554 ?additionalCaretFore@sciLexer@@SGXQAVsciLexerBase@@@H@Z 
01:000A1594 ?additionalCaretFore@sciLexer@@SGHQAVsciLexerBase@@@@Z 
01:000A15D8 ?additionalCaretsBlink@sciLexer@@SGXQAVsciLexerBase@@@PAUboolean_struct@_builtIn@@@Z 
01:000A162C ?additionalCaretsBlink@sciLexer@@SGPAUboolean_struct@_builtIn@@QAVsciLexerBase@@@@Z 
01:000A1684 ?additionalCaretsVisible@sciLexer@@SGXQAVsciLexerBase@@@PAUboolean_struct@_builtIn@@@Z 
01:000A16D8 ?additionalCaretsVisible@sciLexer@@SGPAUboolean_struct@_builtIn@@QAVsciLexerBase@@@@Z 
01:000A1730 ?swapMainAnchorCaret@sciLexer@@SAXQAVsciLexerBase@@@@Z 
01:000A175C ?rotateSelection@sciLexer@@SAXQAVsciLexerBase@@@@Z 
01:000A1788 ?lineScroll@sciLexer@@SAXQAVsciLexerBase@@@PBUlinePosition@@PBUlineNumber@@@Z 
01:000A17EC ?scrollCaret@sciLexer@@SAXQAVsciLexerBase@@@@Z 
01:000A1818 ?setXCaretPolicy@sciLexer@@SAXQAVsciLexerBase@@@HH@Z 
01:000A1844 ?setYCaretPolicy@sciLexer@@SAXQAVsciLexerBase@@@HH@Z 
01:000A1870 ?setVisiblePolicy@sciLexer@@SAXQAVsciLexerBase@@@HH@Z 
01:000A189C ?hScrollbar@sciLexer@@SGXQAVsciLexerBase@@@PAUboolean_struct@_builtIn@@@Z 
01:000A18F0 ?hScrollbar@sciLexer@@SGPAUboolean_struct@_builtIn@@QAVsciLexerBase@@@@Z 
01:000A1948 ?vScrollbar@sciLexer@@SGXQAVsciLexerBase@@@PAUboolean_struct@_builtIn@@@Z 
01:000A199C ?vScrollbar@sciLexer@@SGPAUboolean_struct@_builtIn@@QAVsciLexerBase@@@@Z 
01:000A19F4 ?xOffset@sciLexer@@SGXQAVsciLexerBase@@@H@Z 
01:000A1A34 ?xOffset@sciLexer@@SGHQAVsciLexerBase@@@@Z 
01:000A1A78 ?scrollWidth@sciLexer@@SGXQAVsciLexerBase@@@H@Z 
01:000A1AB8 ?scrollWidth@sciLexer@@SGHQAVsciLexerBase@@@@Z 
01:000A1AFC ?scrollWidthTracking@sciLexer@@SGXQAVsciLexerBase@@@PAUboolean_struct@_builtIn@@@Z 
01:000A1B50 ?scrollWidthTracking@sciLexer@@SGPAUboolean_struct@_builtIn@@QAVsciLexerBase@@@@Z 
01:000A1BA8 ?endatLastLine@sciLexer@@SGXQAVsciLexerBase@@@PAUboolean_struct@_builtIn@@@Z 
01:000A1BFC ?endatLastLine@sciLexer@@SGPAUboolean_struct@_builtIn@@QAVsciLexerBase@@@@Z 
01:000A1C54 ?viewWs@sciLexer@@SGXQAVsciLexerBase@@@H@Z 
01:000A1C94 ?viewWs@sciLexer@@SGHQAVsciLexerBase@@@@Z 
01:000A1CD8 ?setWhiteSpaceFore@sciLexer@@SAXQAVsciLexerBase@@@PAUboolean_struct@_builtIn@@H@Z 
01:000A1D24 ?setWhiteSpaceBack@sciLexer@@SAXQAVsciLexerBase@@@PAUboolean_struct@_builtIn@@H@Z 
01:000A1D70 ?whiteSpaceSize@sciLexer@@SGXQAVsciLexerBase@@@H@Z 
01:000A1DB0 ?whiteSpaceSize@sciLexer@@SGHQAVsciLexerBase@@@@Z 
01:000A1DF4 ?extraAscent@sciLexer@@SGXQAVsciLexerBase@@@H@Z 
01:000A1E34 ?extraAscent@sciLexer@@SGHQAVsciLexerBase@@@@Z 
01:000A1E78 ?extraDescent@sciLexer@@SGXQAVsciLexerBase@@@H@Z 
01:000A1EB8 ?extraDescent@sciLexer@@SGHQAVsciLexerBase@@@@Z 
01:000A1EFC ?cursor@sciLexer@@SGXQAVsciLexerBase@@@H@Z 
01:000A1F3C ?cursor@sciLexer@@SGHQAVsciLexerBase@@@@Z 
01:000A1F80 ?mousedownCaptures@sciLexer@@SGXQAVsciLexerBase@@@PAUboolean_struct@_builtIn@@@Z 
01:000A1FD4 ?mousedownCaptures@sciLexer@@SGPAUboolean_struct@_builtIn@@QAVsciLexerBase@@@@Z 
01:000A202C ?eolMode@sciLexer@@SGXQAVsciLexerBase@@@H@Z 
01:000A206C ?eolMode@sciLexer@@SGHQAVsciLexerBase@@@@Z 
01:000A20B0 ?convertEols@sciLexer@@SAXQAVsciLexerBase@@@H@Z 
01:000A20DC ?viewEol@sciLexer@@SGXQAVsciLexerBase@@@PAUboolean_struct@_builtIn@@@Z 
01:000A2130 ?viewEol@sciLexer@@SGPAUboolean_struct@_builtIn@@QAVsciLexerBase@@@@Z 
01:000A2188 ?endStyled@sciLexer@@SGHQAVsciLexerBase@@@@Z 
01:000A21CC ?startStyling@sciLexer@@SAXQAVsciLexerBase@@@HH@Z 
01:000A21F8 ?setStyling@sciLexer@@SAXQAVsciLexerBase@@@HPBUsci_style@@@Z 
01:000A2224 ?setStylingeX@sciLexer@@SAXQAVsciLexerBase@@@HPB_W@Z 
01:000A2270 ?setLineState@sciLexer@@SAXQAVsciLexerBase@@@PBUlineNumber@@H@Z 
01:000A22BC ?_getLineState@sciLexer@@SAXQAVsciLexerBase@@@PBUlineNumber@@PAH@Z 
01:000A2308 ?maxLineState@sciLexer@@SGPBUlineNumber@@QAVsciLexerBase@@@@Z 
01:000A2360 ?styleResetDefault@sciLexer@@SAXQAVsciLexerBase@@@@Z 
01:000A238C ?styleClearAll@sciLexer@@SAXQAVsciLexerBase@@@@Z 
01:000A23B8 ?styleSetFont@sciLexer@@SAXQAVsciLexerBase@@@PBUsci_style@@PB_W@Z 
01:000A2404 ?_styleGetFont@sciLexer@@SAXQAVsciLexerBase@@@PBUsci_style@@PAPB_W@Z 
01:000A2460 ?styleSetSize@sciLexer@@SAXQAVsciLexerBase@@@PBUsci_style@@H@Z 
01:000A248C ?_styleGetSize@sciLexer@@SAXQAVsciLexerBase@@@PBUsci_style@@PAH@Z 
01:000A24B8 ?styleSetSizeFractional@sciLexer@@SAXQAVsciLexerBase@@@PBUsci_style@@H@Z 
01:000A24E4 ?_styleGetSizeFractional@sciLexer@@SAXQAVsciLexerBase@@@PBUsci_style@@PAH@Z 
01:000A2510 ?styleSetBold@sciLexer@@SAXQAVsciLexerBase@@@PBUsci_style@@PAUboolean_struct@_builtIn@@@Z 
01:000A255C ?_styleGetBold@sciLexer@@SAXQAVsciLexerBase@@@PBUsci_style@@PAPAUboolean_struct@_builtIn@@@Z 
01:000A25AC ?styleSetWeight@sciLexer@@SAXQAVsciLexerBase@@@PBUsci_style@@H@Z 
01:000A25D8 ?_styleGetWeight@sciLexer@@SAXQAVsciLexerBase@@@PBUsci_style@@PAH@Z 
01:000A2604 ?styleSetItalic@sciLexer@@SAXQAVsciLexerBase@@@PBUsci_style@@PAUboolean_struct@_builtIn@@@Z 
01:000A2650 ?_styleGetItalic@sciLexer@@SAXQAVsciLexerBase@@@PBUsci_style@@PAPAUboolean_struct@_builtIn@@@Z 
01:000A26A0 ?styleSetUnderline@sciLexer@@SAXQAVsciLexerBase@@@PBUsci_style@@PAUboolean_struct@_builtIn@@@Z 
01:000A26EC ?_styleGetUnderline@sciLexer@@SAXQAVsciLexerBase@@@PBUsci_style@@PAPAUboolean_struct@_builtIn@@@Z 
01:000A273C ?styleSetFore@sciLexer@@SAXQAVsciLexerBase@@@PBUsci_style@@H@Z 
01:000A2768 ?_styleGetFore@sciLexer@@SAXQAVsciLexerBase@@@PBUsci_style@@PAH@Z 
01:000A2794 ?styleSetBack@sciLexer@@SAXQAVsciLexerBase@@@PBUsci_style@@H@Z 
01:000A27C0 ?_styleGetBack@sciLexer@@SAXQAVsciLexerBase@@@PBUsci_style@@PAH@Z 
01:000A27EC ?styleSetEolFilled@sciLexer@@SAXQAVsciLexerBase@@@PBUsci_style@@PAUboolean_struct@_builtIn@@@Z 
01:000A2838 ?_styleGetEolFilled@sciLexer@@SAXQAVsciLexerBase@@@PBUsci_style@@PAPAUboolean_struct@_builtIn@@@Z 
01:000A2888 ?styleSetCase@sciLexer@@SAXQAVsciLexerBase@@@PBUsci_style@@H@Z 
01:000A28B4 ?_styleGetCase@sciLexer@@SAXQAVsciLexerBase@@@PBUsci_style@@PAH@Z 
01:000A28E0 ?styleSetVisible@sciLexer@@SAXQAVsciLexerBase@@@PBUsci_style@@PAUboolean_struct@_builtIn@@@Z 
01:000A292C ?_styleGetVisible@sciLexer@@SAXQAVsciLexerBase@@@PBUsci_style@@PAPAUboolean_struct@_builtIn@@@Z 
01:000A297C ?styleSetChangeable@sciLexer@@SAXQAVsciLexerBase@@@PBUsci_style@@PAUboolean_struct@_builtIn@@@Z 
01:000A29C8 ?_styleGetChangeable@sciLexer@@SAXQAVsciLexerBase@@@PBUsci_style@@PAPAUboolean_struct@_builtIn@@@Z 
01:000A2A18 ?styleSetHotSpot@sciLexer@@SAXQAVsciLexerBase@@@PBUsci_style@@PAUboolean_struct@_builtIn@@@Z 
01:000A2A64 ?_styleGetHotSpot@sciLexer@@SAXQAVsciLexerBase@@@PBUsci_style@@PAPAUboolean_struct@_builtIn@@@Z 
01:000A2AB4 ?setSelFore@sciLexer@@SAXQAVsciLexerBase@@@PAUboolean_struct@_builtIn@@H@Z 
01:000A2B00 ?setSelBack@sciLexer@@SAXQAVsciLexerBase@@@PAUboolean_struct@_builtIn@@H@Z 
01:000A2B4C ?selAlpha@sciLexer@@SGXQAVsciLexerBase@@@H@Z 
01:000A2B8C ?selAlpha@sciLexer@@SGHQAVsciLexerBase@@@@Z 
01:000A2BD0 ?selEolFilled@sciLexer@@SGXQAVsciLexerBase@@@PAUboolean_struct@_builtIn@@@Z 
01:000A2C24 ?selEolFilled@sciLexer@@SGPAUboolean_struct@_builtIn@@QAVsciLexerBase@@@@Z 
01:000A2C7C ?caretFore@sciLexer@@SGXQAVsciLexerBase@@@H@Z 
01:000A2CBC ?caretFore@sciLexer@@SGHQAVsciLexerBase@@@@Z 
01:000A2D00 ?caretLineVisible@sciLexer@@SGXQAVsciLexerBase@@@PAUboolean_struct@_builtIn@@@Z 
01:000A2D54 ?caretLineVisible@sciLexer@@SGPAUboolean_struct@_builtIn@@QAVsciLexerBase@@@@Z 
01:000A2DAC ?caretLineBack@sciLexer@@SGXQAVsciLexerBase@@@H@Z 
01:000A2DEC ?caretLineBack@sciLexer@@SGHQAVsciLexerBase@@@@Z 
01:000A2E30 ?caretLineBackAlpha@sciLexer@@SGXQAVsciLexerBase@@@H@Z 
01:000A2E70 ?caretLineBackAlpha@sciLexer@@SGHQAVsciLexerBase@@@@Z 
01:000A2EB4 ?caretPeriod@sciLexer@@SGXQAVsciLexerBase@@@H@Z 
01:000A2EF4 ?caretPeriod@sciLexer@@SGHQAVsciLexerBase@@@@Z 
01:000A2F38 ?caretStyle@sciLexer@@SGXQAVsciLexerBase@@@H@Z 
01:000A2F78 ?caretStyle@sciLexer@@SGHQAVsciLexerBase@@@@Z 
01:000A2FBC ?caretWidth@sciLexer@@SGXQAVsciLexerBase@@@H@Z 
01:000A2FFC ?caretWidth@sciLexer@@SGHQAVsciLexerBase@@@@Z 
01:000A3040 ?setHotSpotActiveFore@sciLexer@@SAXQAVsciLexerBase@@@PAUboolean_struct@_builtIn@@H@Z 
01:000A308C ?_getHotSpotActiveFore@sciLexer@@SAXQAVsciLexerBase@@@PAH@Z 
01:000A30B8 ?setHotSpotActiveBack@sciLexer@@SAXQAVsciLexerBase@@@PAUboolean_struct@_builtIn@@H@Z 
01:000A3104 ?_getHotSpotActiveBack@sciLexer@@SAXQAVsciLexerBase@@@PAH@Z 
01:000A3130 ?hotSpotActiveUnderline@sciLexer@@SGXQAVsciLexerBase@@@PAUboolean_struct@_builtIn@@@Z 
01:000A3184 ?hotSpotActiveUnderline@sciLexer@@SGPAUboolean_struct@_builtIn@@QAVsciLexerBase@@@@Z 
01:000A31DC ?hotSpotSingleLine@sciLexer@@SGXQAVsciLexerBase@@@PAUboolean_struct@_builtIn@@@Z 
01:000A3230 ?hotSpotSingleLine@sciLexer@@SGPAUboolean_struct@_builtIn@@QAVsciLexerBase@@@@Z 
01:000A3288 ?controlCharSymbol@sciLexer@@SGXQAVsciLexerBase@@@H@Z 
01:000A32C8 ?controlCharSymbol@sciLexer@@SGHQAVsciLexerBase@@@@Z 
01:000A330C ?caretSticky@sciLexer@@SGXQAVsciLexerBase@@@H@Z 
01:000A334C ?caretSticky@sciLexer@@SGHQAVsciLexerBase@@@@Z 
01:000A3390 ?toggleCaretSticky@sciLexer@@SAXQAVsciLexerBase@@@@Z 
01:000A33BC ?setMarginTypeN@sciLexer@@SAXQAVsciLexerBase@@@HH@Z 
01:000A33E8 ?_getMarginTypeN@sciLexer@@SAXQAVsciLexerBase@@@HPAH@Z 
01:000A3414 ?setMarginWidthN@sciLexer@@SAXQAVsciLexerBase@@@HH@Z 
01:000A3440 ?_getMarginWidthN@sciLexer@@SAXQAVsciLexerBase@@@HPAH@Z 
01:000A346C ?setMarginMaskN@sciLexer@@SAXQAVsciLexerBase@@@HI@Z 
01:000A3498 ?_getMarginMaskN@sciLexer@@SAXQAVsciLexerBase@@@HPAI@Z 
01:000A34C4 ?setMarginSensitiveN@sciLexer@@SAXQAVsciLexerBase@@@HPAUboolean_struct@_builtIn@@@Z 
01:000A3510 ?_getMarginSensitiveN@sciLexer@@SAXQAVsciLexerBase@@@HPAH@Z 
01:000A353C ?setMarginCursorN@sciLexer@@SAXQAVsciLexerBase@@@HH@Z 
01:000A3568 ?_getMarginCursorN@sciLexer@@SAXQAVsciLexerBase@@@HPAH@Z 
01:000A3594 ?marginLeft@sciLexer@@SGXQAVsciLexerBase@@@H@Z 
01:000A35D4 ?marginLeft@sciLexer@@SGHQAVsciLexerBase@@@@Z 
01:000A3618 ?marginRight@sciLexer@@SGXQAVsciLexerBase@@@H@Z 
01:000A3658 ?marginRight@sciLexer@@SGHQAVsciLexerBase@@@@Z 
01:000A369C ?setFoldmarginColor@sciLexer@@SAXQAVsciLexerBase@@@PAUboolean_struct@_builtIn@@H@Z 
01:000A36E8 ?setFoldmarginhiColor@sciLexer@@SAXQAVsciLexerBase@@@PAUboolean_struct@_builtIn@@H@Z 
01:000A3734 ?marginSetText@sciLexer@@SAXQAVsciLexerBase@@@PBUlineNumber@@PB_W@Z 
01:000A3798 ?_marginGetText@sciLexer@@SAXQAVsciLexerBase@@@PBUlineNumber@@PAPB_W@Z 
01:000A3808 ?marginSetStyle@sciLexer@@SAXQAVsciLexerBase@@@PBUlineNumber@@H@Z 
01:000A3854 ?_marginGetStyle@sciLexer@@SAXQAVsciLexerBase@@@PBUlineNumber@@PAH@Z 
01:000A38A0 ?marginSetStyles@sciLexer@@SAXQAVsciLexerBase@@@PBUlineNumber@@PB_W@Z 
01:000A3904 ?_marginGetStyles@sciLexer@@SAXQAVsciLexerBase@@@PBUlineNumber@@PAPB_W@Z 
01:000A3974 ?marginTextClearAll@sciLexer@@SAXQAVsciLexerBase@@@@Z 
01:000A39A0 ?marginSetStyleOffset@sciLexer@@SAXQAVsciLexerBase@@@H@Z 
01:000A39CC ?_marginGetStyleOffset@sciLexer@@SAXQAVsciLexerBase@@@PAH@Z 
01:000A39F8 ?annotationSetText@sciLexer@@SAXQAVsciLexerBase@@@PBUlineNumber@@PB_W@Z 
01:000A3A5C ?_annotationGetText@sciLexer@@SAXQAVsciLexerBase@@@PBUlineNumber@@PAPB_W@Z 
01:000A3ACC ?annotationSetStyle@sciLexer@@SAXQAVsciLexerBase@@@PBUlineNumber@@H@Z 
01:000A3B18 ?_annotationGetStyle@sciLexer@@SAXQAVsciLexerBase@@@PBUlineNumber@@PAH@Z 
01:000A3B64 ?annotationSetStyles@sciLexer@@SAXQAVsciLexerBase@@@PBUlineNumber@@PB_W@Z 
01:000A3BC8 ?_annotationGetStyles@sciLexer@@SAXQAVsciLexerBase@@@PBUlineNumber@@PAPB_W@Z 
01:000A3C38 ?_annotationGetLines@sciLexer@@SAXQAVsciLexerBase@@@PBUlineNumber@@PAH@Z 
01:000A3C84 ?annotationClearAll@sciLexer@@SAXQAVsciLexerBase@@@@Z 
01:000A3CB0 ?annotationVisible@sciLexer@@SGXQAVsciLexerBase@@@H@Z 
01:000A3CF0 ?annotationVisible@sciLexer@@SGHQAVsciLexerBase@@@@Z 
01:000A3D34 ?annotationStyleOffset@sciLexer@@SGXQAVsciLexerBase@@@H@Z 
01:000A3D74 ?annotationStyleOffset@sciLexer@@SGHQAVsciLexerBase@@@@Z 
01:000A3DB8 ?bufferedDraw@sciLexer@@SGXQAVsciLexerBase@@@PAUboolean_struct@_builtIn@@@Z 
01:000A3E0C ?bufferedDraw@sciLexer@@SGPAUboolean_struct@_builtIn@@QAVsciLexerBase@@@@Z 
01:000A3E64 ?twoPhaseDraw@sciLexer@@SGXQAVsciLexerBase@@@PAUboolean_struct@_builtIn@@@Z 
01:000A3EB8 ?twoPhaseDraw@sciLexer@@SGPAUboolean_struct@_builtIn@@QAVsciLexerBase@@@@Z 
01:000A3F10 ?technology@sciLexer@@SGXQAVsciLexerBase@@@H@Z 
01:000A3F50 ?technology@sciLexer@@SGHQAVsciLexerBase@@@@Z 
01:000A3F94 ?fontQuality@sciLexer@@SGXQAVsciLexerBase@@@H@Z 
01:000A3FD4 ?fontQuality@sciLexer@@SGHQAVsciLexerBase@@@@Z 
01:000A4018 ?codePage@sciLexer@@SGXQAVsciLexerBase@@@PBU0@@Z 
01:000A4058 ?codePage@sciLexer@@SGPBU0@QAVsciLexerBase@@@@Z 
01:000A409C ?keysUnicode@sciLexer@@SGXQAVsciLexerBase@@@PAUboolean_struct@_builtIn@@@Z 
01:000A40F0 ?keysUnicode@sciLexer@@SGPAUboolean_struct@_builtIn@@QAVsciLexerBase@@@@Z 
01:000A4148 ?setWordChars@sciLexer@@SAXQAVsciLexerBase@@@PB_W@Z 
01:000A4194 ?setWhiteSpaceChars@sciLexer@@SAXQAVsciLexerBase@@@PB_W@Z 
01:000A41E0 ?setCharsDefault@sciLexer@@SAXQAVsciLexerBase@@@@Z 
01:000A420C ?grabFocus@sciLexer@@SAXQAVsciLexerBase@@@@Z 
01:000A4238 ?focus@sciLexer@@SGXQAVsciLexerBase@@@PAUboolean_struct@_builtIn@@@Z 
01:000A428C ?focus@sciLexer@@SGPAUboolean_struct@_builtIn@@QAVsciLexerBase@@@@Z 
01:000A42E4 ?braceHighLight@sciLexer@@SAXQAVsciLexerBase@@@HH@Z 
01:000A4310 ?braceBadLight@sciLexer@@SAXQAVsciLexerBase@@@H@Z 
01:000A433C ?braceHighlightIndicator@sciLexer@@SAXQAVsciLexerBase@@@PAUboolean_struct@_builtIn@@H@Z 
01:000A4388 ?braceBadlightIndicator@sciLexer@@SAXQAVsciLexerBase@@@PAUboolean_struct@_builtIn@@H@Z 
01:000A43D4 ?_tryBraceMatch@sciLexer@@SAXQAVsciLexerBase@@@HHPAH@Z 
01:000A4420 ?tabWidth@sciLexer@@SGXQAVsciLexerBase@@@PBUcharCount@@@Z 
01:000A4460 ?tabWidth@sciLexer@@SGPBUcharCount@@QAVsciLexerBase@@@@Z 
01:000A44A4 ?useTabs@sciLexer@@SGXQAVsciLexerBase@@@PAUboolean_struct@_builtIn@@@Z 
01:000A44F8 ?useTabs@sciLexer@@SGPAUboolean_struct@_builtIn@@QAVsciLexerBase@@@@Z 
01:000A4550 ?indent@sciLexer@@SGXQAVsciLexerBase@@@H@Z 
01:000A4590 ?indent@sciLexer@@SGHQAVsciLexerBase@@@@Z 
01:000A45D4 ?tabIndents@sciLexer@@SGXQAVsciLexerBase@@@PAUboolean_struct@_builtIn@@@Z 
01:000A4628 ?tabIndents@sciLexer@@SGPAUboolean_struct@_builtIn@@QAVsciLexerBase@@@@Z 
01:000A4680 ?backSpaceUnIndents@sciLexer@@SGXQAVsciLexerBase@@@PAUboolean_struct@_builtIn@@@Z 
01:000A46D4 ?backSpaceUnIndents@sciLexer@@SGPAUboolean_struct@_builtIn@@QAVsciLexerBase@@@@Z 
01:000A472C ?setLineIndentation@sciLexer@@SAXQAVsciLexerBase@@@PBUlineNumber@@PBUlinePosition@@@Z 
01:000A4778 ?_getLineIndentation@sciLexer@@SAXQAVsciLexerBase@@@PBUlineNumber@@AAUlinePosition@@@Z 
01:000A47C4 ?_getLineIndentPosition@sciLexer@@SAXQAVsciLexerBase@@@PBUlineNumber@@PAH@Z 
01:000A4810 ?indentationGuides@sciLexer@@SGXQAVsciLexerBase@@@H@Z 
01:000A4850 ?indentationGuides@sciLexer@@SGHQAVsciLexerBase@@@@Z 
01:000A4894 ?highLightGuide@sciLexer@@SGXQAVsciLexerBase@@@H@Z 
01:000A48D4 ?highLightGuide@sciLexer@@SGHQAVsciLexerBase@@@@Z 
01:000A4918 ?markerDefine@sciLexer@@SAXQAVsciLexerBase@@@HH@Z 
01:000A4944 ?markerDefinePixmap@sciLexer@@SAXQAVsciLexerBase@@@HPAD@Z 
01:000A4970 ?markerDefineRgbaImage@sciLexer@@SAXQAVsciLexerBase@@@HHHPAD@Z 
01:000A4A00 ?_markerSymbolDefined@sciLexer@@SAXQAVsciLexerBase@@@HPAH@Z 
01:000A4A2C ?markerSetFore@sciLexer@@SAXQAVsciLexerBase@@@HH@Z 
01:000A4A58 ?markerSetBack@sciLexer@@SAXQAVsciLexerBase@@@HH@Z 
01:000A4A84 ?markerSetBackSelected@sciLexer@@SAXQAVsciLexerBase@@@HH@Z 
01:000A4AB0 ?markerEnableHighlight@sciLexer@@SAXQAVsciLexerBase@@@PAUboolean_struct@_builtIn@@@Z 
01:000A4AFC ?markerSetAlpha@sciLexer@@SAXQAVsciLexerBase@@@HH@Z 
01:000A4B28 ?_tryMarkerAdd@sciLexer@@SAXQAVsciLexerBase@@@PBUlineNumber@@HPAH@Z 
01:000A4B8C ?markerAddset@sciLexer@@SAXQAVsciLexerBase@@@PBUlineNumber@@H@Z 
01:000A4BD8 ?markerDelete@sciLexer@@SAXQAVsciLexerBase@@@PBUlineNumber@@H@Z 
01:000A4C24 ?markerDeleteAll@sciLexer@@SAXQAVsciLexerBase@@@H@Z 
01:000A4C50 ?_markerGet@sciLexer@@SAXQAVsciLexerBase@@@PBUlineNumber@@PAH@Z 
01:000A4C9C ?_tryMarkerNext@sciLexer@@SAXQAVsciLexerBase@@@HHAAUlineNumber@@@Z 
01:000A4CF8 ?_tryMarkerPrevious@sciLexer@@SAXQAVsciLexerBase@@@HHAAUlineNumber@@@Z 
01:000A4D54 ?_tryMarkerLineFromHandle@sciLexer@@SAXQAVsciLexerBase@@@HAAUlineNumber@@@Z 
01:000A4DAC ?markerDeleteHandle@sciLexer@@SAXQAVsciLexerBase@@@H@Z 
01:000A4DD8 ?indicSetStyle@sciLexer@@SAXQAVsciLexerBase@@@HH@Z 
01:000A4E04 ?_indicGetStyle@sciLexer@@SAXQAVsciLexerBase@@@HPAH@Z 
01:000A4E30 ?indicSetFore@sciLexer@@SAXQAVsciLexerBase@@@HH@Z 
01:000A4E5C ?_indicGetFore@sciLexer@@SAXQAVsciLexerBase@@@HPAH@Z 
01:000A4E88 ?indicSetAlpha@sciLexer@@SAXQAVsciLexerBase@@@HH@Z 
01:000A4EB4 ?_indicGetAlpha@sciLexer@@SAXQAVsciLexerBase@@@HPAH@Z 
01:000A4EE0 ?indicSetOutlineAlpha@sciLexer@@SAXQAVsciLexerBase@@@HH@Z 
01:000A4F0C ?_indicGetOutlineAlpha@sciLexer@@SAXQAVsciLexerBase@@@HPAH@Z 
01:000A4F38 ?indicSetUnder@sciLexer@@SAXQAVsciLexerBase@@@HPAUboolean_struct@_builtIn@@@Z 
01:000A4F84 ?indicGetUnder@sciLexer@@SAXQAVsciLexerBase@@@H@Z 
01:000A4FB0 ?indicatorCurrent@sciLexer@@SGXQAVsciLexerBase@@@H@Z 
01:000A4FF0 ?indicatorCurrent@sciLexer@@SGHQAVsciLexerBase@@@@Z 
01:000A5034 ?indicatorValue@sciLexer@@SGXQAVsciLexerBase@@@H@Z 
01:000A5074 ?indicatorValue@sciLexer@@SGHQAVsciLexerBase@@@@Z 
01:000A50B8 ?indicatorfillRange@sciLexer@@SAXQAVsciLexerBase@@@HH@Z 
01:000A50E4 ?indicatorClearRange@sciLexer@@SAXQAVsciLexerBase@@@HH@Z 
01:000A5110 ?_indicatorAllOnFor@sciLexer@@SAXQAVsciLexerBase@@@HPAI@Z 
01:000A513C ?indicatorValueAt@sciLexer@@SAXQAVsciLexerBase@@@HH@Z 
01:000A5168 ?_indicatorStart@sciLexer@@SAXQAVsciLexerBase@@@HHPAH@Z 
01:000A5194 ?_indicatorEnd@sciLexer@@SAXQAVsciLexerBase@@@HHPAH@Z 
01:000A51C0 ?autoCShow@sciLexer@@SAXQAVsciLexerBase@@@HPB_W@Z 
01:000A520C ?autoCCancel@sciLexer@@SAXQAVsciLexerBase@@@@Z 
01:000A5238 ?_autoCActive@sciLexer@@SAXQAVsciLexerBase@@@PAPAUboolean_struct@_builtIn@@@Z 
01:000A527C ?autoCPosStart@sciLexer@@SGHQAVsciLexerBase@@@@Z 
01:000A52C0 ?autoCComplete@sciLexer@@SAXQAVsciLexerBase@@@@Z 
01:000A52EC ?autoCStops@sciLexer@@SAXQAVsciLexerBase@@@PB_W@Z 
01:000A5338 ?autoCSeparator@sciLexer@@SGXQAVsciLexerBase@@@_W@Z 
01:000A5390 ?autoCSeparator@sciLexer@@SG_WQAVsciLexerBase@@@@Z 
01:000A53E8 ?autoCSelect@sciLexer@@SAXQAVsciLexerBase@@@PB_W@Z 
01:000A5434 ?autoCCurrent@sciLexer@@SGHQAVsciLexerBase@@@@Z 
01:000A5478 ?autoCCurrentText@sciLexer@@SGPB_WQAVsciLexerBase@@@@Z 
01:000A5520 ?autoCCancelatStart@sciLexer@@SGXQAVsciLexerBase@@@PAUboolean_struct@_builtIn@@@Z 
01:000A5574 ?autoCCancelatStart@sciLexer@@SGPAUboolean_struct@_builtIn@@QAVsciLexerBase@@@@Z 
01:000A55CC ?autoCFillups@sciLexer@@SGXQAVsciLexerBase@@@PB_W@Z 
01:000A5620 ?autoCChooseSingle@sciLexer@@SGXQAVsciLexerBase@@@PAUboolean_struct@_builtIn@@@Z 
01:000A5674 ?autoCChooseSingle@sciLexer@@SGPAUboolean_struct@_builtIn@@QAVsciLexerBase@@@@Z 
01:000A56CC ?autoCIgnoreCase@sciLexer@@SGXQAVsciLexerBase@@@PAUboolean_struct@_builtIn@@@Z 
01:000A5720 ?autoCIgnoreCase@sciLexer@@SGPAUboolean_struct@_builtIn@@QAVsciLexerBase@@@@Z 
01:000A5778 ?autoCCaseInsensitiveBehaviour@sciLexer@@SGXQAVsciLexerBase@@@H@Z 
01:000A57B8 ?autoCCaseInsensitiveBehaviour@sciLexer@@SGHQAVsciLexerBase@@@@Z 
01:000A57FC ?autoCAutoHide@sciLexer@@SGXQAVsciLexerBase@@@PAUboolean_struct@_builtIn@@@Z 
01:000A5850 ?autoCAutoHide@sciLexer@@SGPAUboolean_struct@_builtIn@@QAVsciLexerBase@@@@Z 
01:000A58A8 ?autoCDropRestOfWord@sciLexer@@SGXQAVsciLexerBase@@@PAUboolean_struct@_builtIn@@@Z 
01:000A58FC ?autoCDropRestOfWord@sciLexer@@SGPAUboolean_struct@_builtIn@@QAVsciLexerBase@@@@Z 
01:000A5954 ?registerImage@sciLexer@@SAXQAVsciLexerBase@@@HPAD@Z 
01:000A5980 ?registerRgbaImage@sciLexer@@SAXQAVsciLexerBase@@@HHHPAD@Z 
01:000A5A10 ?clearRegisteredImages@sciLexer@@SAXQAVsciLexerBase@@@@Z 
01:000A5A3C ?autoCTypeSeparator@sciLexer@@SGXQAVsciLexerBase@@@_W@Z 
01:000A5A94 ?autoCTypeSeparator@sciLexer@@SG_WQAVsciLexerBase@@@@Z 
01:000A5AEC ?autoCMaxHeight@sciLexer@@SGXQAVsciLexerBase@@@H@Z 
01:000A5B2C ?autoCMaxHeight@sciLexer@@SGHQAVsciLexerBase@@@@Z 
01:000A5B70 ?autoCMaxWidth@sciLexer@@SGXQAVsciLexerBase@@@H@Z 
01:000A5BB0 ?autoCMaxWidth@sciLexer@@SGHQAVsciLexerBase@@@@Z 
01:000A5BF4 ?userListShow@sciLexer@@SAXQAVsciLexerBase@@@HPB_W@Z 
01:000A5C40 ?calltipShow@sciLexer@@SAXQAVsciLexerBase@@@HPB_W@Z 
01:000A5C8C ?calltipCancel@sciLexer@@SAXQAVsciLexerBase@@@@Z 
01:000A5CB8 ?calltipActive@sciLexer@@SAXQAVsciLexerBase@@@@Z 
01:000A5CE4 ?calltipPosStart@sciLexer@@SAXQAVsciLexerBase@@@@Z 
01:000A5D10 ?calltipSetHlt@sciLexer@@SAXQAVsciLexerBase@@@HH@Z 
01:000A5D3C ?calltipsetBack@sciLexer@@SAXQAVsciLexerBase@@@H@Z 
01:000A5D68 ?calltipsetFore@sciLexer@@SAXQAVsciLexerBase@@@H@Z 
01:000A5D94 ?calltipForeHlt@sciLexer@@SGXQAVsciLexerBase@@@H@Z 
01:000A5DD4 ?calltipUseStyle@sciLexer@@SAXQAVsciLexerBase@@@H@Z 
01:000A5E00 ?calltipSetPosition@sciLexer@@SAXQAVsciLexerBase@@@PAUboolean_struct@_builtIn@@@Z 
01:000A5E4C ?lineDown@sciLexer@@SAXQAVsciLexerBase@@@@Z 
01:000A5E78 ?lineDownExtend@sciLexer@@SAXQAVsciLexerBase@@@@Z 
01:000A5EA4 ?lineDownRectExtend@sciLexer@@SAXQAVsciLexerBase@@@@Z 
01:000A5ED0 ?lineScrollDown@sciLexer@@SAXQAVsciLexerBase@@@@Z 
01:000A5EFC ?lineUp@sciLexer@@SAXQAVsciLexerBase@@@@Z 
01:000A5F28 ?lineUpExtend@sciLexer@@SAXQAVsciLexerBase@@@@Z 
01:000A5F54 ?lineUpRectExtend@sciLexer@@SAXQAVsciLexerBase@@@@Z 
01:000A5F80 ?lineScrollUp@sciLexer@@SAXQAVsciLexerBase@@@@Z 
01:000A5FAC ?paraDown@sciLexer@@SAXQAVsciLexerBase@@@@Z 
01:000A5FD8 ?paraDownExtend@sciLexer@@SAXQAVsciLexerBase@@@@Z 
01:000A6004 ?paraUp@sciLexer@@SAXQAVsciLexerBase@@@@Z 
01:000A6030 ?paraUpExtend@sciLexer@@SAXQAVsciLexerBase@@@@Z 
01:000A605C ?charLeft@sciLexer@@SAXQAVsciLexerBase@@@@Z 
01:000A6088 ?charLeftExtend@sciLexer@@SAXQAVsciLexerBase@@@@Z 
01:000A60B4 ?charLeftRectExtend@sciLexer@@SAXQAVsciLexerBase@@@@Z 
01:000A60E0 ?charRight@sciLexer@@SAXQAVsciLexerBase@@@@Z 
01:000A610C ?charRightExtend@sciLexer@@SAXQAVsciLexerBase@@@@Z 
01:000A6138 ?charRightRectExtend@sciLexer@@SAXQAVsciLexerBase@@@@Z 
01:000A6164 ?wordLeft@sciLexer@@SAXQAVsciLexerBase@@@@Z 
01:000A6190 ?wordLeftExtend@sciLexer@@SAXQAVsciLexerBase@@@@Z 
01:000A61BC ?wordRight@sciLexer@@SAXQAVsciLexerBase@@@@Z 
01:000A61E8 ?wordRightExtend@sciLexer@@SAXQAVsciLexerBase@@@@Z 
01:000A6214 ?wordLeftEnd@sciLexer@@SAXQAVsciLexerBase@@@@Z 
01:000A6240 ?wordLeftEndExtend@sciLexer@@SAXQAVsciLexerBase@@@@Z 
01:000A626C ?wordRightEnd@sciLexer@@SAXQAVsciLexerBase@@@@Z 
01:000A6298 ?wordRightEndExtend@sciLexer@@SAXQAVsciLexerBase@@@@Z 
01:000A62C4 ?wordPartLeft@sciLexer@@SAXQAVsciLexerBase@@@@Z 
01:000A62F0 ?wordPartLeftExtend@sciLexer@@SAXQAVsciLexerBase@@@@Z 
01:000A631C ?wordPartRight@sciLexer@@SAXQAVsciLexerBase@@@@Z 
01:000A6348 ?wordPartRightExtend@sciLexer@@SAXQAVsciLexerBase@@@@Z 
01:000A6374 ?home@sciLexer@@SAXQAVsciLexerBase@@@@Z 
01:000A63A0 ?homeExtend@sciLexer@@SAXQAVsciLexerBase@@@@Z 
01:000A63CC ?homeRectExtend@sciLexer@@SAXQAVsciLexerBase@@@@Z 
01:000A63F8 ?homeDisplay@sciLexer@@SAXQAVsciLexerBase@@@@Z 
01:000A6424 ?homeDisplayExtend@sciLexer@@SAXQAVsciLexerBase@@@@Z 
01:000A6450 ?homeWrap@sciLexer@@SAXQAVsciLexerBase@@@@Z 
01:000A647C ?homeWrapExtend@sciLexer@@SAXQAVsciLexerBase@@@@Z 
01:000A64A8 ?vcHome@sciLexer@@SAXQAVsciLexerBase@@@@Z 
01:000A64D4 ?vcHomeExtend@sciLexer@@SAXQAVsciLexerBase@@@@Z 
01:000A6500 ?vcHomeRectExtend@sciLexer@@SAXQAVsciLexerBase@@@@Z 
01:000A652C ?vcHomeWrap@sciLexer@@SAXQAVsciLexerBase@@@@Z 
01:000A6558 ?vcHomeWrapExtend@sciLexer@@SAXQAVsciLexerBase@@@@Z 
01:000A6584 ?lineEnd@sciLexer@@SAXQAVsciLexerBase@@@@Z 
01:000A65B0 ?lineEndExtend@sciLexer@@SAXQAVsciLexerBase@@@@Z 
01:000A65DC ?lineEndRectExtend@sciLexer@@SAXQAVsciLexerBase@@@@Z 
01:000A6608 ?lineEndDisplay@sciLexer@@SAXQAVsciLexerBase@@@@Z 
01:000A6634 ?lineEndDisplayExtend@sciLexer@@SAXQAVsciLexerBase@@@@Z 
01:000A6660 ?lineEndWrap@sciLexer@@SAXQAVsciLexerBase@@@@Z 
01:000A668C ?lineEndWrapExtend@sciLexer@@SAXQAVsciLexerBase@@@@Z 
01:000A66B8 ?documentStart@sciLexer@@SAXQAVsciLexerBase@@@@Z 
01:000A66E4 ?documentStartExtend@sciLexer@@SAXQAVsciLexerBase@@@@Z 
01:000A6710 ?documentEnd@sciLexer@@SAXQAVsciLexerBase@@@@Z 
01:000A673C ?documentEndExtend@sciLexer@@SAXQAVsciLexerBase@@@@Z 
01:000A6768 ?pageUp@sciLexer@@SAXQAVsciLexerBase@@@@Z 
01:000A6794 ?pageUpExtend@sciLexer@@SAXQAVsciLexerBase@@@@Z 
01:000A67C0 ?pageUpRectExtend@sciLexer@@SAXQAVsciLexerBase@@@@Z 
01:000A67EC ?pageDown@sciLexer@@SAXQAVsciLexerBase@@@@Z 
01:000A6818 ?pageDownExtend@sciLexer@@SAXQAVsciLexerBase@@@@Z 
01:000A6844 ?pageDownRectExtend@sciLexer@@SAXQAVsciLexerBase@@@@Z 
01:000A6870 ?stutteredPageUp@sciLexer@@SAXQAVsciLexerBase@@@@Z 
01:000A689C ?stutteredPageUpExtend@sciLexer@@SAXQAVsciLexerBase@@@@Z 
01:000A68C8 ?stutteredPageDown@sciLexer@@SAXQAVsciLexerBase@@@@Z 
01:000A68F4 ?stutteredPageDownExtend@sciLexer@@SAXQAVsciLexerBase@@@@Z 
01:000A6920 ?deleteBack@sciLexer@@SAXQAVsciLexerBase@@@@Z 
01:000A694C ?deleteBackNotLine@sciLexer@@SAXQAVsciLexerBase@@@@Z 
01:000A6978 ?delWordLeft@sciLexer@@SAXQAVsciLexerBase@@@@Z 
01:000A69A4 ?delWordRight@sciLexer@@SAXQAVsciLexerBase@@@@Z 
01:000A69D0 ?delWordRightEnd@sciLexer@@SAXQAVsciLexerBase@@@@Z 
01:000A69FC ?delLineLeft@sciLexer@@SAXQAVsciLexerBase@@@@Z 
01:000A6A28 ?delLineRight@sciLexer@@SAXQAVsciLexerBase@@@@Z 
01:000A6A54 ?lineDelete@sciLexer@@SAXQAVsciLexerBase@@@@Z 
01:000A6A80 ?lineCut@sciLexer@@SAXQAVsciLexerBase@@@@Z 
01:000A6AAC ?lineCopy@sciLexer@@SAXQAVsciLexerBase@@@@Z 
01:000A6AD8 ?lineTranspose@sciLexer@@SAXQAVsciLexerBase@@@@Z 
01:000A6B04 ?lineDuplicate@sciLexer@@SAXQAVsciLexerBase@@@@Z 
01:000A6B30 ?lowerCase@sciLexer@@SAXQAVsciLexerBase@@@@Z 
01:000A6B5C ?upperCase@sciLexer@@SAXQAVsciLexerBase@@@@Z 
01:000A6B88 ?cancel@sciLexer@@SAXQAVsciLexerBase@@@@Z 
01:000A6BB4 ?editToggleOvertype@sciLexer@@SAXQAVsciLexerBase@@@@Z 
01:000A6BE0 ?newline@sciLexer@@SAXQAVsciLexerBase@@@@Z 
01:000A6C0C ?formfeed@sciLexer@@SAXQAVsciLexerBase@@@@Z 
01:000A6C38 ?tab@sciLexer@@SAXQAVsciLexerBase@@@@Z 
01:000A6C64 ?backTab@sciLexer@@SAXQAVsciLexerBase@@@@Z 
01:000A6C90 ?selectionDuplicate@sciLexer@@SAXQAVsciLexerBase@@@@Z 
01:000A6CBC ?verticalCentreCaret@sciLexer@@SAXQAVsciLexerBase@@@@Z 
01:000A6CE8 ?assignCmdKey@sciLexer@@SAXQAVsciLexerBase@@@HH@Z 
01:000A6D14 ?clearCmdKey@sciLexer@@SAXQAVsciLexerBase@@@H@Z 
01:000A6D40 ?clearAllCmdKeys@sciLexer@@SAXQAVsciLexerBase@@@@Z 
01:000A6D6C ?startRecord@sciLexer@@SAXQAVsciLexerBase@@@@Z 
01:000A6D98 ?stopRecord@sciLexer@@SAXQAVsciLexerBase@@@@Z 
01:000A6DC4 ?formatRange@sciLexer@@SAXQAVsciLexerBase@@@PAUboolean_struct@_builtIn@@PAUsci_rangeToFormat_struct@sciLexer_native@@@Z 
01:000A6E10 ?printMagnification@sciLexer@@SGXQAVsciLexerBase@@@H@Z 
01:000A6E50 ?printMagnification@sciLexer@@SGHQAVsciLexerBase@@@@Z 
01:000A6E94 ?printColorMode@sciLexer@@SGXQAVsciLexerBase@@@H@Z 
01:000A6ED4 ?printColorMode@sciLexer@@SGHQAVsciLexerBase@@@@Z 
01:000A6F18 ?printWrapMode@sciLexer@@SGXQAVsciLexerBase@@@H@Z 
01:000A6F58 ?printWrapMode@sciLexer@@SGHQAVsciLexerBase@@@@Z 
01:000A6F9C ?_getCharacterPointer@sciLexer@@SAXQAVsciLexerBase@@@PAPAX@Z 
01:000A6FC8 ?_getRangePointer@sciLexer@@SAXQAVsciLexerBase@@@HHPAPAX@Z 
01:000A6FF4 ?_getGapPosition@sciLexer@@SAXQAVsciLexerBase@@@PAPAX@Z 
01:000A7020 ?docPointer@sciLexer@@SGPBUdocument@@QAVsciLexerBase@@@@Z 
01:000A7064 ?docPointer@sciLexer@@SGXQAVsciLexerBase@@@PBUdocument@@@Z 
01:000A70A4 ?createDocument@sciLexer@@SAXQAVsciLexerBase@@@@Z 
01:000A70D0 ?addrefDocument@sciLexer@@SAXQAVsciLexerBase@@@PBUdocument@@@Z 
01:000A70FC ?releaseDocument@sciLexer@@SAXQAVsciLexerBase@@@PBUdocument@@@Z 
01:000A7128 ?visibleFromDocLine@sciLexer@@SAXQAVsciLexerBase@@@H@Z 
01:000A7154 ?docLineFromVisible@sciLexer@@SAXQAVsciLexerBase@@@H@Z 
01:000A7180 ?showLines@sciLexer@@SAXQAVsciLexerBase@@@PBUlineNumber@@1@Z 
01:000A71E4 ?hideLines@sciLexer@@SAXQAVsciLexerBase@@@PBUlineNumber@@1@Z 
01:000A7248 ?isLineVisible@sciLexer@@SAXQAVsciLexerBase@@@PBUlineNumber@@@Z 
01:000A72A8 ?isAllLinesVisible@sciLexer@@SGPAUboolean_struct@_builtIn@@QAVsciLexerBase@@@@Z 
01:000A7300 ?setFoldLevel@sciLexer@@SAXQAVsciLexerBase@@@PBUlineNumber@@H@Z 
01:000A734C ?_getFoldLevel@sciLexer@@SAXQAVsciLexerBase@@@PBUlineNumber@@PAH@Z 
01:000A7398 ?foldFlags@sciLexer@@SGXQAVsciLexerBase@@@H@Z 
01:000A73D8 ?_getLastChild@sciLexer@@SAXQAVsciLexerBase@@@HHAAUlineNumber@@@Z 
01:000A7428 ?_getFoldParent@sciLexer@@SAXQAVsciLexerBase@@@HAAUlineNumber@@@Z 
01:000A7478 ?toggleFold@sciLexer@@SAXQAVsciLexerBase@@@PBUlineNumber@@@Z 
01:000A74C4 ?setFoldExpanded@sciLexer@@SAXQAVsciLexerBase@@@PBUlineNumber@@PAUboolean_struct@_builtIn@@@Z 
01:000A7528 ?_getFoldExpanded@sciLexer@@SAXQAVsciLexerBase@@@PBUlineNumber@@PAPAUboolean_struct@_builtIn@@@Z 
01:000A758C ?contractedFoldNext@sciLexer@@SAXQAVsciLexerBase@@@PBUlineNumber@@@Z 
01:000A75D8 ?ensureVisible@sciLexer@@SAXQAVsciLexerBase@@@PBUlineNumber@@@Z 
01:000A7624 ?ensureVisibleEnforcePolicy@sciLexer@@SAXQAVsciLexerBase@@@PBUlineNumber@@@Z 
01:000A7670 ?wrapMode@sciLexer@@SGXQAVsciLexerBase@@@H@Z 
01:000A76B0 ?wrapMode@sciLexer@@SGHQAVsciLexerBase@@@@Z 
01:000A76F4 ?wrapvisualFlags@sciLexer@@SGXQAVsciLexerBase@@@H@Z 
01:000A7734 ?wrapvisualFlags@sciLexer@@SGHQAVsciLexerBase@@@@Z 
01:000A7778 ?wrapvisualFlagsLocation@sciLexer@@SGXQAVsciLexerBase@@@H@Z 
01:000A77B8 ?wrapvisualFlagsLocation@sciLexer@@SGHQAVsciLexerBase@@@@Z 
01:000A77FC ?wrapIndentMode@sciLexer@@SGXQAVsciLexerBase@@@H@Z 
01:000A783C ?wrapIndentMode@sciLexer@@SGHQAVsciLexerBase@@@@Z 
01:000A7880 ?wrapStartIndent@sciLexer@@SGXQAVsciLexerBase@@@H@Z 
01:000A78C0 ?wrapStartIndent@sciLexer@@SGHQAVsciLexerBase@@@@Z 
01:000A7904 ?layoutcache@sciLexer@@SGXQAVsciLexerBase@@@H@Z 
01:000A7944 ?layoutcache@sciLexer@@SGHQAVsciLexerBase@@@@Z 
01:000A7988 ?positionCache@sciLexer@@SGXQAVsciLexerBase@@@H@Z 
01:000A79C8 ?positionCache@sciLexer@@SGHQAVsciLexerBase@@@@Z 
01:000A7A0C ?linesSplit@sciLexer@@SAXQAVsciLexerBase@@@H@Z 
01:000A7A38 ?linesJoin@sciLexer@@SAXQAVsciLexerBase@@@@Z 
01:000A7A64 ?wrapCount@sciLexer@@SAXQAVsciLexerBase@@@H@Z 
01:000A7A90 ?zoomIn@sciLexer@@SAXQAVsciLexerBase@@@@Z 
01:000A7ABC ?zoomOut@sciLexer@@SAXQAVsciLexerBase@@@@Z 
01:000A7AE8 ?zoom@sciLexer@@SGXQAVsciLexerBase@@@H@Z 
01:000A7B28 ?zoom@sciLexer@@SGHQAVsciLexerBase@@@@Z 
01:000A7B6C ?edgeMode@sciLexer@@SGXQAVsciLexerBase@@@H@Z 
01:000A7BAC ?edgeMode@sciLexer@@SGHQAVsciLexerBase@@@@Z 
01:000A7BF0 ?edgeColumn@sciLexer@@SGXQAVsciLexerBase@@@H@Z 
01:000A7C30 ?edgeColumn@sciLexer@@SGHQAVsciLexerBase@@@@Z 
01:000A7C74 ?edgeColor@sciLexer@@SGXQAVsciLexerBase@@@H@Z 
01:000A7CB4 ?edgeColor@sciLexer@@SGHQAVsciLexerBase@@@@Z 
01:000A7CF8 ?lexer@sciLexer@@SGXQAVsciLexerBase@@@H@Z 
01:000A7D38 ?lexer@sciLexer@@SGHQAVsciLexerBase@@@@Z 
01:000A7D7C ?lexerLanguage@sciLexer@@SGXQAVsciLexerBase@@@PB_W@Z 
01:000A7DD0 ?lexerLanguage@sciLexer@@SGPB_WQAVsciLexerBase@@@@Z 
01:000A7E34 ?loadLexerLibrary@sciLexer@@SAXQAVsciLexerBase@@@PB_W@Z 
01:000A7E80 ?colorise@sciLexer@@SAXQAVsciLexerBase@@@HH@Z 
01:000A7EAC ?changeLexerState@sciLexer@@SAXQAVsciLexerBase@@@HH@Z 
01:000A7ED8 ?propertyNames@sciLexer@@SGPB_WQAVsciLexerBase@@@@Z 
01:000A7F80 ?propertyType@sciLexer@@SAXQAVsciLexerBase@@@PB_W@Z 
01:000A7FCC ?_describeProperty@sciLexer@@SAXQAVsciLexerBase@@@PB_WPAPB_W@Z 
01:000A8080 ?setProperty@sciLexer@@SAXQAVsciLexerBase@@@PB_W1@Z 
01:000A80E4 ?_tryGetProperty@sciLexer@@SAXQAVsciLexerBase@@@PB_WPAPB_W@Z 
01:000A81A4 ?_tryGetPropertyExpanded@sciLexer@@SAXQAVsciLexerBase@@@PB_WPAPB_W@Z 
01:000A8264 ?_getPropertyInt@sciLexer@@SAXQAVsciLexerBase@@@PB_WHPAH@Z 
01:000A82B0 ?setKeywords@sciLexer@@SAXQAVsciLexerBase@@@HPB_W@Z 
01:000A82FC ?describeKeywordSets@sciLexer@@SAXQAVsciLexerBase@@@PB_W@Z 
01:000A8348 ?styleBitsNeeded@sciLexer@@SGHQAVsciLexerBase@@@@Z 
01:000A838C ?_dispatchWmNotify@sciLexer@@SAXQAVcontrol@@@IPAUnmhdr_struct@gui_native@@PAPAUnativeResponse_struct@window@@@Z 
01:000A83F8 ?_tryGetNotificationHandler@sciLexer@@SAXQAV1@@IPAX@Z 
01:000A8998 ?_notification_position@sciLexer@@SAXPAUscNotification_struct@sciLexer_native@@PAH@Z  (Idle)
01:000A89AC ?_notification_ch@sciLexer@@SAXPAUscNotification_struct@sciLexer_native@@PAH@Z  (Idle)
01:000A89C0 ?_notification_line@sciLexer@@SAXPAUscNotification_struct@sciLexer_native@@AAUlineNumber@@@Z  (Idle)
01:000A89D8 ?scnStyleNeeded@sciLexer@@SAXQAV1@@PAUscNotification_struct@sciLexer_native@@@Z 
01:000A8A50 ?scnCharAdded@sciLexer@@SAXQAV1@@PAUscNotification_struct@sciLexer_native@@@Z 
01:000A8A8C ?scnSavepointReached@sciLexer@@SAXQAV1@@PAUscNotification_struct@sciLexer_native@@@Z 
01:000A8AB0 ?scnSavepointLeft@sciLexer@@SAXQAV1@@PAUscNotification_struct@sciLexer_native@@@Z 
01:000A8AD4 ?scnModifyAttemptRO@sciLexer@@SAXQAV1@@PAUscNotification_struct@sciLexer_native@@@Z 
01:000A8AF0 ?scnDoubleClick@sciLexer@@SAXQAV1@@PAUscNotification_struct@sciLexer_native@@@Z 
01:000A8B48 ?scnUpdateUI@sciLexer@@SAXQAV1@@PAUscNotification_struct@sciLexer_native@@@Z 
01:000A8BF0 ?scnModified@sciLexer@@SAXQAV1@@PAUscNotification_struct@sciLexer_native@@@Z 
01:000A8CC0 ?_getModifyAction_nd@sciLexer@@SAXIPAUscNotification_struct@sciLexer_native@@PAPAUmodifyAction_struct@sciLexerBase@@@Z 
01:000A92B8 ?_getModifyPerformed@sciLexer@@SAXIPAPAUmodifyPerformed_struct@sciLexerBase@@@Z 
01:000A935C ?modEventMask@sciLexer@@SGXQAVsciLexerBase@@@H@Z 
01:000A939C ?modEventMask@sciLexer@@SGHQAVsciLexerBase@@@@Z 
01:000A93E0 ?scenSetFocus@sciLexer@@SAXQAV1@@PAUscNotification_struct@sciLexer_native@@@Z 
01:000A93FC ?scenKillFocus@sciLexer@@SAXQAV1@@PAUscNotification_struct@sciLexer_native@@@Z 
01:000A9418 ?scnMacroRecord@sciLexer@@SAXQAV1@@PAUscNotification_struct@sciLexer_native@@@Z 
01:000A9460 ?scnMarginClick@sciLexer@@SAXQAV1@@PAUscNotification_struct@sciLexer_native@@@Z 
01:000A94A8 ?scnNeedShown@sciLexer@@SAXQAV1@@PAUscNotification_struct@sciLexer_native@@@Z 
01:000A94E4 ?scnPainted@sciLexer@@SAXQAV1@@PAUscNotification_struct@sciLexer_native@@@Z 
01:000A9500 ?scnUserListSelection@sciLexer@@SAXQAV1@@PAUscNotification_struct@sciLexer_native@@@Z 
01:000A953C ?scnDwellStart@sciLexer@@SAXQAV1@@PAUscNotification_struct@sciLexer_native@@@Z 
01:000A9558 ?scnDwellEnd@sciLexer@@SAXQAV1@@PAUscNotification_struct@sciLexer_native@@@Z 
01:000A9574 ?scnDwellStartEnd@sciLexer@@SAXQAV1@@PAUdwellAction_struct@sciLexerBase@@PAUscNotification_struct@sciLexer_native@@@Z 
01:000A95CC ?mouseDwellTime@sciLexer@@SGXQAVsciLexerBase@@@H@Z 
01:000A960C ?mouseDwellTime@sciLexer@@SGHQAVsciLexerBase@@@@Z 
01:000A9650 ?scnZoom@sciLexer@@SAXQAV1@@PAUscNotification_struct@sciLexer_native@@@Z 
01:000A966C ?scnHotspotClick@sciLexer@@SAXQAV1@@PAUscNotification_struct@sciLexer_native@@@Z 
01:000A96B8 ?scnHotspotDoubleClick@sciLexer@@SAXQAV1@@PAUscNotification_struct@sciLexer_native@@@Z 
01:000A9708 ?scnHotspotReleaseClick@sciLexer@@SAXQAV1@@PAUscNotification_struct@sciLexer_native@@@Z 
01:000A9750 ?scnIndicatorClick@sciLexer@@SAXQAV1@@PAUscNotification_struct@sciLexer_native@@@Z 
01:000A979C ?scnIndicatorRelease@sciLexer@@SAXQAV1@@PAUscNotification_struct@sciLexer_native@@@Z 
01:000A97E4 ?scnCallTipClick@sciLexer@@SAXQAV1@@PAUscNotification_struct@sciLexer_native@@@Z 
01:000A980C ?scnAutoCSelection@sciLexer@@SAXQAV1@@PAUscNotification_struct@sciLexer_native@@@Z 
01:000A9850 ?scnAutoCCancelled@sciLexer@@SAXQAV1@@PAUscNotification_struct@sciLexer_native@@@Z 
01:000A9874 ?scnAutoCCharDeleted@sciLexer@@SAXQAV1@@PAUscNotification_struct@sciLexer_native@@@Z 
01:000A9898 ?_fromUtf8Char@sciLexer@@SAXPBUchar8@@PA_W@Z 
01:000A98B4 ?_toUtf8Char@sciLexer@@SAX_WAAUchar8@@@Z 
01:000A98D0 ?_displayFindAndReplace_modal@sciLexer@@SAXQAVsciLexerBase@@@PAPAVdialog@@@@Z 
01:000A9904 ?_displayIncrementalFind_modal@sciLexer@@SAXQAVsciLexerBase@@@PAPAVincrementalFindDialog@@sciLexerSupport@@@Z 
01:000A991C ?_displayFindAndReplace_modeless@sciLexer@@SAXQAV1@@PAPAVdialog@@@@Z  (Idle)
01:000A9938 ?_displayFindAndReplace_modeless@sciLexer@@SAXQAV1@@PAUboolean_struct@_builtIn@@PAPAVdialog@@@@Z 
01:000A996C ?findPrevious@sciLexer@@SAXXZ  (Idle)
01:000A9974 ?findNext@sciLexer@@SAXXZ  (Idle)
01:000A997C ?_tryGetFindAndReplace_modeless@sciLexer@@SAXPAPAVdialog@@@@Z  (Idle)
01:000A99B0 ?_displayGotoLine_modal@sciLexer@@SAXQAVsciLexerBase@@@PAPAUboolean_struct@_builtIn@@@Z 
01:000A9A84 ?_toLineNumber@sciLexer@@SAXHAAUlineNumber@@@Z 
01:000A9AB0 ?_fromLineNumber@sciLexer@@SAXPBUlineNumber@@PAH@Z 
01:000A9AD8 ?_toLinePosition@sciLexer@@SAXHAAUlinePosition@@@Z 
01:000A9B04 ?_fromLinePosition@sciLexer@@SAXPBUlinePosition@@PAH@Z 
01:000A9B2C ?_getText@sciLexer@@SAXQAVwindow@@@PAPB_W@Z 
01:000A9B44 ?_new@sciLexer@@SAXPAPAV1@@@Z  (Idle)
01:000A9B6C ?_new@sciLexer@@SAXQAVcontainerWindow@@@PAPAV1@@@Z  (Idle)
01:000A9B94 ?_object_facts_initializer@sciLexer@@SGXQAV1@@@Z 
01:000AA0AC ?maintainIndentation@sciLexer@@SGXQAVsciLexerBase@@@PAUboolean_struct@_builtIn@@@Z 
01:000AA0BC ?maintainIndentation@sciLexer@@SGPAUboolean_struct@_builtIn@@QAVsciLexerBase@@@@Z 
01:000AA0C8 ?fileExtension_visualProlog@sciLexer@@SGXPAU?$__packedList_struct@Ustring@@@@@Z  (Idle)
01:000AA0D4 ?fileExtension_visualProlog@sciLexer@@SGPAU?$__packedList_struct@Ustring@@@@XZ  (Idle)
01:000AA0DC ?fileExtension_vipGrammar@sciLexer@@SGXPAU?$__packedList_struct@Ustring@@@@@Z  (Idle)
01:000AA0E8 ?fileExtension_vipGrammar@sciLexer@@SGPAU?$__packedList_struct@Ustring@@@@XZ  (Idle)
01:000AA0F0 ?fileExtension_xml@sciLexer@@SGXPAU?$__packedList_struct@Ustring@@@@@Z  (Idle)
01:000AA0FC ?fileExtension_xml@sciLexer@@SGPAU?$__packedList_struct@Ustring@@@@XZ  (Idle)
01:000AA104 ?fileExtension_cpp@sciLexer@@SGXPAU?$__packedList_struct@Ustring@@@@@Z  (Idle)
01:000AA110 ?fileExtension_cpp@sciLexer@@SGPAU?$__packedList_struct@Ustring@@@@XZ  (Idle)
01:000AA118 ?fileExtension_html@sciLexer@@SGXPAU?$__packedList_struct@Ustring@@@@@Z  (Idle)
01:000AA124 ?fileExtension_html@sciLexer@@SGPAU?$__packedList_struct@Ustring@@@@XZ  (Idle)
01:000AA12C ?allowReadOnlyCut@sciLexer@@SGXQAVsciLexerBase@@@PAUboolean_struct@_builtIn@@@Z 
01:000AA13C ?allowReadOnlyCut@sciLexer@@SGPAUboolean_struct@_builtIn@@QAVsciLexerBase@@@@Z 
01:000AA148 ?styleNeededEvent@sciLexer@@SGXQAVsciLexerBase@@@QAVevent2@@@QAV2@@HH@Z 
01:000AA158 ?styleNeededEvent@sciLexer@@SGQAVevent2@@@QAVsciLexerBase@@@HHQAV3@@@Z 
01:000AA164 ?charAddedEvent@sciLexer@@SGXQAVsciLexerBase@@@QAVevent1@@@QAV2@@H@Z 
01:000AA174 ?charAddedEvent@sciLexer@@SGQAVevent1@@@QAVsciLexerBase@@@HQAV3@@@Z 
01:000AA180 ?savepointEvent@sciLexer@@SGXQAVsciLexerBase@@@QAVevent1@@@QAV2@@PAUsavepointAction_struct@2@@Z 
01:000AA190 ?savepointEvent@sciLexer@@SGQAVevent1@@@QAVsciLexerBase@@@PAUsavepointAction_struct@3@QAV3@@@Z 
01:000AA19C ?modifyAttemptROEvent@sciLexer@@SGXQAVsciLexerBase@@@QAVevent0@@@QAV2@@@Z 
01:000AA1AC ?modifyAttemptROEvent@sciLexer@@SGQAVevent0@@@QAVsciLexerBase@@@QAV3@@@Z 
01:000AA1B8 ?doubleClickEvent@sciLexer@@SGXQAVsciLexerBase@@@QAVevent2@@@QAV2@@HPBUlineNumber@@@Z 
01:000AA1C8 ?doubleClickEvent@sciLexer@@SGQAVevent2@@@QAVsciLexerBase@@@HPBUlineNumber@@QAV3@@@Z 
01:000AA1D4 ?updateUIEvent@sciLexer@@SGQAVevent1@@@QAVsciLexerBase@@@IQAV3@@@Z 
01:000AA1E0 ?modifiedEvent@sciLexer@@SGQAVevent5@@@QAVsciLexerBase@@@PAUmodifyAction_struct@3@PAUmodifyPerformed_struct@3@PAUboolean_struct@_builtIn@@PAU89@PAU89@QAV3@@@Z 
01:000AA1EC ?setFocusEvent@sciLexer@@SGQAVevent0@@@QAVsciLexerBase@@@QAV3@@@Z 
01:000AA1F8 ?killFocusEvent@sciLexer@@SGQAVevent0@@@QAVsciLexerBase@@@QAV3@@@Z 
01:000AA204 ?macroRecordEvent@sciLexer@@SGQAVevent3@@@QAVsciLexerBase@@@IPBUwParam@gui_native@@PBUlParam@5@QAV3@@@Z 
01:000AA210 ?marginClickEvent@sciLexer@@SGQAVevent3@@@QAVsciLexerBase@@@HHHQAV3@@@Z 
01:000AA21C ?needShownEvent@sciLexer@@SGQAVevent2@@@QAVsciLexerBase@@@HHQAV3@@@Z 
01:000AA228 ?paintedEvent@sciLexer@@SGQAVevent0@@@QAVsciLexerBase@@@QAV3@@@Z 
01:000AA234 ?userListSelectionEvent@sciLexer@@SGQAVevent2@@@QAVsciLexerBase@@@PADPBUwParam@gui_native@@QAV3@@@Z 
01:000AA240 ?dwellEvent@sciLexer@@SGQAVevent4@@@QAVsciLexerBase@@@PAUdwellAction_struct@3@HHHQAV3@@@Z 
01:000AA24C ?zoomEvent@sciLexer@@SGQAVevent0@@@QAVsciLexerBase@@@QAV3@@@Z 
01:000AA258 ?hotspotActionEvent@sciLexer@@SGQAVevent1@@@QAVsciLexerBase@@@PAUhotspotAction_struct@3@QAV3@@@Z 
01:000AA264 ?indicatorActionEvent@sciLexer@@SGQAVevent1@@@QAVsciLexerBase@@@PAUindicatorAction_struct@3@QAV3@@@Z 
01:000AA270 ?callTipClickEvent@sciLexer@@SGQAVevent1@@@QAVsciLexerBase@@@HQAV3@@@Z 
01:000AA27C ?autoCEvent@sciLexer@@SGQAVevent1@@@QAVsciLexerBase@@@PAUautoCAction_struct@3@QAV3@@@Z 
01:000AD95C sciLexer?_initObject@@@QAGXQAV1@H@Z 
01:000AD994 ?@create_object@sciLexer@@SGQAV1@@XZ 
01:000AD9B0 sciLexer?_InternalFinalizer@@@QAGXQAV1@@Z 
--- From 'Obj\scilexersupport.81F1978C.obj'
01:000AD9C0 ?_displayModal@incrementalFindDialog@sciLexerSupport@@SAXQAVsciLexer@@@PAPAV1@2@@Z 
01:000AD9E8 ?newModal@incrementalFindDialog@sciLexerSupport@@SAXQAV1@2@QAVsciLexer@@@@Z  (Idle)
01:000ADA34 ?_onNative@incrementalFindDialog@sciLexerSupport@@SAXQAVwindow@@@IPBUwParam@@PBUlParam@@PAPAUnativeResponse_struct@3@@Z 
01:000ADB78 ?incrementalSearch@incrementalFindDialog@sciLexerSupport@@SAXQAV1@2@H@Z  (Idle)
01:000ADD60 ?onFindText_editModified@incrementalFindDialog@sciLexerSupport@@SAXQAV1@2@QAVeditControl@@@@Z 
01:000ADD70 ?_onForward_btnClick@incrementalFindDialog@sciLexerSupport@@SAXQAV1@2@QAVbutton@@@PAPAUactionResponse_struct@5@@Z 
01:000ADDA0 ?generatedInitialize@incrementalFindDialog@sciLexerSupport@@SAXQAV1@2@@Z 
01:000AE068 ?_newModal@incrementalFindDialog@sciLexerSupport@@SAXQAVsciLexer@@@PAPAV1@2@@Z 
01:000AE090 ?_displayModal@findAndReplaceControl@sciLexerSupport@@SAXQAVsciLexer@@@PAPAV1@2@@Z 
01:000AE10C ?_displayModeless@findAndReplaceControl@sciLexerSupport@@SAXQAVsciLexer@@@PAUboolean_struct@_builtIn@@PAPAV1@2@@Z 
01:000AE268 ?reactivateModeless@findAndReplaceControl@sciLexerSupport@@SAXQAV1@2@@Z 
01:000AE2A4 ?anonymous$o0$1$new/3np$sciLexerSupport\findAndReplaceControl@1sciLexerSupport@@SAXPAUanonymous$o0$1$new/3np$sciLexerSupport\findAndReplaceControlc_struct@12@QAVwindow@@@@Z 
01:000AE34C ?anonymous$o0$2$new/3np$sciLexerSupport\findAndReplaceControl@1sciLexerSupport@@SAXPAUanonymous$o0$2$new/3np$sciLexerSupport\findAndReplaceControlc_struct@12@@Z 
01:000AE400 ?anonymous$o0$3$new/3np$sciLexerSupport\findAndReplaceControl@1sciLexerSupport@@SAXPAUanonymous$o0$3$new/3np$sciLexerSupport\findAndReplaceControlc_struct@12@@Z 
01:000AE468 ?anonymous$o0$4$new/3np$sciLexerSupport\findAndReplaceControl@1sciLexerSupport@@SAXPAUanonymous$o0$4$new/3np$sciLexerSupport\findAndReplaceControlc_struct@12@@Z 
01:000AE4C0 ?new@findAndReplaceControl@sciLexerSupport@@SAXQAV1@2@QAVsciLexer@@@QAVdialog@@@QAVwindow@@@@Z  (Idle)
01:000AEBA0 ?_tryGetModeless@findAndReplaceControl@sciLexerSupport@@SAXPAPAV1@2@@Z 
01:000AEBC4 ?anonymous$o0$1$setfromeditorstate/0np$sciLexerSupport\findAndReplaceControl@1sciLexerSupport@@SAXPAUanonymous$o0$1$setfromeditorstate/0np$sciLexerSupport\findAndReplaceControlc_struct@12@@Z 
01:000AEBF4 ?setFromEditorState@findAndReplaceControl@sciLexerSupport@@SAXQAV1@2@@Z 
01:000AECF8 ?_tryGetEditor@findAndReplaceControl@sciLexerSupport@@SAXQAV1@2@PAPAVsciLexer@@@@Z 
01:000AED60 ?loadSettings@findAndReplaceControl@sciLexerSupport@@SAXPAU?$__packedList_struct@Uboolean@@@@@Z  (Idle)
01:000AEE24 ?findTextFromHistory@findAndReplaceControl@sciLexerSupport@@SGPB_WXZ 
01:000AEE6C ?replaceTextFromHistory@findAndReplaceControl@sciLexerSupport@@SGPB_WXZ 
01:000AEEB4 ?updateHistory@findAndReplaceControl@sciLexerSupport@@SAXQAV1@2@@Z 
01:000AEF90 ?updateSettings@findAndReplaceControl@sciLexerSupport@@SAXXZ  (Idle)
01:000AF040 ?updateHistoryIfFoundOrNonIncremental@findAndReplaceControl@sciLexerSupport@@SAXQAV1@2@PAUboolean_struct@_builtIn@@1@Z  (Idle)
01:000AF064 ?setScopeAndTarget@findAndReplaceControl@sciLexerSupport@@SAXQAVsciLexer@@@@Z 
01:000AF148 ?isMultiLineSelection@findAndReplaceControl@sciLexerSupport@@SAXQAVsciLexer@@@@Z 
01:000AF1B8 ?_onDialogNative@findAndReplaceControl@sciLexerSupport@@SAXQAVwindow@@@IPBUwParam@@PBUlParam@@PAPAUnativeResponse_struct@3@@Z 
01:000AF2A8 ?_onFrameNative@findAndReplaceControl@sciLexerSupport@@SAXQAV1@2@QAVwindow@@@IPBUwParam@@PBUlParam@@PAPAUnativeResponse_struct@5@@Z 
01:000AF75C ?findFlags@findAndReplaceControl@sciLexerSupport@@SGHXZ 
01:000AF7D8 ?incrementalFindInit@findAndReplaceControl@sciLexerSupport@@SAXQAV1@2@@Z  (Idle)
01:000AF80C ?incrementalFindInitDelayed@findAndReplaceControl@sciLexerSupport@@SAXQAV1@2@@Z 
01:000AF8EC ?_incrementalFindNextRange@findAndReplaceControl@sciLexerSupport@@SAXQAV1@2@QAVsciLexer@@@PAPAUboolean_struct@_builtIn@@@Z 
01:000AF920 ?_incrementalFindPreviousRange@findAndReplaceControl@sciLexerSupport@@SAXQAV1@2@QAVsciLexer@@@PAPAUboolean_struct@_builtIn@@@Z 
01:000AF954 ?_incrementalFindDialog@findAndReplaceControl@sciLexerSupport@@SAXQAV1@2@QAVsciLexer@@@PAUcharRange_struct@12@PAPAUboolean_struct@_builtIn@@@Z 
01:000AFA10 ?_doIncrementalFind@findAndReplaceControl@sciLexerSupport@@SAXQAVsciLexer@@@PAUcharRange_struct@12@PB_WPAPAUboolean_struct@_builtIn@@@Z 
01:000AFA9C ?_formatStatus@findAndReplaceControl@sciLexerSupport@@SAXQAVsciLexer@@@PAUboolean_struct@_builtIn@@PAPB_W@Z 
01:000AFB78 ?_tryFind@findAndReplaceControl@sciLexerSupport@@SAXQAVsciLexer@@@PAUcharRange_struct@12@PB_WPAUboolean_struct@_builtIn@@PAH@Z 
01:000AFBF0 ?_initialFindRange@findAndReplaceControl@sciLexerSupport@@SAXQAVsciLexer@@@PAPAUcharRange_struct@12@@Z 
01:000AFC84 ?setMatchSelection@findAndReplaceControl@sciLexerSupport@@SAXQAVsciLexer@@@HH@Z 
01:000AFD54 ?restoreOneSelection@findAndReplaceControl@sciLexerSupport@@SAXQAVsciLexer@@@PAUboolean_struct@_builtIn@@@Z 
01:000AFDDC ?_onNext_btnClick@findAndReplaceControl@sciLexerSupport@@SAXQAV1@2@QAVbutton@@@PAPAUactionResponse_struct@5@@Z 
01:000AFE5C ?_onPrev_btnClick@findAndReplaceControl@sciLexerSupport@@SAXQAV1@2@QAVbutton@@@PAPAUactionResponse_struct@5@@Z 
01:000AFEDC ?findNext@findAndReplaceControl@sciLexerSupport@@SAXXZ 
01:000AFFDC ?findPrevious@findAndReplaceControl@sciLexerSupport@@SAXXZ 
01:000B00C8 ?_tryGetControl_nextPrevious@findAndReplaceControl@sciLexerSupport@@SAXQAVsciLexer@@@PAPAV1@2@@Z 
01:000B0120 ?nextPrev@findAndReplaceControl@sciLexerSupport@@SAXQAVsciLexer@@@PAUcharRange_struct@12@@Z 
01:000B01A4 ?_nextRange@findAndReplaceControl@sciLexerSupport@@SAXQAVsciLexer@@@PAPAUcharRange_struct@12@@Z 
01:000B0228 ?_previousRange@findAndReplaceControl@sciLexerSupport@@SAXQAVsciLexer@@@PAPAUcharRange_struct@12@@Z 
01:000B02AC ?_onReplace_btnClick@findAndReplaceControl@sciLexerSupport@@SAXQAV1@2@QAVbutton@@@PAPAUactionResponse_struct@5@@Z 
01:000B033C ?doReplace@findAndReplaceControl@sciLexerSupport@@SAXQAV1@2@QAVsciLexer@@@@Z 
01:000B03B4 ?_onReplaceAll_btnClick@findAndReplaceControl@sciLexerSupport@@SAXQAV1@2@QAVbutton@@@PAPAUactionResponse_struct@5@@Z 
01:000B0590 ?replaceAll@findAndReplaceControl@sciLexerSupport@@SAXQAVsciLexer@@@PAUcharRange_struct@12@PB_W2QAVvarM_unsigned@@@@Z 
01:000B0644 ?replaceTarget_re@findAndReplaceControl@sciLexerSupport@@SAXQAVsciLexer@@@PB_W@Z 
01:000B0674 ?onFindText_editModified@findAndReplaceControl@sciLexerSupport@@SAXQAV1@2@QAVeditControl@@@@Z 
01:000B0748 ?enableReplaceButtons@findAndReplaceControl@sciLexerSupport@@SAXQAV1@2@@Z 
01:000B07F0 ?onIncremental_chkStateChanged@findAndReplaceControl@sciLexerSupport@@SAXQAV1@2@QAVcheckButton@@@PAUstate_struct@5@2@Z 
01:000B08A0 ?_onFirst_btnClick@findAndReplaceControl@sciLexerSupport@@SAXQAV1@2@QAVbutton@@@PAPAUactionResponse_struct@5@@Z 
01:000B08B8 ?onWholeWords_chkStateChanged@findAndReplaceControl@sciLexerSupport@@SAXQAV1@2@QAVcheckButton@@@PAUstate_struct@5@2@Z 
01:000B08F0 ?onCaseSensitive_chkStateChanged@findAndReplaceControl@sciLexerSupport@@SAXQAV1@2@QAVcheckButton@@@PAUstate_struct@5@2@Z 
01:000B0928 ?onRegularExpression_chkStateChanged@findAndReplaceControl@sciLexerSupport@@SAXQAV1@2@QAVcheckButton@@@PAUstate_struct@5@2@Z 
01:000B0960 ?onInSelection_chkStateChanged@findAndReplaceControl@sciLexerSupport@@SAXQAV1@2@QAVcheckButton@@@PAUstate_struct@5@2@Z 
01:000B09A4 ?onDestroy@findAndReplaceControl@sciLexerSupport@@SAXQAV1@2@QAVwindow@@@@Z 
01:000B0A70 ?_getFirstOrEmpty@findAndReplaceControl@sciLexerSupport@@SAXPAU?$__packedList_struct@Ustring@@@@PAPB_W@Z 
01:000B0A94 ?onParentSize@findAndReplaceControl@sciLexerSupport@@SAXQAV1@2@QAVwindow@@@@Z 
01:000B0B60 ?switchLayout@findAndReplaceControl@sciLexerSupport@@SAXQAV1@2@PAUboolean_struct@_builtIn@@@Z 
01:000B1050 ?generatedInitialize@findAndReplaceControl@sciLexerSupport@@SAXQAV1@2@@Z 
01:000B23C0 ?_new@findAndReplaceControl@sciLexerSupport@@SAXQAVsciLexer@@@QAVdialog@@@QAVwindow@@@PAPAV1@2@@Z 
01:000B23F0 ?_anonymous$c0$1$trygeteditor/0nf$sciLexerSupport\findAndReplaceControl@1sciLexerSupport@@SAXPAUboolean_struct@_builtIn@@PAPAU?$__packedList_struct@Ustring@@@@@Z 
01:000B2418 ?anonymous$c0$2$trygeteditor/0nf$sciLexerSupport\findAndReplaceControl@1sciLexerSupport@@SAXPAUboolean_struct@_builtIn@@PB_W@Z 
01:000B24A8 ?anonymous$c0$3$trygeteditor/0nf$sciLexerSupport\findAndReplaceControl@1sciLexerSupport@@SAXPAU?$__packedList_struct@Uboolean@@@@@Z 
01:000B24BC ?_anonymous$c0$4$switchlayout/1np$sciLexerSupport\findAndReplaceControl@1sciLexerSupport@@SAXPAPAUrct_struct@vpiDomains@@@Z 
01:000B24C8 ?_object_facts_initializer@findAndReplaceControl@sciLexerSupport@@SGXQAV1@2@@Z 
01:000B24E8 ?readHistory@findAndReplaceControl@sciLexerSupport@@SGXX@Z  (Idle)
01:000B24F4 ?readHistory@findAndReplaceControl@sciLexerSupport@@SGXXZ  (Idle)
01:000B24FC ?appendHistory@findAndReplaceControl@sciLexerSupport@@SGXX@Z  (Idle)
01:000B2508 ?appendHistory@findAndReplaceControl@sciLexerSupport@@SGXXZ  (Idle)
01:000B2510 ?writeSettings@findAndReplaceControl@sciLexerSupport@@SGXX@Z  (Idle)
01:000B251C ?writeSettings@findAndReplaceControl@sciLexerSupport@@SGXXZ  (Idle)
01:000B2524 ?writeRect@findAndReplaceControl@sciLexerSupport@@SGXX@Z  (Idle)
01:000B2530 ?readRect@findAndReplaceControl@sciLexerSupport@@SGXX@Z  (Idle)
01:000B3784 sciLexerSupport\incrementalFindDialog?_initObject@@@QAGXQAV1@H@Z 
01:000B37BC ?@create_object@incrementalFindDialog@sciLexerSupport@@SGQAV1@2@XZ 
01:000B37D8 sciLexerSupport\incrementalFindDialog?_InternalFinalizer@@@QAGXQAV1@@Z 
01:000B6AE0 sciLexerSupport\findAndReplaceControl?_initObject@@@QAGXQAV1@H@Z 
01:000B6B18 ?@create_object@findAndReplaceControl@sciLexerSupport@@SGQAV1@2@XZ 
01:000B6B34 sciLexerSupport\findAndReplaceControl?_InternalFinalizer@@@QAGXQAV1@@Z 
--- From 'Obj\splittercontrol.3D396B1A.obj'
01:000B6B50 ?new@splitterControl@@SAXQAV1@@QAVcontainerWindow@@@@Z  (Idle)
01:000B6B6C ?new@splitterControl@@SAXQAV1@@@Z 
01:000B6C24 ?show@splitterControl@@SAXQAVwindow@@@@Z 
01:000B6CDC ?orientation@splitterControl@@SGPAUorientation_struct@1@QAV1@@@Z 
01:000B6D98 ?_tryCalcSize@splitterControl@@SAXPAUdockStyle_struct@control@@PAPAUtuple_struct@core@@PAHPAH@Z 
01:000B6E10 ?resizeNeighbour@splitterControl@@SAXQAV1@@H@Z  (Idle)
01:000B6F78 ?_resizeRct@splitterControl@@SAXPAUdockStyle_struct@control@@HPAUrct_struct@vpiDomains@@PAPAU45@@Z 
01:000B7138 $tryFindNeighbour$splitterControl_implement$predicate$(i,i,o)$c$_m11 
01:000B71B8 ?_getOverlay@splitterControl@@SAXQAV1@@AAUwindowHandle@@@Z  (Idle)
01:000B71F4 ?createOverlay@splitterControl@@SAXQAV1@@@Z 
01:000B72C8 ?_overlayEH@splitterControl@@SAXPBUwindowHandle@@PAUevent_struct@vpiDomains@@AAUlResult@@@Z 
01:000B7328 ?closeOverlay@splitterControl@@SAXQAV1@@@Z  (Idle)
01:000B7370 ?_getSplitPosition@splitterControl@@SAXQAV1@@PAH@Z  (Idle)
01:000B73D4 ?updateOverlay@splitterControl@@SAXQAV1@@@Z  (Idle)
01:000B74A4 ?drawOverlay@splitterControl@@SAXQAV1@@H@Z 
01:000B759C ?onMouseDown@splitterControl@@SAXQAV1@@QAVwindow@@@PAUpnt_struct@vpiDomains@@PBUkeyModifier@@H@Z 
01:000B760C ?onMouseUp@splitterControl@@SAXQAV1@@QAVwindow@@@PAUpnt_struct@vpiDomains@@PBUkeyModifier@@H@Z 
01:000B769C ?onMouseMove@splitterControl@@SAXQAV1@@QAVwindow@@@PAUpnt_struct@vpiDomains@@PBUkeyModifier@@PAU?$__packedList_struct@Uinteger@@@@@Z 
01:000B76A8 ?onPaint@splitterControl@@SAXQAVwindow@@@PAUrct_struct@vpiDomains@@QAVwindowGDI@@@@Z 
01:000B76B0 ?generatedInitialize@splitterControl@@SAXQAV1@@@Z 
01:000B76F0 ?_new@splitterControl@@SAXPAPAV1@@@Z  (Idle)
01:000B7718 ?_new@splitterControl@@SAXQAVcontainerWindow@@@PAPAV1@@@Z 
01:000B9844 splitterControl?_initObject@@@QAGXQAV1@H@Z 
01:000B987C ?@create_object@splitterControl@@SGQAV1@@XZ 
01:000B9898 splitterControl?_InternalFinalizer@@@QAGXQAV1@@Z 
--- From 'Obj\statusbarcontrol.5D8188C3.obj'
01:000B98B0 ?anonymous$o0$1$new/0np$statusBarControl@1@SAXPAUanonymous$o0$1$new/0np$statusBarControlc_struct@1@QAVwindow@@@@Z 
01:000B98E0 ?anonymous$o0$2$new/0np$statusBarControl@1@SAXPAUanonymous$o0$2$new/0np$statusBarControlc_struct@1@@Z 
01:000B995C ?new@statusBarControl@@SAXQAV1@@@Z  (Idle)
01:000B99EC ?new@statusBarControl@@SAXQAV1@@QAVcontainerWindow@@@@Z  (Idle)
01:000B9A08 ?dockStyle@statusBarControl@@SGPAUdockStyle_struct@control@@QAV3@@@Z 
01:000B9A20 ?dockStyle@statusBarControl@@SGXQAVcontrol@@@PAUdockStyle_struct@2@@Z 
01:000B9A78 $cells$statusBarControl_implement$predicate$(i,i)$c$ 
01:000B9A9C $cells$statusBarControl_implement$predicate$(i)$c$ 
01:000B9AB4 ?anonymous$o0$1$updatecells/0np$statusBarControl@1@SAXPAUanonymous$o0$1$updatecells/0np$statusBarControlc_struct@1@@Z 
01:000B9C64 ?updateCells@statusBarControl@@SAXQAV1@@@Z 
01:000B9C9C $getWidths$statusBarControl_implement$predicate$(i,i,o)$c$_m3 
01:000B9D08 ?_new@statusBarControl@@SAXPAPAV1@@@Z  (Idle)
01:000B9D30 ?_new@statusBarControl@@SAXQAVcontainerWindow@@@PAPAV1@@@Z  (Idle)
01:000B9D58 ?_object_facts_initializer@statusBarControl@@SGXQAV1@@@Z 
01:000B9D70 ?new@statusBarCell@@SAXQAV1@@QAVstatusBarControl@@@PBUpositive@@@Z  (Idle)
01:000B9D88 ?anonymous$o0$1$text/1np$statusBarCell@1@SAXPAUanonymous$o0$1$text/1np$statusBarCellc_struct@1@@Z 
01:000B9E48 ?text@statusBarCell@@SGXQAV1@@PB_W@Z 
01:000B9EA8 ?text@statusBarCell@@SGPB_WQAV1@@@Z 
01:000B9FE4 ?control@statusBarCell@@SGXQAV1@@PAUoptional_struct@core@@QAV0@@@Z 
01:000BA154 ?control@statusBarCell@@SGPAUoptional_struct@core@@QAV0@@QAV1@@@Z 
01:000BA16C ?_getRectangle@statusBarCell@@SAXQAV1@@PAPAUrct_struct@vpiDomains@@@Z 
01:000BA238 ?_new@statusBarCell@@SAXQAVstatusBarControl@@@PBUpositive@@PAPAV1@@@Z  (Idle)
01:000BA264 ?_object_facts_initializer@statusBarCell@@SGXQAV1@@@Z 
01:000BA27C ?width@statusBarCell@@SGPBUpositive@@QAV1@@@Z 
01:000BD8B0 statusBarControl?_initObject@@@QAGXQAV1@H@Z 
01:000BD8F8 ?@create_object@statusBarControl@@SGQAV1@@XZ 
01:000BD914 statusBarControl?_InternalFinalizer@@@QAGXQAV1@@Z 
01:000BD934 statusBarCell?_initObject@@@QAGXQAV1@H@Z 
01:000BD958 ?@create_object@statusBarCell@@SGQAV1@@XZ 
01:000BD974 statusBarCell?_InternalFinalizer@@@QAGXQAV1@@Z 
--- From 'Obj\dragndrop.6F2C210A.obj'
01:000BD980 ?createDropsite@dropSite@@SAXQAV1@@QAVwindow@@@@Z  (Idle)
01:000BD994 ?_createDropsite@dropSite@@SAXQAVwindow@@@PAPAV1@@@Z 
01:000BD9BC ?anonymous$o0$1$overlayeh/2np$dropSite@1@SAXQAV1@@QAVwindow@@@PAU?$__packedList_struct@Uany@@@@PAUdragShape_struct@dragNdrop@@PAUpnt_struct@vpiDomains@@PBUkeyModifier@@@Z 
01:000BD9D0 ?anonymous$o0$2$overlayeh/2np$dropSite@1@SAXQAV1@@QAVwindow@@@PAU?$__packedList_struct@Uany@@@@PAUdragShape_struct@dragNdrop@@PAUpnt_struct@vpiDomains@@PBUkeyModifier@@@Z 
01:000BD9E4 ?_object_facts_initializer@dropSite@@SGXQAV1@@@Z 
01:000BDAC8 ?window@dropSite@@SGXQAV1@@QAV0@@@Z 
01:000BDAD8 ?window@dropSite@@SGQAV0@@QAV1@@@Z 
01:000BDAE4 ?cursor@dropSite@@SGXQAV1@@PAUoptional_struct@core@@PBU0vpiDomains@@@Z 
01:000BDAF4 ?cursor@dropSite@@SGPAUoptional_struct@core@@PBU0vpiDomains@@QAV1@@@Z 
01:000BDB00 ?tipText@dropSite@@SGXQAV1@@PB_W@Z 
01:000BDB10 ?tipText@dropSite@@SGPB_WQAV1@@@Z 
01:000BDB1C ?dropAllowed@dropSite@@SGXQAV1@@PAUboolean_struct@_builtIn@@@Z 
01:000BDB2C ?dropAllowed@dropSite@@SGPAUboolean_struct@_builtIn@@QAV1@@@Z 
01:000BDB38 ?dragBeginEvent@dropSite@@SGXQAV1@@QAVevent3@@@QAV1@@QAVwindow@@@PAU?$__packedList_struct@Uany@@@@PAUdragShape_struct@dragNdrop@@@Z 
01:000BDB48 ?dragBeginEvent@dropSite@@SGQAVevent3@@@QAV1@@QAVwindow@@@PAU?$__packedList_struct@Uany@@@@PAUdragShape_struct@dragNdrop@@QAV1@@@Z 
01:000BDB54 ?dragCompleteEvent@dropSite@@SGXQAV1@@QAVevent4@@@QAV1@@QAVwindow@@@PAU?$__packedList_struct@Uany@@@@PAUdragShape_struct@dragNdrop@@PAUdragResult_struct@1@@Z 
01:000BDB64 ?dragCompleteEvent@dropSite@@SGQAVevent4@@@QAV1@@QAVwindow@@@PAU?$__packedList_struct@Uany@@@@PAUdragShape_struct@dragNdrop@@PAUdragResult_struct@1@QAV1@@@Z 
01:000BDB70 ?dragHoverEvent@dropSite@@SGXQAV1@@QAVevent4@@@QAV1@@QAVwindow@@@PAU?$__packedList_struct@Uany@@@@PAUdragShape_struct@dragNdrop@@PAUpnt_struct@vpiDomains@@@Z 
01:000BDB80 ?dragHoverEvent@dropSite@@SGQAVevent4@@@QAV1@@QAVwindow@@@PAU?$__packedList_struct@Uany@@@@PAUdragShape_struct@dragNdrop@@PAUpnt_struct@vpiDomains@@QAV1@@@Z 
01:000BDB8C ?dragResponder@dropSite@@SGXQAV1@@X@Z 
01:000BDB9C ?dragResponder@dropSite@@SGXQAV1@@@Z 
01:000BDBA8 ?dropResponder@dropSite@@SGXQAV1@@X@Z 
01:000BDBB8 ?dropResponder@dropSite@@SGXQAV1@@@Z 
01:000BDBC4 ?anonymous$c0$1$adddropsite/1np$dragNdrop@1@SAXPAUanonymous$c0$1$adddropsite/1np$dragNdropc_struct@1@QAVwindow@@@@Z 
01:000BDBDC ?addDropsite@dragNdrop@@SAXQAVdropSite@@@@Z 
01:000BDC54 ?removeDropsite@dragNdrop@@SAXQAVdropSite@@@@Z 
01:000BDC88 ?_tryLocateDropsite@dragNdrop@@SAXPAUpnt_struct@vpiDomains@@PAPAU23@PAPAVdropSite@@@@Z  (Idle)
01:000BDF10 ?trackDrag@dragNdrop@@SAXPBUkeyModifier@@@Z  (Idle)
01:000BE050 ?refreshDragShape@dragNdrop@@SAXXZ  (Idle)
01:000BE10C ?showDragShape@dragNdrop@@SAXPAUpnt_struct@vpiDomains@@PAUoptional_struct@core@@PBUcursor@@PAUboolean_struct@_builtIn@@@Z 
01:000BE324 ?_calcShapeOffset@dragNdrop@@SAXHHPAUhotspotOffset_struct@1@PAH@Z 
01:000BE3C0 ?showDragCursor@dragNdrop@@SAXPAUoptional_struct@core@@PBUcursor@@PAUboolean_struct@_builtIn@@@Z 
01:000BE474 ?onDragBegin@dragNdrop@@SAXXZ  (Idle)
01:000BE50C ?onDragMove@dragNdrop@@SAXPBUkeyModifier@@@Z  (Idle)
01:000BE570 ?onDragHover@dragNdrop@@SAXXZ 
01:000BE674 ?_onRenderTipText@dragNdrop@@SAXPAPB_W@Z 
01:000BE700 ?anonymous$c0$1$ondragend/1np$dragNdrop@1@SAXPAUanonymous$c0$1$ondragend/1np$dragNdropc_struct@1@@Z 
01:000BE764 ?onDragEnd@dragNdrop@@SAXPBUkeyModifier@@@Z  (Idle)
01:000BE89C ?sendDragCompleteEvent@dragNdrop@@SAXPAUdragResult_struct@dropSite@@@Z 
01:000BE924 ?beginDrag@dragNdrop@@SAXQAVwindow@@@PAU?$__packedList_struct@Uany@@@@PAUdragShape_struct@1@@Z 
01:000BED08 ?_compareZorder@dragNdrop@@SAXQAVdropSite@@@0PAPAUcompareResult_struct@_builtIn@@@Z 
01:000BF030 ?_getParent_nd@dragNdrop@@SAXPBUwindowhandle@@AAU2@@Z 
01:000BF098 ?skipCommonPrefixes@dragNdrop@@SAXQAVrTypeLibrary@TypeLibraries@RunTime@VIP@@PAU?$__packedList_struct@PAX@@1PAPAU?$__packedList_struct@PAPAX@@3@Z 
01:000BF128 ?_compareZorderSameType@dragNdrop@@SAXPBUwindowHandle@@0PAPAUcompareResult_struct@_builtIn@@@Z 
01:000BF1F4 ?_getNextWindow_nd@dragNdrop@@SAXPBUwindowHandle@@AAU2@@Z 
01:000BF268 ?stopDrag@dragNdrop@@SAXXZ  (Idle)
01:000BF33C ?restoreFocus@dragNdrop@@SAXXZ  (Idle)
01:000BF3F0 ?_focusMsg@dragNdrop@@SAXQAVwindow@@@IPBUwParam@@PBUlParam@@PAPAUnativeResponse_struct@2@@Z 
01:000BF5FC ?tryDetectDrag@dragNdrop@@SAXQAVwindow@@@PAUpnt_struct@vpiDomains@@@Z 
01:000BF670 ?tryDetectDrag@dragNdrop@@SAXQAVwindow@@@PAUpnt_struct@vpiDomains@@PAU?$__packedList_struct@Uany@@@@PAUdragShape_struct@1@@Z  (Idle)
01:000BF69C ?_overlayEHWrap@dragNdrop@@SAXPBUwindowHandle@@PAUevent_struct@vpiDomains@@AAUlResult@@@Z 
01:000BF6BC ?overlayEH@dragNdrop@@SAXPBUwindowHandle@@PAUevent_struct@vpiDomains@@@Z 
01:000BF91C $dropSites$dragNdrop_class$predicate$()$b$  (Idle)
01:000BF92C dropSite?_initObject@@@QAGXQAV1@H@Z 
01:000BF950 ?@create_object@dropSite@@SGQAV1@@XZ 
01:000BF96C dropSite?_InternalFinalizer@@@QAGXQAV1@@Z 
--- From 'Obj\errorpresentationdialog.0BD1CEB3.obj'
01:000BF980 ?setBatchMode@errorPresentationDialog@@SAXPB_W@Z  (Idle)
01:000BF990 ?dumpIfBatchMode@errorPresentationDialog@@SAXPB_WPAUoptional_struct@core@@PAUtraceInfo_struct@exception@@@Z  (Idle)
01:000BFA4C ?copyErrorReport@errorPresentationDialog@@SAXQAVwindow@@@PAUoptional_struct@core@@PAUtraceInfo_struct@exception@@PB_W2@Z 
01:000BFAAC ?nullExtraInfoWriter@errorPresentationDialog@@SAXQAVoutputStream@@@@Z 
01:000BFAB4 ?_formatTraceAndExtra@errorPresentationDialog@@SAXPB_WPAUoptional_struct@core@@PAUtraceInfo_struct@exception@@0PAPB_W@Z 
01:000BFB80 ?extraInfo@errorPresentationDialog@@SGPB_WQAV1@@@Z 
01:000BFBEC ?displayDefiniteUserError@errorPresentationDialog@@SAXPB_W@Z  (Idle)
01:000BFC1C ?displayDefiniteUserError@errorPresentationDialog@@SAXQAVwindow@@@PB_W@Z 
01:000BFC68 ?displayUserError@errorPresentationDialog@@SAXPB_WPAUtraceInfo_struct@exception@@@Z  (Idle)
01:000BFCA4 ?displayUserError@errorPresentationDialog@@SAXQAVwindow@@@PB_WPAUtraceInfo_struct@exception@@@Z 
01:000BFCF8 ?displayInternalError@errorPresentationDialog@@SAXPAUtraceInfo_struct@exception@@@Z  (Idle)
01:000BFD28 ?displayInternalError@errorPresentationDialog@@SAXQAVwindow@@@PAUtraceInfo_struct@exception@@@Z 
01:000BFD7C ?displayError@errorPresentationDialog@@SAXPAUtraceInfo_struct@exception@@@Z  (Idle)
01:000BFDAC ?displayError@errorPresentationDialog@@SAXQAVwindow@@@PAUtraceInfo_struct@exception@@@Z 
01:000BFDF8 ?displayFeedback@errorPresentationDialog@@SAXXZ  (Idle)
01:000BFE1C ?displayFeedback@errorPresentationDialog@@SAXQAVwindow@@@@Z 
01:000BFE44 ?_getPrettyUserMsg@errorPresentationDialog@@SAXPAU?$__packedList_struct@Udescriptor@exception@@@@PAPB_W@Z 
01:000BFEE4 ?_getPrettyUserMsg_dt@errorPresentationDialog@@SAXPAUdescriptor_struct@exception@@PAPB_W@Z 
01:000BFEFC ?_getPrettyUserMsgFromNV_dt@errorPresentationDialog@@SAXPAU?$__packedList_struct@UnamedValue@@@@PAPB_W@Z 
01:000BFFB8 ?_fillUsrMsgTags@errorPresentationDialog@@SAXPB_WPAU?$__packedList_struct@UnamedValue@@@@PAPB_W@Z 
01:000C0090 ?_substituteTag@errorPresentationDialog@@SAXPB_WPAU?$__packedList_struct@UnamedValue@@@@PAPB_W@Z 
01:000C00DC ?newUserError@errorPresentationDialog@@SAXQAV1@@QAVwindow@@@PB_WPAUtraceInfo_struct@exception@@@Z  (Idle)
01:000C011C ?newInternalError@errorPresentationDialog@@SAXQAV1@@QAVwindow@@@PAUtraceInfo_struct@exception@@@Z  (Idle)
01:000C01A8 ?newFeedback@errorPresentationDialog@@SAXQAV1@@QAVwindow@@@@Z  (Idle)
01:000C0210 ?anonymous$o0$1$commonnew/4np$errorPresentationDialog@1@SAXPAUanonymous$o0$1$commonnew/4np$errorPresentationDialogc_struct@1@@Z 
01:000C0268 ?commonNew@errorPresentationDialog@@SAXQAV1@@QAVwindow@@@PBUresid@vpiDomains@@PB_WPAUoptional_struct@core@@PAUtraceInfo_struct@exception@@@Z 
01:000C0644 ?_onShowDetails@errorPresentationDialog@@SAXQAV1@@QAVbutton@@@PAPAUactionResponse_struct@3@@Z 
01:000C065C ?_onHideDetails@errorPresentationDialog@@SAXQAV1@@QAVbutton@@@PAPAUactionResponse_struct@3@@Z 
01:000C0674 ?showDetails@errorPresentationDialog@@SAXQAV1@@@Z 
01:000C09B4 ?anonymous$o0$1$hidedetails/0np$errorPresentationDialog@1@SAXPAUanonymous$o0$1$hidedetails/0np$errorPresentationDialogc_struct@1@@Z 
01:000C0AA8 ?hideDetails@errorPresentationDialog@@SAXQAV1@@@Z 
01:000C0B90 ?makeRoomForDetails@errorPresentationDialog@@SAXQAV1@@H@Z 
--- From 'Obj\vpi.957343EE.obj'
01:000C0C00 ?present@errorPresentationDialog@@SAXPBUtraceId@exception@@@Z 
--- From 'Obj\gui.EF789F46.obj'
01:000C0C30 ?present@errorPresentationDialog@@SAXQAVwindow@@@PBUtraceId@@@Z 
--- From 'Obj\errorpresentationdialog.0BD1CEB3.obj'
01:000C0D04 ?anonymous$c0$1$presentasynchronously/1np$errorPresentationDialog@1@SAXPAUanonymous$c0$1$presentasynchronously/1np$errorPresentationDialogc_struct@1@@Z 
01:000C0D1C ?presentAsynchronously@errorPresentationDialog@@SAXPBUtraceId@exception@@@Z  (Idle)
01:000C0D78 ?_onReportErrorClick@errorPresentationDialog@@SAXQAV1@@QAVbutton@@@PAPAUactionResponse_struct@3@@Z 
01:000C0D90 ?reportError@errorPresentationDialog@@SAXQAV1@@@Z 
01:000C0E70 ?_onDialogClose@errorPresentationDialog@@SAXQAV1@@QAVwindow@@@PAPAUcloseResponse_struct@frameDecoration@@@Z 
01:000C0E9C ?defaultExitProcessDelegate@errorPresentationDialog@@SAXXZ 
01:000C0EA0 ?_onCloseAppClick@errorPresentationDialog@@SAXQAV1@@QAVbutton@@@PAPAUactionResponse_struct@3@@Z 
01:000C0F54 ?onShow@errorPresentationDialog@@SAXQAV1@@QAVwindow@@@PBUlParam@@@Z 
01:000C0F88 ?_onNative@errorPresentationDialog@@SAXQAV1@@QAVwindow@@@IPBUwParam@@PBUlParam@@PAPAUnativeResponse_struct@3@@Z 
01:000C1084 ?generatedInitialize@errorPresentationDialog@@SAXQAV1@@@Z 
01:000C1BB0 ?_newUserError@errorPresentationDialog@@SAXQAVwindow@@@PB_WPAUtraceInfo_struct@exception@@PAPAV1@@@Z 
01:000C1BE0 ?_newInternalError@errorPresentationDialog@@SAXQAVwindow@@@PAUtraceInfo_struct@exception@@PAPAV1@@@Z 
01:000C1C0C ?_newFeedback@errorPresentationDialog@@SAXQAVwindow@@@PAPAV1@@@Z 
01:000C1C34 ?title@errorPresentationDialog@@SGXPB_W@Z  (Idle)
01:000C1C40 ?title@errorPresentationDialog@@SGPB_WXZ  (Idle)
01:000C1C48 ?internalErrorMessage@errorPresentationDialog@@SGXPB_W@Z  (Idle)
01:000C1C54 ?internalErrorMessage@errorPresentationDialog@@SGPB_WXZ  (Idle)
01:000C1C5C ?commentTextPromt@errorPresentationDialog@@SGXPB_W@Z  (Idle)
01:000C1C68 ?commentTextPromt@errorPresentationDialog@@SGPB_WXZ  (Idle)
01:000C1C70 ?feedbackMessage@errorPresentationDialog@@SGXPB_W@Z  (Idle)
01:000C1C7C ?feedbackMessage@errorPresentationDialog@@SGPB_WXZ  (Idle)
01:000C1C84 ?callBackBtnText@errorPresentationDialog@@SGXPB_W@Z  (Idle)
01:000C1C90 ?callBackBtnText@errorPresentationDialog@@SGPB_WXZ  (Idle)
01:000C1C98 ?dontCallBackBtnText@errorPresentationDialog@@SGXPB_W@Z  (Idle)
01:000C1CA4 ?dontCallBackBtnText@errorPresentationDialog@@SGPB_WXZ  (Idle)
01:000C1CAC ?showDetailsBtnText@errorPresentationDialog@@SGXPB_W@Z  (Idle)
01:000C1CB8 ?showDetailsBtnText@errorPresentationDialog@@SGPB_WXZ  (Idle)
01:000C1CC0 ?hideDetailsBtnText@errorPresentationDialog@@SGXPB_W@Z  (Idle)
01:000C1CCC ?hideDetailsBtnText@errorPresentationDialog@@SGPB_WXZ  (Idle)
01:000C1CD4 ?closeApplicationBtnText@errorPresentationDialog@@SGXPB_W@Z  (Idle)
01:000C1CE0 ?closeApplicationBtnText@errorPresentationDialog@@SGPB_WXZ  (Idle)
01:000C1CE8 ?allwaysReportError@errorPresentationDialog@@SGXPAUboolean_struct@_builtIn@@@Z  (Idle)
01:000C1CF4 ?allwaysReportError@errorPresentationDialog@@SGPAUboolean_struct@_builtIn@@XZ  (Idle)
01:000C1CFC ?reportErrorDelegate@errorPresentationDialog@@SGXX@Z  (Idle)
01:000C1D08 ?reportErrorDelegate@errorPresentationDialog@@SGXXZ  (Idle)
01:000C1D10 ?exitProcessDelegate@errorPresentationDialog@@SGXX@Z  (Idle)
01:000C1D1C ?exitProcessDelegate@errorPresentationDialog@@SGXXZ  (Idle)
01:000C1D24 ?extraInfoWriter@errorPresentationDialog@@SGXX@Z  (Idle)
01:000C1D30 ?extraInfoWriter@errorPresentationDialog@@SGXXZ  (Idle)
01:000C3020 errorPresentationDialog?_initObject@@@QAGXQAV1@H@Z 
01:000C3058 ?@create_object@errorPresentationDialog@@SGQAV1@@XZ 
01:000C3074 errorPresentationDialog?_InternalFinalizer@@@QAGXQAV1@@Z 
--- From 'Obj\gdiplus.A4A4230C.obj'
01:000C3090 ?newNative@textureBrush@@SAXQAV1@@PBUgpTexture@gdiplus_native@@@Z  (Idle)
01:000C30B4 ?create@textureBrush@@SAXQAV1@@QAVimage@@@@Z  (Idle)
01:000C30C8 ?create@textureBrush@@SAXQAV1@@QAVimage@@@PBUgpWrapMode@gdiplus_native@@@Z 
01:000C3108 ?createF@textureBrush@@SAXQAV1@@QAVimage@@@PBUgpWrapMode@gdiplus_native@@PAUrectF_struct@gdiplus@@@Z  (Idle)
01:000C318C ?createF@textureBrush@@SAXQAV1@@QAVimage@@@PBUgpWrapMode@gdiplus_native@@PANPANPANPAN@Z  (Idle)
01:000C323C ?createI@textureBrush@@SAXQAV1@@QAVimage@@@PBUgpWrapMode@gdiplus_native@@HHHH@Z  (Idle)
01:000C3274 ?createI@textureBrush@@SAXQAV1@@QAVimage@@@PBUgpWrapMode@gdiplus_native@@PAUrectI_struct@gdiplus@@@Z 
01:000C32DC ?createIAF@textureBrush@@SAXQAV1@@QAVimage@@@PAUrectF_struct@gdiplus@@@Z  (Idle)
01:000C335C ?createIAF@textureBrush@@SAXQAV1@@QAVimage@@@PAUrectF_struct@gdiplus@@QAVimageAttributes@@@@Z  (Idle)
01:000C33EC ?createIAI@textureBrush@@SAXQAV1@@QAVimage@@@PAUrectI_struct@gdiplus@@@Z  (Idle)
01:000C3450 ?createIAI@textureBrush@@SAXQAV1@@QAVimage@@@PAUrectI_struct@gdiplus@@QAVimageAttributes@@@@Z  (Idle)
01:000C34C4 ?transform@textureBrush@@SGQAVmatrix@@@QAV1@@@Z 
01:000C351C ?transform@textureBrush@@SGXQAV1@@QAVmatrix@@@@Z 
01:000C3560 ?resetTransform@textureBrush@@SAXQAV1@@@Z 
01:000C3594 ?multiplyTransform@textureBrush@@SAXQAV1@@QAVmatrix@@@@Z 
01:000C35A8 ?multiplyTransform@textureBrush@@SAXQAV1@@QAVmatrix@@@PBUgpMatrixOrder@gdiplus_native@@@Z 
01:000C35E8 ?translateTransform@textureBrush@@SAXQAV1@@PANPAN@Z 
01:000C35FC ?translateTransform@textureBrush@@SAXQAV1@@PANPANPBUgpMatrixOrder@gdiplus_native@@@Z 
01:000C367C ?scaleTransform@textureBrush@@SAXQAV1@@PANPAN@Z 
01:000C3690 ?scaleTransform@textureBrush@@SAXQAV1@@PANPANPBUgpMatrixOrder@gdiplus_native@@@Z 
01:000C3710 ?rotateTransform@textureBrush@@SAXQAV1@@PAN@Z 
01:000C3724 ?rotateTransform@textureBrush@@SAXQAV1@@PANPBUgpMatrixOrder@gdiplus_native@@@Z 
01:000C377C ?wrapMode@textureBrush@@SGPBUgpWrapMode@gdiplus_native@@QAV1@@@Z 
01:000C37B8 ?wrapMode@textureBrush@@SGXQAV1@@PBUgpWrapMode@gdiplus_native@@@Z 
01:000C37F0 ?image@textureBrush@@SGQAV0@@QAV1@@@Z 
01:000C3840 ?_newNative@textureBrush@@SAXPBUgpTexture@gdiplus_native@@PAPAV1@@@Z  (Idle)
01:000C3868 ?_create@textureBrush@@SAXQAVimage@@@PAPAV1@@@Z  (Idle)
01:000C3890 ?_create@textureBrush@@SAXQAVimage@@@PBUgpWrapMode@gdiplus_native@@PAPAV1@@@Z  (Idle)
01:000C38BC ?_createF@textureBrush@@SAXQAVimage@@@PBUgpWrapMode@gdiplus_native@@PAUrectF_struct@gdiplus@@PAPAV1@@@Z  (Idle)
01:000C38EC ?_createF@textureBrush@@SAXQAVimage@@@PBUgpWrapMode@gdiplus_native@@PANPANPANPANPAPAV1@@@Z  (Idle)
01:000C3924 ?_createI@textureBrush@@SAXQAVimage@@@PBUgpWrapMode@gdiplus_native@@HHHHPAPAV1@@@Z  (Idle)
01:000C395C ?_createI@textureBrush@@SAXQAVimage@@@PBUgpWrapMode@gdiplus_native@@PAUrectI_struct@gdiplus@@PAPAV1@@@Z  (Idle)
01:000C398C ?_createIAF@textureBrush@@SAXQAVimage@@@PAUrectF_struct@gdiplus@@PAPAV1@@@Z  (Idle)
01:000C39B8 ?_createIAF@textureBrush@@SAXQAVimage@@@PAUrectF_struct@gdiplus@@QAVimageAttributes@@@PAPAV1@@@Z  (Idle)
01:000C39E8 ?_createIAI@textureBrush@@SAXQAVimage@@@PAUrectI_struct@gdiplus@@PAPAV1@@@Z  (Idle)
01:000C3A14 ?_createIAI@textureBrush@@SAXQAVimage@@@PAUrectI_struct@gdiplus@@QAVimageAttributes@@@PAPAV1@@@Z  (Idle)
01:000C3A44 ?nativeTextureBrush@textureBrush@@SGPBUgpTexture@gdiplus_native@@QAV1@@@Z 
01:000C3A50 ?newNative@stringFormat@@SAXQAV1@@PBUgpStringFormat@gdiplus_native@@@Z  (Idle)
01:000C3A64 ?create@stringFormat@@SAXQAV1@@HPBUlangid@gui_native@@@Z  (Idle)
01:000C3A9C ?create@stringFormat@@SAXQAV1@@@Z  (Idle)
01:000C3ACC ?finalize@stringFormat@@SGXQAV1@@@Z 
01:000C3B2C ?_clone@stringFormat@@SAXQAV1@@PAPAV1@@@Z 
01:000C3B68 ?formatFlags@stringFormat@@SGHQAV1@@@Z 
01:000C3BA4 ?formatFlags@stringFormat@@SGXQAV1@@H@Z 
01:000C3BDC ?alignment@stringFormat@@SGPBUstringAlignment@gdiplus_native@@QAV1@@@Z 
01:000C3C18 ?alignment@stringFormat@@SGXQAV1@@PBUstringAlignment@gdiplus_native@@@Z 
01:000C3C50 ?lineAlignment@stringFormat@@SGPBUstringAlignment@gdiplus_native@@QAV1@@@Z 
01:000C3C8C ?lineAlignment@stringFormat@@SGXQAV1@@PBUstringAlignment@gdiplus_native@@@Z 
01:000C3CC4 ?hotkeyPrefix@stringFormat@@SGHQAV1@@@Z 
01:000C3D00 ?hotkeyPrefix@stringFormat@@SGXQAV1@@H@Z 
01:000C3D38 ?tabstopCount@stringFormat@@SGPBUpositive@@QAV1@@@Z 
01:000C3D84 ?setTabStops@stringFormat@@SAXQAV1@@PANPAU?$__packedList_struct@PAN@@@Z 
01:000C3DF4 ?getTabStops@stringFormat@@SAXQAV1@@PAPANPAPAU?$__packedList_struct@PAPAN@@@Z 
01:000C3ED4 ?setDigitSubstitution@stringFormat@@SAXQAV1@@PBUlangid@gui_native@@PBUstringDigitSubstitute@gdiplus_native@@@Z 
01:000C3F08 ?getDigitSubstitution@stringFormat@@SAXQAV1@@AAUlangid@gui_native@@AAUstringDigitSubstitute@gdiplus_native@@@Z 
01:000C3F3C ?trimming@stringFormat@@SGPBUstringTrimming@gdiplus_native@@QAV1@@@Z 
01:000C3F78 ?trimming@stringFormat@@SGXQAV1@@PBUstringTrimming@gdiplus_native@@@Z 
01:000C3FB0 ?measurableCharacterRangeCount@stringFormat@@SGPBUpositive@@QAV1@@@Z 
01:000C3FFC ?anonymous$o0$1$measurablecharacterrange/1np$stringFormat@1@SAXPAXPAUcharacterRange_struct@gdiplus@@@Z 
01:000C4038 ?measurableCharacterRange@stringFormat@@SGXQAV1@@PAU?$__packedList_struct@UcharacterRange@gdiplus@@@@@Z 
01:000C4098 ?genericDefault@stringFormat@@SGQAV1@@QAV1@@@Z 
01:000C40DC ?genericTypographi@stringFormat@@SGQAV1@@QAV1@@@Z 
01:000C4120 ?_newNative@stringFormat@@SAXPBUgpStringFormat@gdiplus_native@@PAPAV1@@@Z 
01:000C4148 ?_create@stringFormat@@SAXPAPAV1@@@Z 
01:000C4170 ?_create@stringFormat@@SAXHPBUlangid@gui_native@@PAPAV1@@@Z 
01:000C419C ?nativeStringFormat@stringFormat@@SGPBUgpStringFormat@gdiplus_native@@QAV1@@@Z 
01:000C41A8 ?newNative@solidBrush@@SAXQAV1@@PBUgpSolidFill@gdiplus_native@@@Z  (Idle)
01:000C41CC ?create@solidBrush@@SAXQAV1@@QAVcolor@@@@Z  (Idle)
01:000C41F8 ?_newNative@solidBrush@@SAXPBUgpSolidFill@gdiplus_native@@PAPAV1@@@Z  (Idle)
01:000C4220 ?_create@solidBrush@@SAXQAVcolor@@@PAPAV1@@@Z 
01:000C4248 ?nativeSolidBrush@solidBrush@@SGPBUgpSolidFill@gdiplus_native@@QAV1@@@Z 
01:000C4254 ?newNative@region@@SAXQAV1@@PBUgpRegion@gdiplus_native@@@Z  (Idle)
01:000C4268 ?create@region@@SAXQAV1@@@Z  (Idle)
01:000C4298 ?createRectF@region@@SAXQAV1@@PAUrectF_struct@gdiplus@@@Z  (Idle)
01:000C42CC ?createRectI@region@@SAXQAV1@@PAUrectI_struct@gdiplus@@@Z  (Idle)
01:000C4304 ?createPath@region@@SAXQAV1@@QAVgraphicsPath@@@@Z  (Idle)
01:000C4348 ?createRegionData@region@@SAXQAV1@@PAXPBUpositive@@@Z  (Idle)
01:000C4380 ?createHRGN@region@@SAXQAV1@@PBUhRgn@gui_native@@@Z  (Idle)
01:000C43B8 ?finalize@region@@SGXQAV1@@@Z 
01:000C4418 ?_fromHrgn@region@@SAXQAV1@@PBUhRgn@gui_native@@PAPAV1@@@Z 
01:000C4430 ?_clone@region@@SAXQAV1@@PAPAV1@@@Z 
01:000C446C ?makeInfinite@region@@SAXQAV1@@@Z 
01:000C44A0 ?makeEmpty@region@@SAXQAV1@@@Z 
01:000C44D4 ?intersectRectF@region@@SAXQAV1@@PAUrectF_struct@gdiplus@@@Z 
01:000C4508 ?intersectRectI@region@@SAXQAV1@@PAUrectI_struct@gdiplus@@@Z 
01:000C453C ?intersectPath@region@@SAXQAV1@@QAVgraphicsPath@@@@Z 
01:000C457C ?intersectRegion@region@@SAXQAV1@@0@Z 
01:000C45BC ?unionRectF@region@@SAXQAV1@@PAUrectF_struct@gdiplus@@@Z 
01:000C45F0 ?unionRectI@region@@SAXQAV1@@PAUrectI_struct@gdiplus@@@Z 
01:000C4624 ?unionPath@region@@SAXQAV1@@QAVgraphicsPath@@@@Z 
01:000C4664 ?unionRegion@region@@SAXQAV1@@0@Z 
01:000C46A4 ?xorRectF@region@@SAXQAV1@@PAUrectF_struct@gdiplus@@@Z 
01:000C46D8 ?xorRectI@region@@SAXQAV1@@PAUrectI_struct@gdiplus@@@Z 
01:000C470C ?xorPath@region@@SAXQAV1@@QAVgraphicsPath@@@@Z 
01:000C474C ?xorRegion@region@@SAXQAV1@@0@Z 
01:000C478C ?excludeRectF@region@@SAXQAV1@@PAUrectF_struct@gdiplus@@@Z 
01:000C47C0 ?excludeRectI@region@@SAXQAV1@@PAUrectI_struct@gdiplus@@@Z 
01:000C47F4 ?excludePath@region@@SAXQAV1@@QAVgraphicsPath@@@@Z 
01:000C4834 ?excludeRegion@region@@SAXQAV1@@0@Z 
01:000C4874 ?complementRectF@region@@SAXQAV1@@PAUrectF_struct@gdiplus@@@Z 
01:000C48A8 ?complementRectI@region@@SAXQAV1@@PAUrectI_struct@gdiplus@@@Z 
01:000C48DC ?complementPath@region@@SAXQAV1@@QAVgraphicsPath@@@@Z 
01:000C491C ?complementRegion@region@@SAXQAV1@@0@Z 
01:000C495C ?translateF@region@@SAXQAV1@@PANPAN@Z 
01:000C49D8 ?translateI@region@@SAXQAV1@@HH@Z 
01:000C4A0C ?transform@region@@SAXQAV1@@QAVmatrix@@@@Z 
01:000C4A48 ?_getBoundsF@region@@SAXQAV1@@QAVgraphics@@@PAPAUrectF_struct@gdiplus@@@Z 
01:000C4AA8 ?_getBoundsI@region@@SAXQAV1@@QAVgraphics@@@PAPAUrectI_struct@gdiplus@@@Z 
01:000C4B08 ?_getHRGN@region@@SAXQAV1@@QAVgraphics@@@AAUhRgn@gui_native@@@Z 
01:000C4B48 ?isEmpty@region@@SAXQAV1@@QAVgraphics@@@@Z 
01:000C4B98 ?isInfinite@region@@SAXQAV1@@QAVgraphics@@@@Z 
01:000C4BE8 ?equals@region@@SAXQAV1@@0QAVgraphics@@@@Z 
01:000C4C48 ?_getDataSize@region@@SAXQAV1@@AAUbyteCount@@@Z 
01:000C4C94 ?_getData@region@@SAXQAV1@@PAPAXAAUbyteCount@@@Z 
01:000C4D10 ?isVisibleF@region@@SAXQAV1@@PAUpointF_struct@gdiplus@@@Z 
01:000C4D24 ?isVisibleF@region@@SAXQAV1@@PANPAN@Z 
01:000C4D94 ?isVisiblePointF@region@@SAXQAV1@@PAUpointF_struct@gdiplus@@PAUoptional_struct@core@@QAVgraphics@@@@Z 
01:000C4E24 ?isVisibleRectF@region@@SAXQAV1@@PAUrectF_struct@gdiplus@@PAUoptional_struct@core@@QAVgraphics@@@@Z 
01:000C4ED0 ?isVisibleI@region@@SAXQAV1@@PAUpointI_struct@gdiplus@@@Z 
01:000C4EE4 ?isVisibleI@region@@SAXQAV1@@HH@Z 
01:000C4F18 ?isVisiblePointI@region@@SAXQAV1@@PAUpointI_struct@gdiplus@@PAUoptional_struct@core@@QAVgraphics@@@@Z 
01:000C4F9C ?isVisibleRectI@region@@SAXQAV1@@PAUrectI_struct@gdiplus@@PAUoptional_struct@core@@QAVgraphics@@@@Z 
01:000C5030 ?_getRegionScanCount@region@@SAXQAV1@@QAVmatrix@@@AAUpositive@@@Z 
01:000C508C ?_getRegionScanF@region@@SAXQAV1@@QAVmatrix@@@PAPAU?$__packedList_struct@UrectF@@@@@Z 
01:000C5148 ?_getRegionScanI@region@@SAXQAV1@@QAVmatrix@@@PAPAU?$__packedList_struct@UrectI@@@@@Z 
01:000C5204 ?_newNative@region@@SAXPBUgpRegion@gdiplus_native@@PAPAV1@@@Z 
01:000C522C ?_create@region@@SAXPAPAV1@@@Z  (Idle)
01:000C5254 ?_createRectF@region@@SAXPAUrectF_struct@gdiplus@@PAPAV1@@@Z  (Idle)
01:000C527C ?_createRectI@region@@SAXPAUrectI_struct@gdiplus@@PAPAV1@@@Z  (Idle)
01:000C52A4 ?_createPath@region@@SAXQAVgraphicsPath@@@PAPAV1@@@Z  (Idle)
01:000C52CC ?_createRegionData@region@@SAXPAXPBUpositive@@PAPAV1@@@Z  (Idle)
01:000C52F8 ?_createHRGN@region@@SAXPBUhRgn@gui_native@@PAPAV1@@@Z 
01:000C5320 ?nativeRegion@region@@SGXQAV1@@PBUgpRegion@gdiplus_native@@@Z 
01:000C5330 ?nativeRegion@region@@SGPBUgpRegion@gdiplus_native@@QAV1@@@Z 
01:000C533C ?create@privateFontCollection@@SAXQAV1@@@Z  (Idle)
01:000C5370 ?_create@privateFontCollection@@SAXPAPAV1@@@Z  (Idle)
01:000C5394 ?create@pen@@SAXQAV1@@@Z  (Idle)
01:000C53CC ?newNative@pen@@SAXQAV1@@PBUgpPen@gdiplus_native@@@Z  (Idle)
01:000C53E0 ?createBrush@pen@@SAXQAV1@@PANQAVbrush@@@@Z  (Idle)
01:000C5448 ?createColor@pen@@SAXQAV1@@QAVcolor@@@PANPBUgpUnit@gdiplus_native@@@Z 
01:000C54B4 ?finalize@pen@@SGXQAV1@@@Z 
01:000C5514 ?_clone@pen@@SAXQAV1@@PAPAV1@@@Z 
01:000C5550 ?alignment@pen@@SGPBUgpPenAlignment@gdiplus_native@@QAV1@@@Z 
01:000C558C ?alignment@pen@@SGXQAV1@@PBUgpPenAlignment@gdiplus_native@@@Z 
01:000C55C4 ?brush@pen@@SGQAV0@@QAV1@@@Z 
01:000C575C ?brush@pen@@SGXQAV1@@QAV0@@@Z 
01:000C57A0 ?color@pen@@SGQAV0@@QAV1@@@Z 
01:000C5830 ?color@pen@@SGXQAV1@@QAV0@@@Z 
01:000C5874 ?compoundArray@pen@@SGPAU?$__packedList_struct@PAN@@QAV1@@@Z 
01:000C5920 ?compoundArray@pen@@SGXQAV1@@PAU?$__packedList_struct@PAN@@@Z 
01:000C5974 ?customEndCap@pen@@SGQAVcustomLineCap@@@QAV1@@@Z 
01:000C59C4 ?customEndCap@pen@@SGXQAV1@@QAVcustomLineCap@@@@Z 
01:000C5A08 ?customStartCap@pen@@SGQAVcustomLineCap@@@QAV1@@@Z 
01:000C5A58 ?customStartCap@pen@@SGXQAV1@@QAVcustomLineCap@@@@Z 
01:000C5A9C ?dashCap@pen@@SGPBUgpDashCap@gdiplus_native@@QAV1@@@Z 
01:000C5AD8 ?dashCap@pen@@SGXQAV1@@PBUgpDashCap@gdiplus_native@@@Z 
01:000C5B10 ?_dashOffset@pen@@SAXQAV1@@PAPAN@Z 
01:000C5B7C ?dashOffset@pen@@SAXQAV1@@PAN@Z 
01:000C5BD0 ?dashPattern@pen@@SGPAU?$__packedList_struct@PAN@@QAV1@@@Z 
01:000C5C7C ?dashPattern@pen@@SGXQAV1@@PAU?$__packedList_struct@PAN@@@Z 
01:000C5CD0 ?dashStyle@pen@@SGPBUgpDashStyle@gdiplus_native@@QAV1@@@Z 
01:000C5D0C ?dashStyle@pen@@SGXQAV1@@PBUgpDashStyle@gdiplus_native@@@Z 
01:000C5D44 ?endCap@pen@@SGPBUgpLineCap@gdiplus_native@@QAV1@@@Z 
01:000C5D80 ?endCap@pen@@SGXQAV1@@PBUgpLineCap@gdiplus_native@@@Z 
01:000C5DB8 ?startCap@pen@@SGPBUgpLineCap@gdiplus_native@@QAV1@@@Z 
01:000C5DF4 ?startCap@pen@@SGXQAV1@@PBUgpLineCap@gdiplus_native@@@Z 
01:000C5E2C ?lineJoin@pen@@SGPBUgpLineJoin@gdiplus_native@@QAV1@@@Z 
01:000C5E68 ?lineJoin@pen@@SGXQAV1@@PBUgpLineJoin@gdiplus_native@@@Z 
01:000C5EA0 ?_miterLimit@pen@@SAXQAV1@@PAPAN@Z 
01:000C5F0C ?miterLimit@pen@@SAXQAV1@@PAN@Z 
01:000C5F60 ?penType@pen@@SGPBUgpPenType@gdiplus_native@@QAV1@@@Z 
01:000C5F9C ?_width@pen@@SAXQAV1@@PAPAN@Z 
01:000C6008 ?width@pen@@SAXQAV1@@PAN@Z 
01:000C605C ?transform@pen@@SGQAVmatrix@@@QAV1@@@Z 
01:000C60B4 ?transform@pen@@SGXQAV1@@QAVmatrix@@@@Z 
01:000C60F8 ?setLineCap@pen@@SAXQAV1@@PBUgpLineCap@gdiplus_native@@1PBUgpDashCap@4@@Z 
01:000C6130 ?multiplyTransform@pen@@SAXQAV1@@QAVmatrix@@@PBUgpMatrixOrder@gdiplus_native@@@Z 
01:000C6170 ?resetTransform@pen@@SAXQAV1@@@Z 
01:000C61A4 ?rotateTransform@pen@@SAXQAV1@@PANPBUgpMatrixOrder@gdiplus_native@@@Z 
01:000C61FC ?scaleTransform@pen@@SAXQAV1@@PANPANPBUgpMatrixOrder@gdiplus_native@@@Z 
01:000C627C ?_newNative@pen@@SAXPBUgpPen@gdiplus_native@@PAPAV1@@@Z 
01:000C62A4 ?_create@pen@@SAXPAPAV1@@@Z  (Idle)
01:000C62CC ?_createBrush@pen@@SAXPANQAVbrush@@@PAPAV1@@@Z 
01:000C62F8 ?_createColor@pen@@SAXQAVcolor@@@PANPBUgpUnit@gdiplus_native@@PAPAV1@@@Z 
01:000C6328 ?nativePen@pen@@SGPBUgpPen@gdiplus_native@@QAV1@@@Z 
01:000C6334 ?newNative@pathGradientBrush@@SAXQAV1@@PBUgpPathGradient@gdiplus_native@@@Z  (Idle)
01:000C6358 ?createPathGradientF@pathGradientBrush@@SAXQAV1@@PAU?$__packedList_struct@UpointF@@@@@Z  (Idle)
01:000C636C ?createPathGradientF@pathGradientBrush@@SAXQAV1@@PAU?$__packedList_struct@UpointF@@@@PBUgpWrapMode@gdiplus_native@@@Z 
01:000C63C0 ?createPathGradientI@pathGradientBrush@@SAXQAV1@@PAU?$__packedList_struct@UpointI@@@@@Z  (Idle)
01:000C63D4 ?createPathGradientI@pathGradientBrush@@SAXQAV1@@PAU?$__packedList_struct@UpointI@@@@PBUgpWrapMode@gdiplus_native@@@Z 
01:000C6428 ?createPathGradientFromPath@pathGradientBrush@@SAXQAV1@@QAVgraphicsPath@@@@Z  (Idle)
01:000C646C ?centerColor@pathGradientBrush@@SGQAVcolor@@@QAV1@@@Z 
01:000C64BC ?centerColor@pathGradientBrush@@SGXQAV1@@QAVcolor@@@@Z 
01:000C6500 ?pointCount@pathGradientBrush@@SGPBUpositive@@QAV1@@@Z 
01:000C654C ?surroundColorCount@pathGradientBrush@@SGPBUpositive@@QAV1@@@Z 
01:000C6598 $surroundColors$pathGradientBrush_implement$predicate$(i)$c$ 
01:000C6614 $surroundColors$pathGradientBrush_implement$predicate$(i,i)$c$ 
01:000C6688 ?graphicsPath@pathGradientBrush@@SGQAV0@@QAV1@@@Z 
01:000C66D8 ?graphicsPath@pathGradientBrush@@SGXQAV1@@QAV0@@@Z 
01:000C671C ?centerPointF@pathGradientBrush@@SGPAUpointF_struct@gdiplus@@QAV1@@@Z 
01:000C6770 ?centerPointF@pathGradientBrush@@SGXQAV1@@PAUpointF_struct@gdiplus@@@Z 
01:000C67A8 ?centerPointI@pathGradientBrush@@SGPAUpointI_struct@gdiplus@@QAV1@@@Z 
01:000C67FC ?centerPointI@pathGradientBrush@@SGXQAV1@@PAUpointI_struct@gdiplus@@@Z 
01:000C6834 ?rectF@pathGradientBrush@@SGPAUrectF_struct@gdiplus@@QAV1@@@Z 
01:000C6888 ?rectI@pathGradientBrush@@SGPAUrectI_struct@gdiplus@@QAV1@@@Z 
01:000C68DC ?useGammaCorrection@pathGradientBrush@@SGPAUboolean_struct@_builtIn@@QAV1@@@Z 
01:000C692C ?useGammaCorrection@pathGradientBrush@@SGXQAV1@@PAUboolean_struct@_builtIn@@@Z 
01:000C6978 ?blendCount@pathGradientBrush@@SGPBUpositive@@QAV1@@@Z 
01:000C69C4 ?setBlend@pathGradientBrush@@SAXQAV1@@PAU?$__packedList_struct@PAN@@1@Z 
01:000C6A60 ?getBlend@pathGradientBrush@@SAXQAV1@@PAPAU?$__packedList_struct@PAPAN@@1@Z 
01:000C6B04 ?interpolationColorCount@pathGradientBrush@@SGPBUpositive@@QAV1@@@Z 
01:000C6B50 $setInterpolationColors$pathGradientBrush_implement$predicate$(i,i,i)$c$_m39 
01:000C6C24 $getInterpolationColors$pathGradientBrush_implement$predicate$(i,o,o)$c$_m40 
01:000C6CC8 ?setBlendBellShape@pathGradientBrush@@SAXQAV1@@PAN@Z 
01:000C6CDC ?setBlendBellShape@pathGradientBrush@@SAXQAV1@@PANPAN@Z 
01:000C6D58 ?transform@pathGradientBrush@@SGQAVmatrix@@@QAV1@@@Z 
01:000C6DB0 ?transform@pathGradientBrush@@SGXQAV1@@QAVmatrix@@@@Z 
01:000C6DF4 ?resetTransform@pathGradientBrush@@SAXQAV1@@@Z 
01:000C6E28 ?multiplyTransform@pathGradientBrush@@SAXQAV1@@QAVmatrix@@@@Z 
01:000C6E3C ?multiplyTransform@pathGradientBrush@@SAXQAV1@@QAVmatrix@@@PBUgpMatrixOrder@gdiplus_native@@@Z 
01:000C6E7C ?translateTransform@pathGradientBrush@@SAXQAV1@@PANPAN@Z 
01:000C6E90 ?translateTransform@pathGradientBrush@@SAXQAV1@@PANPANPBUgpMatrixOrder@gdiplus_native@@@Z 
01:000C6F10 ?scaleTransform@pathGradientBrush@@SAXQAV1@@PANPAN@Z 
01:000C6F24 ?scaleTransform@pathGradientBrush@@SAXQAV1@@PANPANPBUgpMatrixOrder@gdiplus_native@@@Z 
01:000C6FA4 ?rotateTransform@pathGradientBrush@@SAXQAV1@@PAN@Z 
01:000C6FB8 ?rotateTransform@pathGradientBrush@@SAXQAV1@@PANPBUgpMatrixOrder@gdiplus_native@@@Z 
01:000C7010 ?wrapMode@pathGradientBrush@@SGPBUgpWrapMode@gdiplus_native@@QAV1@@@Z 
01:000C704C ?wrapMode@pathGradientBrush@@SGXQAV1@@PBUgpWrapMode@gdiplus_native@@@Z 
01:000C7084 ?getFocusScale@pathGradientBrush@@SAXQAV1@@PAPAN1@Z 
01:000C712C ?setFocusScale@pathGradientBrush@@SAXQAV1@@PANPAN@Z 
01:000C71A8 ?_newNative@pathGradientBrush@@SAXPBUgpPathGradient@gdiplus_native@@PAPAV1@@@Z 
01:000C71D0 ?_createPathGradientF@pathGradientBrush@@SAXPAU?$__packedList_struct@UpointF@@@@PAPAV1@@@Z  (Idle)
01:000C71F8 ?_createPathGradientF@pathGradientBrush@@SAXPAU?$__packedList_struct@UpointF@@@@PBUgpWrapMode@gdiplus_native@@PAPAV1@@@Z  (Idle)
01:000C7224 ?_createPathGradientI@pathGradientBrush@@SAXPAU?$__packedList_struct@UpointI@@@@PAPAV1@@@Z  (Idle)
01:000C724C ?_createPathGradientI@pathGradientBrush@@SAXPAU?$__packedList_struct@UpointI@@@@PBUgpWrapMode@gdiplus_native@@PAPAV1@@@Z  (Idle)
01:000C7278 ?_createPathGradientFromPath@pathGradientBrush@@SAXQAVgraphicsPath@@@PAPAV1@@@Z 
01:000C72A0 ?nativePathGradientBrush@pathGradientBrush@@SGPBUgpPathGradient@gdiplus_native@@QAV1@@@Z 
01:000C72AC ?newNative@metafile@@SAXQAV1@@PBUgpMetafile@gdiplus_native@@@Z  (Idle)
01:000C72C4 ?createFromEnhMetafile@metafile@@SAXQAV1@@PBUhEnhMetafile@@PAUboolean_struct@_builtIn@@@Z  (Idle)
01:000C730C ?create@metafile@@SAXQAV1@@PB_W@Z  (Idle)
01:000C7344 ?createFromWmf@metafile@@SAXQAV1@@PBUhMetafile@@PBUwmfPlaceableFileHeader@gdiplus_native@@PAUboolean_struct@_builtIn@@@Z  (Idle)
01:000C7394 ?createFromIStream@metafile@@SAXQAV1@@QAViStream_native@@@@Z  (Idle)
01:000C73CC ?recordMetafile@metafile@@SAXQAV1@@PBUhDC@@PBUemfType@gdiplus_native@@PB_W@Z  (Idle)
01:000C740C ?recordMetafile@metafile@@SAXQAV1@@PBUhDC@@PAUrectF_struct@gdiplus@@PBUmetafileFrameUnit@gdiplus_native@@PBUemfType@7@PB_W@Z  (Idle)
01:000C7450 ?recordMetafileI@metafile@@SAXQAV1@@PBUhDC@@PAUrectI_struct@gdiplus@@PBUmetafileFrameUnit@gdiplus_native@@PBUemfType@7@PB_W@Z  (Idle)
01:000C7494 ?recordMetafileFilename@metafile@@SAXQAV1@@PB_WPBUhDC@@PBUemfType@gdiplus_native@@1@Z  (Idle)
01:000C74D8 ?recordMetafileFilename@metafile@@SAXQAV1@@PB_WPBUhDC@@PAUrectF_struct@gdiplus@@PBUmetafileFrameUnit@gdiplus_native@@PBUemfType@7@1@Z  (Idle)
01:000C751C ?recordMetafileFilenameI@metafile@@SAXQAV1@@PB_WPBUhDC@@PAUrectI_struct@gdiplus@@PBUmetafileFrameUnit@gdiplus_native@@PBUemfType@7@1@Z  (Idle)
01:000C7560 ?recordMetafileStream@metafile@@SAXQAV1@@QAViStream_native@@@PBUhDC@@PBUemfType@gdiplus_native@@PB_W@Z  (Idle)
01:000C75A4 ?recordMetafileStream@metafile@@SAXQAV1@@QAViStream_native@@@PBUhDC@@PAUrectF_struct@gdiplus@@PBUmetafileFrameUnit@gdiplus_native@@PBUemfType@8@PB_W@Z  (Idle)
01:000C75E8 ?recordMetafileStreamI@metafile@@SAXQAV1@@QAViStream_native@@@PBUhDC@@PAUrectI_struct@gdiplus@@PBUmetafileFrameUnit@gdiplus_native@@PBUemfType@8@PB_W@Z  (Idle)
01:000C762C ?_getMetafileHeaderFromWmf@metafile@@SAXPBUhMetafile@@PBUwmfPlaceableFileHeader@gdiplus_native@@PAPAUmetafileHeader_struct@4@@Z  (Idle)
01:000C7678 ?_getMetafileHeaderFromEmf@metafile@@SAXPBUhEnhMetafile@@PAPAUmetafileHeader_struct@gdiplus_native@@@Z  (Idle)
01:000C76C0 ?_getMetafileHeaderFromFile@metafile@@SAXPB_WPAPAUmetafileHeader_struct@gdiplus_native@@@Z  (Idle)
01:000C7708 ?_getMetafileHeaderFromStream@metafile@@SAXQAViStream_native@@@PAPAUmetafileHeader_struct@gdiplus_native@@@Z  (Idle)
01:000C7750 ?_getMetafileHeader@metafile@@SAXQAV1@@PAPAUmetafileHeader_struct@gdiplus_native@@@Z 
01:000C77A0 ?_newNative@metafile@@SAXPBUgpMetafile@gdiplus_native@@PAPAV1@@@Z  (Idle)
01:000C77C8 ?_create@metafile@@SAXPB_WPAPAV1@@@Z  (Idle)
01:000C77F0 ?_createFromEnhMetafile@metafile@@SAXPBUhEnhMetafile@@PAUboolean_struct@_builtIn@@PAPAV1@@@Z  (Idle)
01:000C781C ?_createFromWmf@metafile@@SAXPBUhMetafile@@PBUwmfPlaceableFileHeader@gdiplus_native@@PAUboolean_struct@_builtIn@@PAPAV1@@@Z  (Idle)
01:000C784C ?_createFromIStream@metafile@@SAXQAViStream_native@@@PAPAV1@@@Z  (Idle)
01:000C7874 ?_recordMetafile@metafile@@SAXPBUhDC@@PBUemfType@gdiplus_native@@PB_WPAPAV1@@@Z  (Idle)
01:000C78A4 ?_recordMetafile@metafile@@SAXPBUhDC@@PAUrectF_struct@gdiplus@@PBUmetafileFrameUnit@gdiplus_native@@PBUemfType@6@PB_WPAPAV1@@@Z  (Idle)
01:000C78D8 ?_recordMetafileI@metafile@@SAXPBUhDC@@PAUrectI_struct@gdiplus@@PBUmetafileFrameUnit@gdiplus_native@@PBUemfType@6@PB_WPAPAV1@@@Z  (Idle)
01:000C790C ?_recordMetafileFilename@metafile@@SAXPB_WPBUhDC@@PBUemfType@gdiplus_native@@0PAPAV1@@@Z  (Idle)
01:000C7940 ?_recordMetafileFilename@metafile@@SAXPB_WPBUhDC@@PAUrectF_struct@gdiplus@@PBUmetafileFrameUnit@gdiplus_native@@PBUemfType@6@0PAPAV1@@@Z  (Idle)
01:000C7978 ?_recordMetafileFilenameI@metafile@@SAXPB_WPBUhDC@@PAUrectI_struct@gdiplus@@PBUmetafileFrameUnit@gdiplus_native@@PBUemfType@6@0PAPAV1@@@Z  (Idle)
01:000C79B0 ?_recordMetafileStream@metafile@@SAXQAViStream_native@@@PBUhDC@@PBUemfType@gdiplus_native@@PB_WPAPAV1@@@Z  (Idle)
01:000C79E4 ?_recordMetafileStream@metafile@@SAXQAViStream_native@@@PBUhDC@@PAUrectF_struct@gdiplus@@PBUmetafileFrameUnit@gdiplus_native@@PBUemfType@7@PB_WPAPAV1@@@Z  (Idle)
01:000C7A1C ?_recordMetafileStreamI@metafile@@SAXQAViStream_native@@@PBUhDC@@PAUrectI_struct@gdiplus@@PBUmetafileFrameUnit@gdiplus_native@@PBUemfType@7@PB_WPAPAV1@@@Z  (Idle)
01:000C7A54 ?nativeMetafile@metafile@@SGXQAV1@@PBUgpMetafile@gdiplus_native@@@Z 
01:000C7A64 ?nativeMetafile@metafile@@SGPBUgpMetafile@gdiplus_native@@QAV1@@@Z 
01:000C7A70 ?newNative@matrix@@SAXQAV1@@PBUgpMatrix@gdiplus_native@@@Z  (Idle)
01:000C7A84 ?create@matrix@@SAXQAV1@@@Z  (Idle)
01:000C7AB8 ?createI@matrix@@SAXQAV1@@PAUrect_struct@gdiplus_native@@PBUgpPoint@4@@Z  (Idle)
01:000C7AF0 ?createF@matrix@@SAXQAV1@@PAUrectF_struct@gdiplus_native@@PBUgpPointF@4@@Z  (Idle)
01:000C7B28 ?create@matrix@@SAXQAV1@@PANPANPANPANPANPAN@Z  (Idle)
01:000C7C40 ?finalize@matrix@@SGXQAV1@@@Z 
01:000C7CA0 ?_clone@matrix@@SAXQAV1@@PAPAV1@@@Z 
01:000C7CDC ?elements@matrix@@SGPAUelements_struct@1@QAV1@@@Z 
01:000C7D2C ?elements@matrix@@SGXQAV1@@PAUelements_struct@1@@Z 
01:000C7DC0 ?setElements@matrix@@SAXQAV1@@PANPANPANPANPANPAN@Z 
01:000C7EB8 ?_offsetX@matrix@@SAXQAV1@@PAPAN@Z 
01:000C7F2C ?_offsetY@matrix@@SAXQAV1@@PAPAN@Z 
01:000C7FA0 ?reset@matrix@@SAXQAV1@@@Z 
01:000C7FE0 ?multiply@matrix@@SAXQAV1@@0@Z 
01:000C7FF4 ?multiply@matrix@@SAXQAV1@@0PBUgpMatrixOrder@gdiplus_native@@@Z 
01:000C8034 ?translate@matrix@@SAXQAV1@@PANPAN@Z 
01:000C8048 ?translate@matrix@@SAXQAV1@@PANPANPBUgpMatrixOrder@gdiplus_native@@@Z 
01:000C80C8 ?scale@matrix@@SAXQAV1@@PANPAN@Z 
01:000C80DC ?scale@matrix@@SAXQAV1@@PANPANPBUgpMatrixOrder@gdiplus_native@@@Z 
01:000C815C ?rotate@matrix@@SAXQAV1@@PAN@Z 
01:000C8170 ?rotate@matrix@@SAXQAV1@@PANPBUgpMatrixOrder@gdiplus_native@@@Z 
01:000C81C8 ?rotateAt@matrix@@SAXQAV1@@PANPBUgpPointF@gdiplus_native@@PBUgpMatrixOrder@4@@Z 
01:000C8200 ?shear@matrix@@SAXQAV1@@PANPAN@Z 
01:000C8214 ?shear@matrix@@SAXQAV1@@PANPANPBUgpMatrixOrder@gdiplus_native@@@Z 
01:000C8294 ?invert@matrix@@SAXQAV1@@@Z 
01:000C82C8 ?_transformI@matrix@@SAXQAV1@@PAU?$__packedList_struct@UpointI@@@@PAPAU?$__packedList_struct@U3@@@@Z 
01:000C8324 ?_transformF@matrix@@SAXQAV1@@PAU?$__packedList_struct@UpointF@@@@PAPAU?$__packedList_struct@U3@@@@Z 
01:000C8380 ?isInvertible@matrix@@SAXQAV1@@@Z 
01:000C83C0 ?isIdentity@matrix@@SAXQAV1@@@Z 
01:000C8400 ?isEqual@matrix@@SAXQAV1@@0@Z 
01:000C8450 ?_newNative@matrix@@SAXPBUgpMatrix@gdiplus_native@@PAPAV1@@@Z 
01:000C8478 ?_create@matrix@@SAXPAPAV1@@@Z 
01:000C84A0 ?_createI@matrix@@SAXPAUrect_struct@gdiplus_native@@PBUgpPoint@3@PAPAV1@@@Z  (Idle)
01:000C84CC ?_createF@matrix@@SAXPAUrectF_struct@gdiplus_native@@PBUgpPointF@3@PAPAV1@@@Z  (Idle)
01:000C84F8 ?_create@matrix@@SAXPANPANPANPANPANPANPAPAV1@@@Z 
01:000C8530 ?nativeMatrix@matrix@@SGXQAV1@@PBUgpMatrix@gdiplus_native@@@Z 
01:000C8540 ?nativeMatrix@matrix@@SGPBUgpMatrix@gdiplus_native@@QAV1@@@Z 
01:000C854C ?newNative@linearGradientBrush@@SAXQAV1@@PBUgpLineGradient@gdiplus_native@@@Z  (Idle)
01:000C8570 ?createLineBrushF@linearGradientBrush@@SAXQAV1@@PAUpointF_struct@gdiplus@@1QAVcolor@@@3@Z  (Idle)
01:000C85C8 ?createLineBrushI@linearGradientBrush@@SAXQAV1@@PAUpointI_struct@gdiplus@@1QAVcolor@@@3@Z  (Idle)
01:000C8624 ?createLineBrushFromRectF@linearGradientBrush@@SAXQAV1@@PAUrectF_struct@gdiplus@@QAVcolor@@@2PBUlinearGradientMode@gdiplus_native@@@Z  (Idle)
01:000C8680 ?createLineBrushFromRectI@linearGradientBrush@@SAXQAV1@@PAUrectI_struct@gdiplus@@QAVcolor@@@2PBUlinearGradientMode@gdiplus_native@@@Z  (Idle)
01:000C86DC ?createFromRectWithAngleF@linearGradientBrush@@SAXQAV1@@PAUrectF_struct@gdiplus@@QAVcolor@@@2PAN@Z  (Idle)
01:000C86F0 ?createFromRectWithAngleF@linearGradientBrush@@SAXQAV1@@PAUrectF_struct@gdiplus@@QAVcolor@@@2PANPAUboolean_struct@_builtIn@@@Z 
01:000C8784 ?createFromRectWithAngleI@linearGradientBrush@@SAXQAV1@@PAUrectI_struct@gdiplus@@QAVcolor@@@2PAN@Z  (Idle)
01:000C8798 ?createFromRectWithAngleI@linearGradientBrush@@SAXQAV1@@PAUrectI_struct@gdiplus@@QAVcolor@@@2PANPAUboolean_struct@_builtIn@@@Z 
01:000C882C ?setLinearColors@linearGradientBrush@@SAXQAV1@@QAVcolor@@@1@Z 
01:000C8878 ?getLinearColors@linearGradientBrush@@SAXQAV1@@PAPAVcolor@@@1@Z 
01:000C891C ?rectF@linearGradientBrush@@SGPAUrectF_struct@gdiplus@@QAV1@@@Z 
01:000C8970 ?rectI@linearGradientBrush@@SGPAUrectI_struct@gdiplus@@QAV1@@@Z 
01:000C89C4 ?useGammaCorrection@linearGradientBrush@@SGPAUboolean_struct@_builtIn@@QAV1@@@Z 
01:000C8A14 ?useGammaCorrection@linearGradientBrush@@SGXQAV1@@PAUboolean_struct@_builtIn@@@Z 
01:000C8A60 ?blendCount@linearGradientBrush@@SGPBUpositive@@QAV1@@@Z 
01:000C8AAC ?setBlend@linearGradientBrush@@SAXQAV1@@PAU?$__packedList_struct@PAN@@1@Z 
01:000C8B48 ?getBlend@linearGradientBrush@@SAXQAV1@@PAPAU?$__packedList_struct@PAPAN@@1@Z 
01:000C8BEC ?interpolationColorCount@linearGradientBrush@@SGPBUpositive@@QAV1@@@Z 
01:000C8C38 $setInterpolationColors$linearGradientBrush_implement$predicate$(i,i,i)$c$_m27 
01:000C8D0C $getInterpolationColors$linearGradientBrush_implement$predicate$(i,o,o)$c$_m28 
01:000C8DB0 ?setBlendBellShape@linearGradientBrush@@SAXQAV1@@PAN@Z 
01:000C8DC4 ?setBlendBellShape@linearGradientBrush@@SAXQAV1@@PANPAN@Z 
01:000C8E40 ?transform@linearGradientBrush@@SGQAVmatrix@@@QAV1@@@Z 
01:000C8E98 ?transform@linearGradientBrush@@SGXQAV1@@QAVmatrix@@@@Z 
01:000C8EDC ?resetTransform@linearGradientBrush@@SAXQAV1@@@Z 
01:000C8F10 ?multiplyTransform@linearGradientBrush@@SAXQAV1@@QAVmatrix@@@@Z 
01:000C8F24 ?multiplyTransform@linearGradientBrush@@SAXQAV1@@QAVmatrix@@@PBUgpMatrixOrder@gdiplus_native@@@Z 
01:000C8F64 ?translateTransform@linearGradientBrush@@SAXQAV1@@PANPAN@Z 
01:000C8F78 ?translateTransform@linearGradientBrush@@SAXQAV1@@PANPANPBUgpMatrixOrder@gdiplus_native@@@Z 
01:000C8FF8 ?scaleTransform@linearGradientBrush@@SAXQAV1@@PANPAN@Z 
01:000C900C ?scaleTransform@linearGradientBrush@@SAXQAV1@@PANPANPBUgpMatrixOrder@gdiplus_native@@@Z 
01:000C908C ?rotateTransform@linearGradientBrush@@SAXQAV1@@PAN@Z 
01:000C90A0 ?rotateTransform@linearGradientBrush@@SAXQAV1@@PANPBUgpMatrixOrder@gdiplus_native@@@Z 
01:000C90F8 ?wrapMode@linearGradientBrush@@SGPBUgpWrapMode@gdiplus_native@@QAV1@@@Z 
01:000C9134 ?wrapMode@linearGradientBrush@@SGXQAV1@@PBUgpWrapMode@gdiplus_native@@@Z 
01:000C916C ?_newNative@linearGradientBrush@@SAXPBUgpLineGradient@gdiplus_native@@PAPAV1@@@Z 
01:000C9194 ?_createLineBrushF@linearGradientBrush@@SAXPAUpointF_struct@gdiplus@@0QAVcolor@@@2PAPAV1@@@Z  (Idle)
01:000C91C8 ?_createLineBrushI@linearGradientBrush@@SAXPAUpointI_struct@gdiplus@@0QAVcolor@@@2PAPAV1@@@Z 
01:000C91FC ?_createLineBrushFromRectF@linearGradientBrush@@SAXPAUrectF_struct@gdiplus@@QAVcolor@@@1PBUlinearGradientMode@gdiplus_native@@PAPAV1@@@Z  (Idle)
01:000C9230 ?_createLineBrushFromRectI@linearGradientBrush@@SAXPAUrectI_struct@gdiplus@@QAVcolor@@@1PBUlinearGradientMode@gdiplus_native@@PAPAV1@@@Z 
01:000C9264 ?_createFromRectWithAngleF@linearGradientBrush@@SAXPAUrectF_struct@gdiplus@@QAVcolor@@@1PANPAPAV1@@@Z  (Idle)
01:000C9298 ?_createFromRectWithAngleF@linearGradientBrush@@SAXPAUrectF_struct@gdiplus@@QAVcolor@@@1PANPAUboolean_struct@_builtIn@@PAPAV1@@@Z  (Idle)
01:000C92CC ?_createFromRectWithAngleI@linearGradientBrush@@SAXPAUrectI_struct@gdiplus@@QAVcolor@@@1PANPAPAV1@@@Z  (Idle)
01:000C9300 ?_createFromRectWithAngleI@linearGradientBrush@@SAXPAUrectI_struct@gdiplus@@QAVcolor@@@1PANPAUboolean_struct@_builtIn@@PAPAV1@@@Z  (Idle)
01:000C9334 ?nativeLinearGradientBrush@linearGradientBrush@@SGPBUgpLineGradient@gdiplus_native@@QAV1@@@Z 
01:000C9340 ?create@installedFontCollection@@SAXQAV1@@@Z  (Idle)
01:000C9374 ?_create@installedFontCollection@@SAXPAPAV1@@@Z  (Idle)
01:000C9398 ?new@imageAttributes@@SAXQAV1@@@Z  (Idle)
01:000C93CC ?new@imageAttributes@@SAXQAV1@@PBUgpImageAttributes@gdiplus_native@@@Z 
01:000C93E0 ?finalize@imageAttributes@@SGXQAV1@@@Z 
01:000C9440 ?_clone@imageAttributes@@SAXQAV1@@PAPAV1@@@Z 
01:000C947C ?setToIdentity@imageAttributes@@SAXQAV1@@@Z 
01:000C9490 ?setToIdentity@imageAttributes@@SAXQAV1@@PBUcolorAdjustType@gdiplus_native@@@Z 
01:000C94C0 ?reset@imageAttributes@@SAXQAV1@@@Z 
01:000C94D4 ?reset@imageAttributes@@SAXQAV1@@PBUcolorAdjustType@gdiplus_native@@@Z 
01:000C9504 ?setColorMatrix@imageAttributes@@SAXQAV1@@PAUcolorMatrix_struct@gdiplus_native@@@Z 
01:000C951C ?setColorMatrix@imageAttributes@@SAXQAV1@@PAUcolorMatrix_struct@gdiplus_native@@PBUcolorMatrixFlags@4@PBUcolorAdjustType@4@@Z 
01:000C9558 ?clearColorMatrix@imageAttributes@@SAXQAV1@@@Z 
01:000C956C ?clearColorMatrix@imageAttributes@@SAXQAV1@@PBUcolorAdjustType@gdiplus_native@@@Z 
01:000C95A4 ?setColorMatrices@imageAttributes@@SAXQAV1@@PAUcolorMatrix_struct@gdiplus_native@@1@Z 
01:000C95BC ?setColorMatrices@imageAttributes@@SAXQAV1@@PAUcolorMatrix_struct@gdiplus_native@@1PBUcolorMatrixFlags@4@PBUcolorAdjustType@4@@Z 
01:000C95F8 ?clearColorMatrices@imageAttributes@@SAXQAV1@@@Z 
01:000C960C ?clearColorMatrices@imageAttributes@@SAXQAV1@@PBUcolorAdjustType@gdiplus_native@@@Z 
01:000C9644 ?setThreshold@imageAttributes@@SAXQAV1@@PAN@Z 
01:000C9658 ?setThreshold@imageAttributes@@SAXQAV1@@PANPBUcolorAdjustType@gdiplus_native@@@Z 
01:000C96B4 ?clearThreshold@imageAttributes@@SAXQAV1@@@Z 
01:000C96C8 ?clearThreshold@imageAttributes@@SAXQAV1@@PBUcolorAdjustType@gdiplus_native@@@Z 
01:000C96FC ?setGamma@imageAttributes@@SAXQAV1@@PAN@Z 
01:000C9710 ?setGamma@imageAttributes@@SAXQAV1@@PANPBUcolorAdjustType@gdiplus_native@@@Z 
01:000C976C ?clearGamma@imageAttributes@@SAXQAV1@@@Z 
01:000C9780 ?clearGamma@imageAttributes@@SAXQAV1@@PBUcolorAdjustType@gdiplus_native@@@Z 
01:000C97B4 ?setNoOp@imageAttributes@@SAXQAV1@@@Z 
01:000C97C8 ?setNoOp@imageAttributes@@SAXQAV1@@PBUcolorAdjustType@gdiplus_native@@@Z 
01:000C97FC ?clearNoOp@imageAttributes@@SAXQAV1@@@Z 
01:000C9810 ?clearNoOp@imageAttributes@@SAXQAV1@@PBUcolorAdjustType@gdiplus_native@@@Z 
01:000C9844 ?setColorKey@imageAttributes@@SAXQAV1@@QAVcolor@@@1@Z 
01:000C9858 ?setColorKey@imageAttributes@@SAXQAV1@@QAVcolor@@@1PBUcolorAdjustType@gdiplus_native@@@Z 
01:000C98A8 ?clearColorKey@imageAttributes@@SAXQAV1@@@Z 
01:000C98BC ?clearColorKey@imageAttributes@@SAXQAV1@@PBUcolorAdjustType@gdiplus_native@@@Z 
01:000C98F4 ?setOutputChannel@imageAttributes@@SAXQAV1@@PBUcolorChannelFlags@gdiplus_native@@@Z 
01:000C9908 ?setOutputChannel@imageAttributes@@SAXQAV1@@PBUcolorChannelFlags@gdiplus_native@@PBUcolorAdjustType@4@@Z 
01:000C993C ?clearOutputChannel@imageAttributes@@SAXQAV1@@@Z 
01:000C9950 ?clearOutputChannel@imageAttributes@@SAXQAV1@@PBUcolorAdjustType@gdiplus_native@@@Z 
01:000C9984 ?setOutputChannelColorProfile@imageAttributes@@SAXQAV1@@PB_W@Z 
01:000C9998 ?setOutputChannelColorProfile@imageAttributes@@SAXQAV1@@PB_WPBUcolorAdjustType@gdiplus_native@@@Z 
01:000C99CC ?clearOutputChannelColorProfile@imageAttributes@@SAXQAV1@@@Z 
01:000C99E0 ?clearOutputChannelColorProfile@imageAttributes@@SAXQAV1@@PBUcolorAdjustType@gdiplus_native@@@Z 
01:000C9A14 ?setRemapTable@imageAttributes@@SAXQAV1@@PBUpositive@@PBUcolorMap@gdiplus_native@@@Z 
01:000C9A28 ?setRemapTable@imageAttributes@@SAXQAV1@@PBUpositive@@PBUcolorMap@gdiplus_native@@PBUcolorAdjustType@5@@Z 
01:000C9A64 ?clearRemapTable@imageAttributes@@SAXQAV1@@@Z 
01:000C9A78 ?clearRemapTable@imageAttributes@@SAXQAV1@@PBUcolorAdjustType@gdiplus_native@@@Z 
01:000C9AB0 ?setBrushRemapTable@imageAttributes@@SAXQAV1@@PBUpositive@@PBUcolorMap@gdiplus_native@@@Z 
01:000C9AC4 ?clearBrushRemapTable@imageAttributes@@SAXQAV1@@@Z 
01:000C9AD8 ?setWrapMode@imageAttributes@@SAXQAV1@@PBUgpWrapMode@gdiplus_native@@QAVcolor@@@PAUboolean_struct@_builtIn@@@Z 
01:000C9B30 ?_getAdjustedPalette@imageAttributes@@SAXQAV1@@PBUcolorAdjustType@gdiplus_native@@PAPAUcolorPalette_struct@4@@Z 
01:000C9B80 ?_new@imageAttributes@@SAXPAPAV1@@@Z 
01:000C9BA8 ?_new@imageAttributes@@SAXPBUgpImageAttributes@gdiplus_native@@PAPAV1@@@Z 
01:000C9BD0 ?nativeImageAttributes@imageAttributes@@SGXQAV1@@PBUgpImageAttributes@gdiplus_native@@@Z 
01:000C9BE0 ?nativeImageAttributes@imageAttributes@@SGPBUgpImageAttributes@gdiplus_native@@QAV1@@@Z 
01:000C9BEC ?newNative@image@@SAXQAV1@@PBUgpImage@gdiplus_native@@@Z 
01:000C9C14 ?createFromFile@image@@SAXQAV1@@PB_WPAUboolean_struct@_builtIn@@@Z  (Idle)
01:000C9C30 ?createFromFile@image@@SAXQAV1@@PB_W@Z 
01:000C9C64 ?createFromFileICM@image@@SAXQAV1@@PB_W@Z 
01:000C9C9C ?createFromStream@image@@SAXQAV1@@QAViStream_native@@@@Z  (Idle)
01:000C9CD4 ?createFromStreamICM@image@@SAXQAV1@@QAViStream_native@@@@Z  (Idle)
01:000C9D0C ?createFromStream@image@@SAXQAV1@@QAViStream_native@@@PAUboolean_struct@_builtIn@@@Z  (Idle)
01:000C9D28 ?createFromBinary@image@@SAXQAV1@@QAE@Z  (Idle)
01:000C9DAC ?_fromStream@image@@SAXQAV1@@QAViStream_native@@@PAUboolean_struct@_builtIn@@PAPAV1@@@Z 
01:000C9DCC ?_clone@image@@SAXQAV1@@PAPAV1@@@Z 
01:000C9E20 ?_fromFile@image@@SAXQAV1@@PB_WPAUboolean_struct@_builtIn@@PAPAV1@@@Z 
01:000C9E40 ?_fromFile@image@@SAXQAV1@@PB_WPAPAV1@@@Z 
01:000C9E58 ?_fromFileICM@image@@SAXQAV1@@PB_WPAPAV1@@@Z 
01:000C9E70 ?finalize@image@@SGXQAV1@@@Z 
01:000C9EA0 ?dispose@image@@SAXQAV1@@@Z 
01:000C9F40 ?_getEncoderParameterListSize@image@@SAXQAV1@@PAUnativeGuid_struct@core@@AAUbyteCount@@@Z 
01:000C9FA4 ?_getEncoderParameterList@image@@SAXQAV1@@PAUnativeGuid_struct@core@@PBUbyteCount@@PAPAUencoderParameters_struct@gdiplus@@@Z 
01:000CA010 ?saveToFile@image@@SAXQAV1@@PB_WPAUnativeGuid_struct@core@@PAUencoderParameters_struct@gdiplus@@@Z 
01:000CA05C ?saveToStream@image@@SAXQAV1@@QAViStream_native@@@PAUnativeGuid_struct@core@@PAUencoderParameters_struct@gdiplus@@@Z 
01:000CA0A8 ?saveAdd@image@@SAXQAV1@@PAUencoderParameters_struct@gdiplus@@@Z 
01:000CA0F0 ?saveAdd@image@@SAXQAV1@@0PAUencoderParameters_struct@gdiplus@@@Z 
01:000CA148 ?type@image@@SGPBUimageType@gdiplus_native@@QAV1@@@Z 
01:000CA19C ?physicalSize@image@@SGPAUsizeF_struct@gdiplus@@QAV1@@@Z 
01:000CA20C ?getBounds@image@@SAXQAV1@@PAPAUrectF_struct@gdiplus@@AAUgpUnit@gdiplus_native@@@Z 
01:000CA274 ?width@image@@SGPBUpositive@@QAV1@@@Z 
01:000CA2C8 ?height@image@@SGPBUpositive@@QAV1@@@Z 
01:000CA31C ?_horizontalResolution@image@@SAXQAV1@@PAPAN@Z 
01:000CA3A0 ?_verticalResolution@image@@SAXQAV1@@PAPAN@Z 
01:000CA424 ?flags@image@@SGIQAV1@@@Z 
01:000CA478 ?rawFormat@image@@SGPAUnativeGuid_struct@core@@QAV1@@@Z 
01:000CA4E0 ?pixelFormat@image@@SGPBU0gdiplus_native@@QAV1@@@Z 
01:000CA534 ?paletteSize@image@@SGHQAV1@@@Z 
01:000CA588 ?palette@image@@SGPAUcolorPalette_struct@gdiplus_native@@QAV1@@@Z 
01:000CA60C ?palette@image@@SGXQAV1@@PAUcolorPalette_struct@gdiplus_native@@@Z 
01:000CA65C ?_getThumbnailImage@image@@SAXQAV1@@IIXPAXPAPAV1@@@Z 
01:000CA6C0 ?frameDimensionCount@image@@SGPBUpositive@@QAV1@@@Z 
01:000CA724 ?frameDimensionsList@image@@SGPAU?$__packedList_struct@UnativeGuid@@@@QAV1@@@Z 
01:000CA7B8 ?_getFrameCount@image@@SAXQAV1@@PAUnativeGuid_struct@core@@PAI@Z 
01:000CA800 ?selectActiveFrame@image@@SAXQAV1@@PAUnativeGuid_struct@core@@I@Z 
01:000CA848 ?rotateFlip@image@@SAXQAV1@@PBUrotateFlipType@gdiplus_native@@@Z 
01:000CA890 ?propertyCount@image@@SGPBUpositive@@QAV1@@@Z 
01:000CA8F4 ?propertyIdList@image@@SGPAU?$__packedList_struct@UpropertyId@@@@QAV1@@@Z 
01:000CA98C ?_getPropertyItemSize@image@@SAXQAV1@@PBUpropertyId@@AAUbyteCount@@@Z 
01:000CA9F0 ?_getPropertyItem@image@@SAXQAV1@@PBUpropertyId@@PBUbyteCount@@PAPAUpropertyItem_struct@gdiplus@@@Z 
01:000CAA60 ?_getPropertyItem@image@@SAXQAV1@@PBUpropertyId@@PAPAUpropertyItem_struct@gdiplus@@@Z 
01:000CAA98 ?getPropertySize@image@@SAXQAV1@@AAUbyteCount@@AAUpositive@@@Z 
01:000CAB18 ?_getAllPropertyItems@image@@SAXQAV1@@PBUbyteCount@@PBUpositive@@PAPAU?$__packedList_struct@UpropertyItem@gdiplus@@@@@Z 
01:000CAB98 ?removePropertyItem@image@@SAXQAV1@@PBUpropertyId@@@Z 
01:000CABE0 ?setPropertyItem@image@@SAXQAV1@@PAUpropertyItem_struct@gdiplus@@@Z 
01:000CAC28 ?_newNative@image@@SAXPBUgpImage@gdiplus_native@@PAPAV1@@@Z 
01:000CAC50 ?_createFromFile@image@@SAXPB_WPAUboolean_struct@_builtIn@@PAPAV1@@@Z 
01:000CAC7C ?_createFromFile@image@@SAXPB_WPAPAV1@@@Z 
01:000CACA4 ?_createFromFileICM@image@@SAXPB_WPAPAV1@@@Z 
01:000CACCC ?_createFromStream@image@@SAXQAViStream_native@@@PAUboolean_struct@_builtIn@@PAPAV1@@@Z 
01:000CACF8 ?_createFromStreamICM@image@@SAXQAViStream_native@@@PAPAV1@@@Z  (Idle)
01:000CAD20 ?_createFromStream@image@@SAXQAViStream_native@@@PAPAV1@@@Z  (Idle)
01:000CAD48 ?_createFromBinary@image@@SAXQAEPAPAV1@@@Z  (Idle)
01:000CAD70 ?_object_facts_initializer@image@@SGXQAV1@@@Z 
01:000CAD88 ?nativeImage@image@@SGPBUgpImage@gdiplus_native@@QAV1@@@Z 
01:000CADA8 ?createFromFile@icon@@SAXQAV1@@PB_W@Z  (Idle)
01:000CADD0 ?createFromBinary@icon@@SAXQAV1@@QAE@Z  (Idle)
01:000CAE10 $createFromImages$icon_class$predicate$(i,i)$b$  (Idle)
01:000CAE3C ?_getImage@icon@@SAXQAV1@@PBUpositive@@1PAPAVimage@@@@Z 
01:000CAE74 ?_getBitmap@icon@@SAXQAV1@@PBUpositive@@1PAPAVbitmap@@@@Z 
01:000CAFE0 ?_createBitmap@icon@@SAXPAUsource_struct@1@PBUpositive@@1PAPAVbitmap@@@@Z 
01:000CB1D8 ?_adjustBitmapDim@icon@@SAXQAVimage@@@PBUpositive@@1PAPAVbitmap@@@@Z 
01:000CB27C ?_getHBitmap@icon@@SAXQAV1@@PBUpositive@@1AAUhBitmap@gui_native@@@Z 
01:000CB3B0 ?_createFromFile@icon@@SAXPB_WPAPAV1@@@Z  (Idle)
01:000CB3D8 ?_createFromBinary@icon@@SAXQAEPAPAV1@@@Z  (Idle)
01:000CB400 $createFromImages$icon_class$predicate$(i,o)$b$_c6 
01:000CB428 ?newNative@hatchBrush@@SAXQAV1@@PBUgpHatch@gdiplus_native@@@Z  (Idle)
01:000CB44C ?createHatchBrush@hatchBrush@@SAXQAV1@@PBUgpHatchStyle@gdiplus_native@@QAVcolor@@@2@Z  (Idle)
01:000CB4A0 ?hatchStyle@hatchBrush@@SGPBUgpHatchStyle@gdiplus_native@@QAV1@@@Z 
01:000CB4DC ?foregroundColor@hatchBrush@@SGQAVcolor@@@QAV1@@@Z 
01:000CB52C ?backgroundColor@hatchBrush@@SGQAVcolor@@@QAV1@@@Z 
01:000CB57C ?_newNative@hatchBrush@@SAXPBUgpHatch@gdiplus_native@@PAPAV1@@@Z 
01:000CB5A4 ?_createHatchBrush@hatchBrush@@SAXPBUgpHatchStyle@gdiplus_native@@QAVcolor@@@1PAPAV1@@@Z  (Idle)
01:000CB5D4 ?nativeHatchBrush@hatchBrush@@SGPBUgpHatch@gdiplus_native@@QAV1@@@Z 
01:000CB5E0 ?newNative@graphicsPathIterator@@SAXQAV1@@PBUgpPathIterator@gdiplus_native@@@Z  (Idle)
01:000CB5F4 ?create@graphicsPathIterator@@SAXQAV1@@@Z  (Idle)
01:000CB628 ?create@graphicsPathIterator@@SAXQAV1@@QAVgraphicsPath@@@@Z  (Idle)
01:000CB668 ?finalize@graphicsPathIterator@@SGXQAV1@@@Z 
01:000CB6C8 ?_nextSubPath@graphicsPathIterator@@SAXQAV1@@AAUpositive@@1PAPAUboolean_struct@_builtIn@@1@Z 
01:000CB75C ?_nextSubPath@graphicsPathIterator@@SAXQAV1@@PAPAVgraphicsPath@@@PAPAUboolean_struct@_builtIn@@AAUpositive@@@Z 
01:000CB7DC ?_nextPathType@graphicsPathIterator@@SAXQAV1@@PAHAAUpositive@@22@Z 
01:000CB86C ?_nextMarker@graphicsPathIterator@@SAXQAV1@@AAUpositive@@11@Z 
01:000CB8EC ?_nextMarker@graphicsPathIterator@@SAXQAV1@@PAPAVgraphicsPath@@@AAUpositive@@@Z 
01:000CB954 ?count@graphicsPathIterator@@SGPBUpositive@@QAV1@@@Z 
01:000CB9A0 ?subPathCount@graphicsPathIterator@@SGPBUpositive@@QAV1@@@Z 
01:000CB9EC ?hasCurve@graphicsPathIterator@@SAXQAV1@@@Z 
01:000CBA2C ?rewind@graphicsPathIterator@@SAXQAV1@@@Z 
01:000CBA60 ?enumerate@graphicsPathIterator@@SAXQAV1@@PAPAU?$__packedList_struct@UpointF@@@@PAPAU?$__packedList_struct@Uinteger@@@@@Z 
01:000CBB14 ?copyData@graphicsPathIterator@@SAXQAV1@@PAPAU?$__packedList_struct@UpointF@@@@PAPAU?$__packedList_struct@Uinteger@@@@PBUpositive@@3@Z 
01:000CBBF0 ?_newNative@graphicsPathIterator@@SAXPBUgpPathIterator@gdiplus_native@@PAPAV1@@@Z  (Idle)
01:000CBC18 ?_create@graphicsPathIterator@@SAXPAPAV1@@@Z  (Idle)
01:000CBC40 ?_create@graphicsPathIterator@@SAXQAVgraphicsPath@@@PAPAV1@@@Z  (Idle)
01:000CBC68 ?newNative@graphicsPath@@SAXQAV1@@PBUgpPath@gdiplus_native@@@Z  (Idle)
01:000CBC7C ?create@graphicsPath@@SAXQAV1@@@Z  (Idle)
01:000CBC90 ?create@graphicsPath@@SAXQAV1@@PBUgpFillMode@gdiplus_native@@@Z 
01:000CBCC4 ?createPathF@graphicsPath@@SAXQAV1@@PAU?$__packedList_struct@UpointF@@@@PAU?$__packedList_struct@Uinteger@@@@@Z  (Idle)
01:000CBCD8 ?createPathF@graphicsPath@@SAXQAV1@@PAU?$__packedList_struct@UpointF@@@@PAU?$__packedList_struct@Uinteger@@@@PBUgpFillMode@gdiplus_native@@@Z 
01:000CBD80 ?createPathI@graphicsPath@@SAXQAV1@@PAU?$__packedList_struct@UpointI@@@@PAU?$__packedList_struct@Uinteger@@@@@Z  (Idle)
01:000CBD94 ?createPathI@graphicsPath@@SAXQAV1@@PAU?$__packedList_struct@UpointI@@@@PAU?$__packedList_struct@Uinteger@@@@PBUgpFillMode@gdiplus_native@@@Z 
01:000CBE3C ?finalize@graphicsPath@@SGXQAV1@@@Z 
01:000CBE9C ?_clone@graphicsPath@@SAXQAV1@@PAPAV1@@@Z 
01:000CBED8 ?reset@graphicsPath@@SAXQAV1@@@Z 
01:000CBF0C ?fillMode@graphicsPath@@SGPBUgpFillMode@gdiplus_native@@QAV1@@@Z 
01:000CBF48 ?fillMode@graphicsPath@@SGXQAV1@@PBUgpFillMode@gdiplus_native@@@Z 
01:000CBF80 ?getPathData@graphicsPath@@SAXQAV1@@PAPAU?$__packedList_struct@UpointF@@@@PAPAU?$__packedList_struct@Uinteger@@@@@Z 
01:000CC06C ?startFigure@graphicsPath@@SAXQAV1@@@Z 
01:000CC0A0 ?closeFigure@graphicsPath@@SAXQAV1@@@Z 
01:000CC0D4 ?closeAllFigures@graphicsPath@@SAXQAV1@@@Z 
01:000CC108 ?setMarker@graphicsPath@@SAXQAV1@@@Z 
01:000CC13C ?clearMarkers@graphicsPath@@SAXQAV1@@@Z 
01:000CC170 ?reverse@graphicsPath@@SAXQAV1@@@Z 
01:000CC1A4 ?lastPoint@graphicsPath@@SGPAUpointF_struct@gdiplus@@QAV1@@@Z 
01:000CC1F8 ?addArcF@graphicsPath@@SAXQAV1@@PANPANPANPANPANPAN@Z 
01:000CC30C ?addArcI@graphicsPath@@SAXQAV1@@HHHHPANPAN@Z 
01:000CC394 ?addArcI@graphicsPath@@SAXQAV1@@PAUrectI_struct@gdiplus@@PANPAN@Z 
01:000CC3F0 ?addArcF@graphicsPath@@SAXQAV1@@PAUrectF_struct@gdiplus@@PANPAN@Z 
01:000CC528 ?addBezierF@graphicsPath@@SAXQAV1@@PANPANPANPANPANPANPANPAN@Z 
01:000CC688 ?addBezierI@graphicsPath@@SAXQAV1@@HHHHHHHH@Z 
01:000CC6CC ?addBezierF@graphicsPath@@SAXQAV1@@PAUpointF_struct@gdiplus@@111@Z 
01:000CC778 ?addBezierI@graphicsPath@@SAXQAV1@@PAUpointI_struct@gdiplus@@111@Z 
01:000CC7F0 ?addBeziersI@graphicsPath@@SAXQAV1@@PAU?$__packedList_struct@UpointI@@@@@Z 
01:000CC838 ?addBeziersF@graphicsPath@@SAXQAV1@@PAU?$__packedList_struct@UpointF@@@@@Z 
01:000CC880 ?addClosedCurveF@graphicsPath@@SAXQAV1@@PAU?$__packedList_struct@UpointF@@@@@Z 
01:000CC8C8 ?addClosedCurveI@graphicsPath@@SAXQAV1@@PAU?$__packedList_struct@UpointI@@@@@Z 
01:000CC910 ?addClosedCurveF@graphicsPath@@SAXQAV1@@PAU?$__packedList_struct@UpointF@@@@PAN@Z 
01:000CC980 ?addClosedCurveI@graphicsPath@@SAXQAV1@@PAU?$__packedList_struct@UpointI@@@@PAN@Z 
01:000CC9F0 ?addCurveF@graphicsPath@@SAXQAV1@@PAU?$__packedList_struct@UpointF@@@@@Z 
01:000CCA38 ?addCurveI@graphicsPath@@SAXQAV1@@PAU?$__packedList_struct@UpointI@@@@@Z 
01:000CCA80 ?addCurveF@graphicsPath@@SAXQAV1@@PAU?$__packedList_struct@UpointF@@@@PAN@Z 
01:000CCAF0 ?addCurveI@graphicsPath@@SAXQAV1@@PAU?$__packedList_struct@UpointI@@@@PAN@Z 
01:000CCB60 ?addCurveF@graphicsPath@@SAXQAV1@@PAU?$__packedList_struct@UpointF@@@@HHPAN@Z 
01:000CCBD8 ?addCurveI@graphicsPath@@SAXQAV1@@PAU?$__packedList_struct@UpointI@@@@HHPAN@Z 
01:000CCC50 ?addEllipseF@graphicsPath@@SAXQAV1@@PANPANPANPAN@Z 
01:000CCD18 ?addEllipseI@graphicsPath@@SAXQAV1@@HHHH@Z 
01:000CCD50 ?addEllipseF@graphicsPath@@SAXQAV1@@PAUrectF_struct@gdiplus@@@Z 
01:000CCDBC ?addEllipseI@graphicsPath@@SAXQAV1@@PAUrectI_struct@gdiplus@@@Z 
01:000CCE08 ?addLineI@graphicsPath@@SAXQAV1@@HHHH@Z 
01:000CCE40 ?addLineF@graphicsPath@@SAXQAV1@@PANPANPANPAN@Z 
01:000CCF08 ?addLineI@graphicsPath@@SAXQAV1@@PAUpointI_struct@gdiplus@@1@Z 
01:000CCF4C ?addLineF@graphicsPath@@SAXQAV1@@PAUpointF_struct@gdiplus@@1@Z 
01:000CD070 ?addLinesF@graphicsPath@@SAXQAV1@@PAU?$__packedList_struct@UpointF@@@@@Z 
01:000CD0B8 ?addLinesI@graphicsPath@@SAXQAV1@@PAU?$__packedList_struct@UpointI@@@@@Z 
01:000CD100 ?addPath@graphicsPath@@SAXQAV1@@0PAUboolean_struct@_builtIn@@@Z 
01:000CD154 ?addPieF@graphicsPath@@SAXQAV1@@PANPANPANPANPANPAN@Z 
01:000CD268 ?addPieI@graphicsPath@@SAXQAV1@@HHHHPANPAN@Z 
01:000CD2F0 ?addPieI@graphicsPath@@SAXQAV1@@PAUrectI_struct@gdiplus@@PANPAN@Z 
01:000CD34C ?addPieF@graphicsPath@@SAXQAV1@@PAUrectF_struct@gdiplus@@PANPAN@Z 
01:000CD484 ?addPolygonF@graphicsPath@@SAXQAV1@@PAU?$__packedList_struct@UpointF@@@@@Z 
01:000CD4CC ?addPolygonI@graphicsPath@@SAXQAV1@@PAU?$__packedList_struct@UpointI@@@@@Z 
01:000CD514 ?addRectangleF@graphicsPath@@SAXQAV1@@PANPANPANPAN@Z 
01:000CD5DC ?addRectangleI@graphicsPath@@SAXQAV1@@HHHH@Z 
01:000CD614 ?addRectangleF@graphicsPath@@SAXQAV1@@PAUrectF_struct@gdiplus@@@Z 
01:000CD680 ?addRectangleI@graphicsPath@@SAXQAV1@@PAUrectI_struct@gdiplus@@@Z 
01:000CD6CC ?addRectanglesF@graphicsPath@@SAXQAV1@@PAU?$__packedList_struct@UrectF@@@@@Z 
01:000CD714 ?addRectanglesI@graphicsPath@@SAXQAV1@@PAU?$__packedList_struct@UrectI@@@@@Z 
01:000CD75C ?addString@graphicsPath@@SAXQAV1@@PB_WHPAUoptional_struct@core@@QAVfontFamily@@@HPANPAUrectF_struct@gdiplus@@PAU34@QAVstringFormat@@@@Z 
01:000CD820 ?transform@graphicsPath@@SAXQAV1@@QAVmatrix@@@@Z 
01:000CD85C ?_getBoundsF@graphicsPath@@SAXQAV1@@PAPAUrectF_struct@gdiplus@@@Z 
01:000CD888 ?_getBoundsF@graphicsPath@@SAXQAV1@@QAVmatrix@@@PAPAUrectF_struct@gdiplus@@@Z 
01:000CD8C4 ?_getBoundsF@graphicsPath@@SAXQAV1@@PAUoptional_struct@core@@QAVmatrix@@@PAU34@QAVpen@@@PAPAUrectF_struct@gdiplus@@@Z 
01:000CD974 ?_getBoundsI@graphicsPath@@SAXQAV1@@PAPAUrectI_struct@gdiplus@@@Z 
01:000CD9A0 ?_getBoundsI@graphicsPath@@SAXQAV1@@QAVmatrix@@@PAPAUrectI_struct@gdiplus@@@Z 
01:000CD9DC ?_getBoundsI@graphicsPath@@SAXQAV1@@PAUoptional_struct@core@@QAVmatrix@@@PAU34@QAVpen@@@PAPAUrectI_struct@gdiplus@@@Z 
01:000CDA8C ?flatten@graphicsPath@@SAXQAV1@@@Z 
01:000CDAAC ?flatten@graphicsPath@@SAXQAV1@@QAVmatrix@@@@Z 
01:000CDAE0 ?flatten@graphicsPath@@SAXQAV1@@PAUoptional_struct@core@@QAVmatrix@@@PAN@Z 
01:000CDB68 ?widen@graphicsPath@@SAXQAV1@@QAVpen@@@@Z 
01:000CDB88 ?widen@graphicsPath@@SAXQAV1@@QAVpen@@@PAUoptional_struct@core@@QAVmatrix@@@@Z 
01:000CDB9C ?widen@graphicsPath@@SAXQAV1@@QAVpen@@@PAUoptional_struct@core@@QAVmatrix@@@PAN@Z 
01:000CDC34 ?outline@graphicsPath@@SAXQAV1@@@Z 
01:000CDC54 ?outline@graphicsPath@@SAXQAV1@@QAVmatrix@@@@Z 
01:000CDC88 ?outline@graphicsPath@@SAXQAV1@@PAUoptional_struct@core@@QAVmatrix@@@PAN@Z 
01:000CDD10 ?warp@graphicsPath@@SAXQAV1@@PAU?$__packedList_struct@UpointF@@@@PAUrectF_struct@gdiplus@@PAUoptional_struct@core@@QAVmatrix@@@PBUwarpMode@gdiplus_native@@PAN@Z 
01:000CDDF4 ?pointCount@graphicsPath@@SGPBUpositive@@QAV1@@@Z 
01:000CDE40 ?pathPointsF@graphicsPath@@SGPAU?$__packedList_struct@UpointF@@@@QAV1@@@Z 
01:000CDEBC ?pathPointsI@graphicsPath@@SGPAU?$__packedList_struct@UpointI@@@@QAV1@@@Z 
01:000CDF38 ?pathTypes@graphicsPath@@SGPAU?$__packedList_struct@Uinteger@@@@QAV1@@@Z 
01:000CDFAC ?isVisibleF@graphicsPath@@SAXQAV1@@PAUpointF_struct@gdiplus@@@Z 
01:000CDFC0 ?isVisibleF@graphicsPath@@SAXQAV1@@PANPAN@Z 
01:000CE030 ?isVisiblePointF@graphicsPath@@SAXQAV1@@PAUpointF_struct@gdiplus@@PAUoptional_struct@core@@QAVgraphics@@@@Z 
01:000CE0C0 ?isVisibleI@graphicsPath@@SAXQAV1@@PAUpointI_struct@gdiplus@@@Z 
01:000CE0D4 ?isVisibleI@graphicsPath@@SAXQAV1@@HH@Z 
01:000CE108 ?isVisiblePointI@graphicsPath@@SAXQAV1@@PAUpointI_struct@gdiplus@@PAUoptional_struct@core@@QAVgraphics@@@@Z 
01:000CE18C ?isOutlineVisibleF@graphicsPath@@SAXQAV1@@PAUpointF_struct@gdiplus@@@Z 
01:000CE1AC ?isOutlineVisibleF@graphicsPath@@SAXQAV1@@PANPAN@Z 
01:000CE228 ?isOutlineVisiblePointF@graphicsPath@@SAXQAV1@@PAUpointF_struct@gdiplus@@PAUoptional_struct@core@@QAVpen@@@PAU56@QAVgraphics@@@@Z 
01:000CE2E8 ?isOutlineVisibleI@graphicsPath@@SAXQAV1@@PAUpointI_struct@gdiplus@@@Z 
01:000CE308 ?isOutlineVisibleI@graphicsPath@@SAXQAV1@@HH@Z 
01:000CE348 ?isOutlineVisiblePointI@graphicsPath@@SAXQAV1@@PAUpointI_struct@gdiplus@@PAUoptional_struct@core@@QAVpen@@@PAU56@QAVgraphics@@@@Z 
01:000CE3FC ?_newNative@graphicsPath@@SAXPBUgpPath@gdiplus_native@@PAPAV1@@@Z 
01:000CE424 ?_create@graphicsPath@@SAXPAPAV1@@@Z 
01:000CE44C ?_create@graphicsPath@@SAXPBUgpFillMode@gdiplus_native@@PAPAV1@@@Z  (Idle)
01:000CE474 ?_createPathF@graphicsPath@@SAXPAU?$__packedList_struct@UpointF@@@@PAU?$__packedList_struct@Uinteger@@@@PAPAV1@@@Z  (Idle)
01:000CE4A0 ?_createPathF@graphicsPath@@SAXPAU?$__packedList_struct@UpointF@@@@PAU?$__packedList_struct@Uinteger@@@@PBUgpFillMode@gdiplus_native@@PAPAV1@@@Z  (Idle)
01:000CE4D0 ?_createPathI@graphicsPath@@SAXPAU?$__packedList_struct@UpointI@@@@PAU?$__packedList_struct@Uinteger@@@@PAPAV1@@@Z  (Idle)
01:000CE4FC ?_createPathI@graphicsPath@@SAXPAU?$__packedList_struct@UpointI@@@@PAU?$__packedList_struct@Uinteger@@@@PBUgpFillMode@gdiplus_native@@PAPAV1@@@Z  (Idle)
01:000CE52C ?nativePath@graphicsPath@@SGXQAV1@@PBUgpPath@gdiplus_native@@@Z 
01:000CE53C ?nativePath@graphicsPath@@SGPBUgpPath@gdiplus_native@@QAV1@@@Z 
01:000CE548 ?createFromWindow@graphics@@SAXQAV1@@QAVwindow@@@@Z  (Idle)
01:000CE574 ?newNative@graphics@@SAXQAV1@@PBUgpGraphics@gdiplus_native@@@Z  (Idle)
01:000CE588 ?createFromHDC@graphics@@SAXQAV1@@PBUhDC@gui_native@@@Z  (Idle)
01:000CE5BC ?createFromHDC@graphics@@SAXQAV1@@PBUhDC@gui_native@@PBUhandle@@@Z  (Idle)
01:000CE5F4 ?createFromHWND@graphics@@SAXQAV1@@PBUhwnd@core@@@Z 
01:000CE608 ?createFromHWND@graphics@@SAXQAV1@@PBUhwnd@@PAUboolean_struct@_builtIn@@@Z 
01:000CE670 ?createFromImage@graphics@@SAXQAV1@@QAVimage@@@@Z  (Idle)
01:000CE6B0 ?finalize@graphics@@SGXQAV1@@@Z 
01:000CE6CC ?delete@graphics@@SAXQAV1@@@Z 
01:000CE72C ?flush@graphics@@SAXQAV1@@@Z 
01:000CE740 ?flush@graphics@@SAXQAV1@@PBUgpFlushIntention@gdiplus_native@@@Z 
01:000CE770 ?_getHDC@graphics@@SAXQAV1@@AAUhDC@gui_native@@@Z 
01:000CE7A0 ?releaseHDC@graphics@@SAXQAV1@@PBUhDC@gui_native@@@Z 
01:000CE7D0 ?compositingMode@graphics@@SGXQAV1@@PBU0gdiplus_native@@@Z 
01:000CE808 ?compositingMode@graphics@@SGPBU0gdiplus_native@@QAV1@@@Z 
01:000CE844 ?compositingQuality@graphics@@SGXQAV1@@PBU0gdiplus_native@@@Z 
01:000CE87C ?compositingQuality@graphics@@SGPBU0gdiplus_native@@QAV1@@@Z 
01:000CE8B8 ?_dpiX@graphics@@SAXQAV1@@PAPAN@Z 
01:000CE924 ?_dpiY@graphics@@SAXQAV1@@PAPAN@Z 
01:000CE990 ?interpolationMode@graphics@@SGPBU0gdiplus_native@@QAV1@@@Z 
01:000CE9CC ?interpolationMode@graphics@@SGXQAV1@@PBU0gdiplus_native@@@Z 
01:000CEA04 ?renderingOrigin@graphics@@SGPAUpointI_struct@gdiplus@@QAV1@@@Z 
01:000CEA60 ?renderingOrigin@graphics@@SGXQAV1@@PAUpointI_struct@gdiplus@@@Z 
01:000CEAA4 ?textRenderingHint@graphics@@SGPBU0gdiplus_native@@QAV1@@@Z 
01:000CEAE0 ?textRenderingHint@graphics@@SGXQAV1@@PBU0gdiplus_native@@@Z 
01:000CEB18 ?textContrast@graphics@@SGIQAV1@@@Z 
01:000CEB54 ?textContrast@graphics@@SGXQAV1@@I@Z 
01:000CEB8C ?smoothingMode@graphics@@SGXQAV1@@PBU0gdiplus_native@@@Z 
01:000CEBC4 ?smoothingMode@graphics@@SGPBU0gdiplus_native@@QAV1@@@Z 
01:000CEC00 ?pixelOffsetMode@graphics@@SGPBU0gdiplus_native@@QAV1@@@Z 
01:000CEC3C ?pixelOffsetMode@graphics@@SGXQAV1@@PBU0gdiplus_native@@@Z 
01:000CEC74 ?transform@graphics@@SGQAVmatrix@@@QAV1@@@Z 
01:000CECCC ?transform@graphics@@SGXQAV1@@QAVmatrix@@@@Z 
01:000CED10 ?resetTransform@graphics@@SAXQAV1@@@Z 
01:000CED44 ?multiplyTransform@graphics@@SAXQAV1@@QAVmatrix@@@@Z 
01:000CED58 ?multiplyTransform@graphics@@SAXQAV1@@QAVmatrix@@@PBUgpMatrixOrder@gdiplus_native@@@Z 
01:000CED98 ?translateTransform@graphics@@SAXQAV1@@PANPAN@Z 
01:000CEDAC ?translateTransform@graphics@@SAXQAV1@@PANPANPBUgpMatrixOrder@gdiplus_native@@@Z 
01:000CEE2C ?scaleTransform@graphics@@SAXQAV1@@PANPAN@Z 
01:000CEE40 ?scaleTransform@graphics@@SAXQAV1@@PANPANPBUgpMatrixOrder@gdiplus_native@@@Z 
01:000CEEC0 ?rotateTransform@graphics@@SAXQAV1@@PAN@Z 
01:000CEED4 ?rotateTransform@graphics@@SAXQAV1@@PANPBUgpMatrixOrder@gdiplus_native@@@Z 
01:000CEF2C ?_transformPointsF@graphics@@SAXQAV1@@PBUgpCoordinateSpace@gdiplus_native@@1PAU?$__packedList_struct@UpointF@@@@PAPAU?$__packedList_struct@U7@@@@Z 
01:000CEF94 ?_transformPointsI@graphics@@SAXQAV1@@PBUgpCoordinateSpace@gdiplus_native@@1PAU?$__packedList_struct@UpointI@@@@PAPAU?$__packedList_struct@U7@@@@Z 
01:000CEFFC ?_pageScale@graphics@@SAXQAV1@@PAPAN@Z 
01:000CF068 ?pageScale@graphics@@SAXQAV1@@PAN@Z 
01:000CF0BC ?pageUnit@graphics@@SGPBUgpUnit@gdiplus_native@@QAV1@@@Z 
01:000CF0F8 ?pageUnit@graphics@@SGXQAV1@@PBUgpUnit@gdiplus_native@@@Z 
01:000CF130 ?_getNearestColor@graphics@@SAXQAV1@@QAVcolor@@@PAPAV3@@@Z 
01:000CF19C ?drawArcF@graphics@@SAXQAV1@@QAVpen@@@PANPANPANPANPANPAN@Z 
01:000CF2C0 ?drawArcI@graphics@@SAXQAV1@@QAVpen@@@HHHHPANPAN@Z 
01:000CF358 ?drawArcI@graphics@@SAXQAV1@@QAVpen@@@PAUrectI_struct@gdiplus@@PANPAN@Z 
01:000CF3B4 ?drawArcF@graphics@@SAXQAV1@@QAVpen@@@PAUrectF_struct@gdiplus@@PANPAN@Z 
01:000CF4EC ?drawBezierF@graphics@@SAXQAV1@@QAVpen@@@PANPANPANPANPANPANPANPAN@Z 
01:000CF65C ?drawBezierI@graphics@@SAXQAV1@@QAVpen@@@HHHHHHHH@Z 
01:000CF6B0 ?drawBezierF@graphics@@SAXQAV1@@QAVpen@@@PAUpointF_struct@gdiplus@@222@Z 
01:000CF76C ?drawBezierI@graphics@@SAXQAV1@@QAVpen@@@PAUpointI_struct@gdiplus@@222@Z 
01:000CF7F4 ?drawBeziersI@graphics@@SAXQAV1@@QAVpen@@@PAU?$__packedList_struct@UpointI@@@@@Z 
01:000CF84C ?drawBeziersF@graphics@@SAXQAV1@@QAVpen@@@PAU?$__packedList_struct@UpointF@@@@@Z 
01:000CF8A4 ?drawClosedCurveF@graphics@@SAXQAV1@@QAVpen@@@PAU?$__packedList_struct@UpointF@@@@@Z 
01:000CF8FC ?drawClosedCurveI@graphics@@SAXQAV1@@QAVpen@@@PAU?$__packedList_struct@UpointI@@@@@Z 
01:000CF954 ?drawClosedCurveF@graphics@@SAXQAV1@@QAVpen@@@PAU?$__packedList_struct@UpointF@@@@PAN@Z 
01:000CF9D4 ?drawClosedCurveI@graphics@@SAXQAV1@@QAVpen@@@PAU?$__packedList_struct@UpointI@@@@PAN@Z 
01:000CFA54 ?drawCurveF@graphics@@SAXQAV1@@QAVpen@@@PAU?$__packedList_struct@UpointF@@@@@Z 
01:000CFAAC ?drawCurveI@graphics@@SAXQAV1@@QAVpen@@@PAU?$__packedList_struct@UpointI@@@@@Z 
01:000CFB04 ?drawCurveF@graphics@@SAXQAV1@@QAVpen@@@PAU?$__packedList_struct@UpointF@@@@PAN@Z 
01:000CFB84 ?drawCurveI@graphics@@SAXQAV1@@QAVpen@@@PAU?$__packedList_struct@UpointI@@@@PAN@Z 
01:000CFC04 ?drawCurveF@graphics@@SAXQAV1@@QAVpen@@@PAU?$__packedList_struct@UpointF@@@@HHPAN@Z 
01:000CFC8C ?drawCurveI@graphics@@SAXQAV1@@QAVpen@@@PAU?$__packedList_struct@UpointI@@@@HHPAN@Z 
01:000CFD14 ?drawEllipseF@graphics@@SAXQAV1@@QAVpen@@@PANPANPANPAN@Z 
01:000CFDEC ?drawEllipseI@graphics@@SAXQAV1@@QAVpen@@@HHHH@Z 
01:000CFE34 ?drawEllipseF@graphics@@SAXQAV1@@QAVpen@@@PAUrectF_struct@gdiplus@@@Z 
01:000CFEB0 ?drawEllipseI@graphics@@SAXQAV1@@QAVpen@@@PAUrectI_struct@gdiplus@@@Z 
01:000CFF10 ?drawImageF@graphics@@SAXQAV1@@PAUoptional_struct@core@@QAVimage@@@PANPAN@Z 
01:000CFFBC ?drawImageI@graphics@@SAXQAV1@@PAUoptional_struct@core@@QAVimage@@@HH@Z 
01:000D0020 ?drawImageF@graphics@@SAXQAV1@@PAUoptional_struct@core@@QAVimage@@@PAUpointF_struct@gdiplus@@@Z 
01:000D009C ?drawImageI@graphics@@SAXQAV1@@PAUoptional_struct@core@@QAVimage@@@PAUpointI_struct@gdiplus@@@Z 
01:000D010C ?drawImageRectF@graphics@@SAXQAV1@@PAUoptional_struct@core@@QAVimage@@@PANPANPANPAN@Z 
01:000D0204 ?drawImageRectI@graphics@@SAXQAV1@@PAUoptional_struct@core@@QAVimage@@@HHHH@Z 
01:000D0270 ?drawImageRectF@graphics@@SAXQAV1@@PAUoptional_struct@core@@QAVimage@@@PAUrectF_struct@gdiplus@@@Z 
01:000D030C ?drawImageRectI@graphics@@SAXQAV1@@PAUoptional_struct@core@@QAVimage@@@PAUrectI_struct@gdiplus@@@Z 
01:000D0390 ?drawImagePointsF@graphics@@SAXQAV1@@PAUoptional_struct@core@@QAVimage@@@PAU?$__packedList_struct@UpointF@@@@@Z 
01:000D0490 ?drawImagePointsI@graphics@@SAXQAV1@@PAUoptional_struct@core@@QAVimage@@@PAU?$__packedList_struct@UpointI@@@@@Z 
01:000D0590 ?drawImagePointRectF@graphics@@SAXQAV1@@PAUoptional_struct@core@@QAVimage@@@PANPANPANPANPANPANPBUgpUnit@gdiplus_native@@@Z 
01:000D06D8 ?drawImagePointRectI@graphics@@SAXQAV1@@PAUoptional_struct@core@@QAVimage@@@HHHHHHPBUgpUnit@gdiplus_native@@@Z 
01:000D074C ?drawImageRectRectF@graphics@@SAXQAV1@@PAUoptional_struct@core@@QAVimage@@@PAUrectF_struct@gdiplus@@PANPANPANPANPBUgpUnit@gdiplus_native@@PAU34@QAVimageAttributes@@@XPAX@Z 
01:000D08BC ?drawImageRectRectI@graphics@@SAXQAV1@@PAUoptional_struct@core@@QAVimage@@@PAUrectI_struct@gdiplus@@HHHHPBUgpUnit@gdiplus_native@@PAU34@QAVimageAttributes@@@XPAX@Z 
01:000D0984 ?drawImagePointsRectF@graphics@@SAXQAV1@@PAUoptional_struct@core@@QAVimage@@@PAU?$__packedList_struct@UpointF@@@@PANPANPANPANPBUgpUnit@gdiplus_native@@PAU34@QAVimageAttributes@@@XPAX@Z 
01:000D0AD4 ?drawImagePointsRectI@graphics@@SAXQAV1@@PAUoptional_struct@core@@QAVimage@@@PAU?$__packedList_struct@UpointI@@@@HHHHPBUgpUnit@gdiplus_native@@PAU34@QAVimageAttributes@@@XPAX@Z 
01:000D0B94 ?drawLineI@graphics@@SAXQAV1@@QAVpen@@@HHHH@Z 
01:000D0BDC ?drawLineF@graphics@@SAXQAV1@@QAVpen@@@PANPANPANPAN@Z 
01:000D0CB4 ?drawLineI@graphics@@SAXQAV1@@QAVpen@@@PAUpointI_struct@gdiplus@@2@Z 
01:000D0CF8 ?drawLineF@graphics@@SAXQAV1@@QAVpen@@@PAUpointF_struct@gdiplus@@2@Z 
01:000D0E1C ?drawLinesF@graphics@@SAXQAV1@@QAVpen@@@PAU?$__packedList_struct@UpointF@@@@@Z 
01:000D0E74 ?drawLinesI@graphics@@SAXQAV1@@QAVpen@@@PAU?$__packedList_struct@UpointI@@@@@Z 
01:000D0ECC ?drawPath@graphics@@SAXQAV1@@QAVpen@@@QAVgraphicsPath@@@@Z 
01:000D0F18 ?drawPieF@graphics@@SAXQAV1@@QAVpen@@@PANPANPANPANPANPAN@Z 
01:000D103C ?drawPieI@graphics@@SAXQAV1@@QAVpen@@@HHHHPANPAN@Z 
01:000D10D4 ?drawPieI@graphics@@SAXQAV1@@QAVpen@@@PAUrectI_struct@gdiplus@@PANPAN@Z 
01:000D1130 ?drawPieF@graphics@@SAXQAV1@@QAVpen@@@PAUrectF_struct@gdiplus@@PANPAN@Z 
01:000D1268 ?drawPolygonF@graphics@@SAXQAV1@@QAVpen@@@PAU?$__packedList_struct@UpointF@@@@@Z 
01:000D12C0 ?drawPolygonI@graphics@@SAXQAV1@@QAVpen@@@PAU?$__packedList_struct@UpointI@@@@@Z 
01:000D1318 ?drawRectangleF@graphics@@SAXQAV1@@QAVpen@@@PANPANPANPAN@Z 
01:000D13F0 ?drawRectangleI@graphics@@SAXQAV1@@QAVpen@@@HHHH@Z 
01:000D1438 ?drawRectangleF@graphics@@SAXQAV1@@QAVpen@@@PAUrectF_struct@gdiplus@@@Z 
01:000D14B4 ?drawRectangleI@graphics@@SAXQAV1@@QAVpen@@@PAUrectI_struct@gdiplus@@@Z 
01:000D1514 ?drawRectanglesF@graphics@@SAXQAV1@@QAVpen@@@PAU?$__packedList_struct@UrectF@@@@@Z 
01:000D156C ?drawRectanglesI@graphics@@SAXQAV1@@QAVpen@@@PAU?$__packedList_struct@UrectI@@@@@Z 
01:000D15C4 ?drawString@graphics@@SAXQAV1@@PB_WPAUoptional_struct@core@@QAVfont@@@PAUrectF_struct@gdiplus@@PAU34@QAVstringFormat@@@PAU34@QAVbrush@@@@Z 
01:000D15FC ?drawString@graphics@@SAXQAV1@@PB_WHPAUoptional_struct@core@@QAVfont@@@PAUrectF_struct@gdiplus@@PAU34@QAVstringFormat@@@PAU34@QAVbrush@@@@Z 
01:000D16C8 ?measureString@graphics@@SAXQAV1@@PB_WPAUoptional_struct@core@@QAVfont@@@PAUrectF_struct@gdiplus@@PAU34@QAVstringFormat@@@PAPAU67@PAHPAH@Z 
01:000D1714 ?measureString@graphics@@SAXQAV1@@PB_WHPAUoptional_struct@core@@QAVfont@@@PAUrectF_struct@gdiplus@@PAU34@QAVstringFormat@@@PAPAU67@PAHPAH@Z 
01:000D17D0 $measureCharacterRanges$graphics_implement$predicate$(i,i,i,i,i,i,i)$c$_m107 
01:000D190C ?drawDriverString@graphics@@SAXQAV1@@PB_WHPAUoptional_struct@core@@QAVfont@@@PAU34@QAVbrush@@@PAU?$__packedList_struct@UpointF@@@@IPAU34@QAVmatrix@@@@Z 
01:000D19F0 ?measureDriverString@graphics@@SAXQAV1@@PB_WHPAUoptional_struct@core@@QAVfont@@@PAU?$__packedList_struct@UpointF@@@@IPAU34@QAVmatrix@@@PAPAUrectF_struct@gdiplus@@@Z 
01:000D1AC0 ?drawCachedBitmap@graphics@@SAXQAV1@@QAVcachedBitmap@@@HH@Z 
01:000D1B04 ?setClipGraphics@graphics@@SAXQAV1@@0@Z 
01:000D1B18 ?setClipGraphics@graphics@@SAXQAV1@@0PBUcombineMode@gdiplus_native@@@Z 
01:000D1B58 ?setClipRectF@graphics@@SAXQAV1@@PAUrectF_struct@gdiplus@@@Z 
01:000D1B6C ?setClipRectF@graphics@@SAXQAV1@@PAUrectF_struct@gdiplus@@PBUcombineMode@gdiplus_native@@@Z 
01:000D1BDC ?setClipRectI@graphics@@SAXQAV1@@PAUrectI_struct@gdiplus@@@Z 
01:000D1BF0 ?setClipRectI@graphics@@SAXQAV1@@PAUrectI_struct@gdiplus@@PBUcombineMode@gdiplus_native@@@Z 
01:000D1C40 ?setClipRegion@graphics@@SAXQAV1@@QAVregion@@@@Z 
01:000D1C54 ?setClipRegion@graphics@@SAXQAV1@@QAVregion@@@PBUcombineMode@gdiplus_native@@@Z 
01:000D1C94 ?setClipPath@graphics@@SAXQAV1@@QAVgraphicsPath@@@@Z 
01:000D1CA8 ?setClipPath@graphics@@SAXQAV1@@QAVgraphicsPath@@@PBUcombineMode@gdiplus_native@@@Z 
01:000D1CE8 ?setClipHrgn@graphics@@SAXQAV1@@PBUhRgn@gui_native@@@Z 
01:000D1CFC ?setClipHrgn@graphics@@SAXQAV1@@PBUhRgn@gui_native@@PBUcombineMode@gdiplus_native@@@Z 
01:000D1D30 ?intersectClipRectF@graphics@@SAXQAV1@@PAUrectF_struct@gdiplus@@@Z 
01:000D1D44 ?intersectClipRectI@graphics@@SAXQAV1@@PAUrectI_struct@gdiplus@@@Z 
01:000D1D58 ?intersectClipRegion@graphics@@SAXQAV1@@QAVregion@@@@Z 
01:000D1D6C ?excludeClipRectF@graphics@@SAXQAV1@@PAUrectF_struct@gdiplus@@@Z 
01:000D1D80 ?excludeClipRectI@graphics@@SAXQAV1@@PAUrectI_struct@gdiplus@@@Z 
01:000D1D94 ?excludeClipRegion@graphics@@SAXQAV1@@QAVregion@@@@Z 
01:000D1DA8 ?resetClip@graphics@@SAXQAV1@@@Z 
01:000D1DDC ?translateClipF@graphics@@SAXQAV1@@PANPAN@Z 
01:000D1E58 ?translateClipI@graphics@@SAXQAV1@@HH@Z 
01:000D1E8C ?_getClip@graphics@@SAXQAV1@@PAPAVregion@@@@Z 
01:000D1EC8 ?_getClipBoundsF@graphics@@SAXQAV1@@PAPAUrectF_struct@gdiplus@@@Z 
01:000D1F10 ?_getClipBoundsI@graphics@@SAXQAV1@@PAPAUrectI_struct@gdiplus@@@Z 
01:000D1F58 ?isClipEmpty@graphics@@SAXQAV1@@@Z 
01:000D1F98 ?_getVisibleClipBoundsF@graphics@@SAXQAV1@@PAPAUrectF_struct@gdiplus@@@Z 
01:000D1FE0 ?_getVisibleClipBoundsI@graphics@@SAXQAV1@@PAPAUrectI_struct@gdiplus@@@Z 
01:000D2028 ?isVisibleClipEmpty@graphics@@SAXQAV1@@@Z 
01:000D2068 ?isVisiblePointF@graphics@@SAXQAV1@@PANPAN@Z 
01:000D20D0 ?isVisiblePointF@graphics@@SAXQAV1@@PAUpointF_struct@gdiplus@@@Z 
01:000D2130 ?isVisiblePointI@graphics@@SAXQAV1@@HH@Z 
01:000D215C ?isVisiblePointI@graphics@@SAXQAV1@@PAUpointI_struct@gdiplus@@@Z 
01:000D21AC ?isVisibleRectF@graphics@@SAXQAV1@@PANPANPANPAN@Z 
01:000D225C ?isVisibleRectF@graphics@@SAXQAV1@@PAUrectF_struct@gdiplus@@@Z 
01:000D22DC ?isVisibleRectI@graphics@@SAXQAV1@@HHHH@Z 
01:000D2314 ?isVisibleRectI@graphics@@SAXQAV1@@PAUrectI_struct@gdiplus@@@Z 
01:000D2378 ?_save@graphics@@SAXQAV1@@AAUgpGraphicsState@gdiplus_native@@@Z 
01:000D23A8 ?restore@graphics@@SAXQAV1@@PBUgpGraphicsState@gdiplus_native@@@Z 
01:000D23D8 ?addMetafileComment@graphics@@SAXQAV1@@QAE@Z 
01:000D2420 ?halfTonePalette@graphics@@SGPBUhPalette@gui_native@@QAV1@@@Z 
01:000D2438 ?clear@graphics@@SAXQAV1@@QAVcolor@@@@Z 
01:000D2474 ?enumerateMetaFileDestPointF@graphics@@SAXQAV1@@PAUoptional_struct@core@@QAVmetafile@@@PAUpointF_struct@gdiplus@@XPAXPAU34@QAVimageAttributes@@@@Z 
01:000D2510 ?enumerateMetaFileDestPointI@graphics@@SAXQAV1@@PAUoptional_struct@core@@QAVmetafile@@@PAUpointI_struct@gdiplus@@XPAXPAU34@QAVimageAttributes@@@@Z 
01:000D25AC ?enumerateMetaFileDestRectF@graphics@@SAXQAV1@@PAUoptional_struct@core@@QAVmetafile@@@PAUrectF_struct@gdiplus@@XPAXPAU34@QAVimageAttributes@@@@Z 
01:000D2648 ?enumerateMetaFileDestRectI@graphics@@SAXQAV1@@PAUoptional_struct@core@@QAVmetafile@@@PAUrectI_struct@gdiplus@@XPAXPAU34@QAVimageAttributes@@@@Z 
01:000D26E4 ?enumerateMetaFileDestPointsF@graphics@@SAXQAV1@@PAUoptional_struct@core@@QAVmetafile@@@PAU?$__packedList_struct@UpointF@@@@XPAXPAU34@QAVimageAttributes@@@@Z 
01:000D279C ?enumerateMetaFileDestPointsI@graphics@@SAXQAV1@@PAUoptional_struct@core@@QAVmetafile@@@PAU?$__packedList_struct@UpointI@@@@XPAXPAU34@QAVimageAttributes@@@@Z 
01:000D2854 ?enumerateMetaFileSrcRectDestPointF@graphics@@SAXQAV1@@PAUoptional_struct@core@@QAVmetafile@@@PAUpointF_struct@gdiplus@@PAUrectF_struct@7@PBUgpUnit@gdiplus_native@@XPAXPAU34@QAVimageAttributes@@@@Z 
01:000D28F8 ?enumerateMetaFileSrcRectDestPointI@graphics@@SAXQAV1@@PAUoptional_struct@core@@QAVmetafile@@@PAUpointI_struct@gdiplus@@PAUrectI_struct@7@PBUgpUnit@gdiplus_native@@XPAXPAU34@QAVimageAttributes@@@@Z 
01:000D299C ?enumerateMetaFileSrcRectDestRectF@graphics@@SAXQAV1@@PAUoptional_struct@core@@QAVmetafile@@@PAUrectF_struct@gdiplus@@2PBUgpUnit@gdiplus_native@@XPAXPAU34@QAVimageAttributes@@@@Z 
01:000D2A40 ?enumerateMetaFileSrcRectDestRectI@graphics@@SAXQAV1@@PAUoptional_struct@core@@QAVmetafile@@@PAUrectI_struct@gdiplus@@2PBUgpUnit@gdiplus_native@@XPAXPAU34@QAVimageAttributes@@@@Z 
01:000D2AE4 ?enumerateMetaFileSrcRectDestPointsF@graphics@@SAXQAV1@@PAUoptional_struct@core@@QAVmetafile@@@PAU?$__packedList_struct@UpointF@@@@PAUrectF_struct@gdiplus@@PBUgpUnit@gdiplus_native@@XPAXPAU34@QAVimageAttributes@@@@Z 
01:000D2BA0 ?enumerateMetaFileSrcRectDestPointsI@graphics@@SAXQAV1@@PAUoptional_struct@core@@QAVmetafile@@@PAU?$__packedList_struct@UpointI@@@@PAUrectI_struct@gdiplus@@PBUgpUnit@gdiplus_native@@XPAXPAU34@QAVimageAttributes@@@@Z 
01:000D2C5C ?fillClosedCurveF@graphics@@SAXQAV1@@QAVbrush@@@PAU?$__packedList_struct@UpointF@@@@@Z 
01:000D2CB8 ?fillClosedCurveI@graphics@@SAXQAV1@@QAVbrush@@@PAU?$__packedList_struct@UpointI@@@@@Z 
01:000D2D14 ?fillClosedCurveF@graphics@@SAXQAV1@@QAVbrush@@@PAU?$__packedList_struct@UpointF@@@@PBUgpFillMode@gdiplus_native@@@Z 
01:000D2D28 ?fillClosedCurveI@graphics@@SAXQAV1@@QAVbrush@@@PAU?$__packedList_struct@UpointI@@@@PBUgpFillMode@gdiplus_native@@@Z 
01:000D2D3C ?fillClosedCurveF@graphics@@SAXQAV1@@QAVbrush@@@PAU?$__packedList_struct@UpointF@@@@PBUgpFillMode@gdiplus_native@@PAN@Z 
01:000D2DC0 ?fillClosedCurveI@graphics@@SAXQAV1@@QAVbrush@@@PAU?$__packedList_struct@UpointI@@@@PBUgpFillMode@gdiplus_native@@PAN@Z 
01:000D2E44 ?fillEllipseF@graphics@@SAXQAV1@@QAVbrush@@@PANPANPANPAN@Z 
01:000D2F1C ?fillEllipseI@graphics@@SAXQAV1@@QAVbrush@@@HHHH@Z 
01:000D2F68 ?fillEllipseF@graphics@@SAXQAV1@@QAVbrush@@@PAUrectF_struct@gdiplus@@@Z 
01:000D2FE4 ?fillEllipseI@graphics@@SAXQAV1@@QAVbrush@@@PAUrectI_struct@gdiplus@@@Z 
01:000D3044 ?fillPath@graphics@@SAXQAV1@@QAVbrush@@@QAVgraphicsPath@@@@Z 
01:000D3090 ?fillPieF@graphics@@SAXQAV1@@QAVbrush@@@PANPANPANPANPANPAN@Z 
01:000D31B4 ?fillPieI@graphics@@SAXQAV1@@QAVbrush@@@HHHHPANPAN@Z 
01:000D324C ?fillPieI@graphics@@SAXQAV1@@QAVbrush@@@PAUrectI_struct@gdiplus@@PANPAN@Z 
01:000D32A8 ?fillPieF@graphics@@SAXQAV1@@QAVbrush@@@PAUrectF_struct@gdiplus@@PANPAN@Z 
01:000D33E0 ?fillPolygonF@graphics@@SAXQAV1@@QAVbrush@@@PAU?$__packedList_struct@UpointF@@@@@Z 
01:000D33F4 ?fillPolygonI@graphics@@SAXQAV1@@QAVbrush@@@PAU?$__packedList_struct@UpointI@@@@@Z 
01:000D3408 ?fillPolygonF@graphics@@SAXQAV1@@QAVbrush@@@PAU?$__packedList_struct@UpointF@@@@PBUgpFillMode@gdiplus_native@@@Z 
01:000D3464 ?fillPolygonI@graphics@@SAXQAV1@@QAVbrush@@@PAU?$__packedList_struct@UpointI@@@@PBUgpFillMode@gdiplus_native@@@Z 
01:000D34C0 ?fillRectangleF@graphics@@SAXQAV1@@QAVbrush@@@PANPANPANPAN@Z 
01:000D3598 ?fillRectangleI@graphics@@SAXQAV1@@QAVbrush@@@HHHH@Z 
01:000D35E4 ?fillRectangleF@graphics@@SAXQAV1@@QAVbrush@@@PAUrectF_struct@gdiplus@@@Z 
01:000D3660 ?fillRectangleI@graphics@@SAXQAV1@@QAVbrush@@@PAUrectI_struct@gdiplus@@@Z 
01:000D36C0 ?fillRectanglesF@graphics@@SAXQAV1@@QAVbrush@@@PAU?$__packedList_struct@UrectF@@@@@Z 
01:000D371C ?fillRectanglesI@graphics@@SAXQAV1@@QAVbrush@@@PAU?$__packedList_struct@UrectI@@@@@Z 
01:000D3778 ?fillRegion@graphics@@SAXQAV1@@QAVbrush@@@QAVregion@@@@Z 
01:000D37C4 ?_beginContainer@graphics@@SAXQAV1@@AAUgpGraphicsContainer@gdiplus_native@@@Z 
01:000D37F4 ?_beginContainerF@graphics@@SAXQAV1@@PAUrectF_struct@gdiplus@@1PBUgpUnit@gdiplus_native@@AAUgpGraphicsContainer@8@@Z 
01:000D382C ?_beginContainerI@graphics@@SAXQAV1@@PAUrectI_struct@gdiplus@@1PBUgpUnit@gdiplus_native@@AAUgpGraphicsContainer@8@@Z 
01:000D3864 ?endContainer@graphics@@SAXQAV1@@PBUgpGraphicsContainer@gdiplus_native@@@Z 
01:000D3894 ?_newNative@graphics@@SAXPBUgpGraphics@gdiplus_native@@PAPAV1@@@Z  (Idle)
01:000D38BC ?_createFromWindow@graphics@@SAXQAVwindow@@@PAPAV1@@@Z  (Idle)
01:000D38E4 ?_createFromHDC@graphics@@SAXPBUhDC@gui_native@@PAPAV1@@@Z 
01:000D390C ?_createFromHDC@graphics@@SAXPBUhDC@gui_native@@PBUhandle@@PAPAV1@@@Z  (Idle)
01:000D3938 ?_createFromHWND@graphics@@SAXPBUhwnd@core@@PAPAV1@@@Z 
01:000D3960 ?_createFromHWND@graphics@@SAXPBUhwnd@@PAUboolean_struct@_builtIn@@PAPAV1@@@Z  (Idle)
--- From 'Obj\imagelist.03D8657B.obj'
01:000D398C ?_createFromImage@graphics@@SAXQAVimage@@@PAPAV1@@@Z 
--- From 'Obj\gdiplus.A4A4230C.obj'
01:000D39B4 ?nativeGraphics@graphics@@SGPBUgpGraphics@gdiplus_native@@QAV1@@@Z 
01:000D39C0 addSizeInteger  (Idle)
01:000D3A18 addSizeFloat  (Idle)
01:000D3A74 addPointInteger  (Idle)
01:000D3ACC addPointFloat  (Idle)
01:000D3B28 subSizeInteger  (Idle)
01:000D3B80 subSizeFloat  (Idle)
01:000D3BDC subPointInteger  (Idle)
01:000D3C34 subPointFloat  (Idle)
01:000D3C90 offsetRectPointInteger  (Idle)
01:000D3CFC offsetRectPointFloat  (Idle)
01:000D3D70 offsetRectInteger  (Idle)
01:000D3DCC offsetRectFloat  (Idle)
01:000D3E70 ?isEmptyAreaInteger@gdiplusSupport@@SAXPAUrectI_struct@gdiplus@@@Z  (Idle)
01:000D3EB4 ?isEmptyAreaFloat@gdiplusSupport@@SAXPAUrectF_struct@gdiplus@@@Z  (Idle)
01:000D3F3C ?containsInteger@gdiplusSupport@@SAXPAUrectI_struct@gdiplus@@HH@Z  (Idle)
01:000D3FA0 ?containsPointInteger@gdiplusSupport@@SAXPAUrectI_struct@gdiplus@@PAUpointI_struct@3@@Z  (Idle)
01:000D3FCC ?containsFloat@gdiplusSupport@@SAXPAUrectF_struct@gdiplus@@PANPAN@Z  (Idle)
01:000D4120 ?containsPointFloat@gdiplusSupport@@SAXPAUrectF_struct@gdiplus@@PAUpointF_struct@3@@Z  (Idle)
01:000D42DC ?_inflateInteger@gdiplusSupport@@SAXPAUrectI_struct@gdiplus@@HHPAPAU23@@Z  (Idle)
01:000D4354 ?_inflatePointInteger@gdiplusSupport@@SAXPAUrectI_struct@gdiplus@@PAUpointI_struct@3@PAPAU23@@Z  (Idle)
01:000D4388 ?_inflateFloat@gdiplusSupport@@SAXPAUrectF_struct@gdiplus@@PANPANPAPAU23@@Z  (Idle)
01:000D449C ?_inflatePointFloat@gdiplusSupport@@SAXPAUrectF_struct@gdiplus@@PAUpointF_struct@3@PAPAU23@@Z  (Idle)
01:000D4538 ?_intersectInteger@gdiplusSupport@@SAXPAUrectI_struct@gdiplus@@0PAPAU23@@Z  (Idle)
01:000D4630 ?_intersectFloat@gdiplusSupport@@SAXPAUrectF_struct@gdiplus@@0PAPAU23@@Z  (Idle)
01:000D4764 ?intersectsWithInteger@gdiplusSupport@@SAXPAUrectI_struct@gdiplus@@0@Z  (Idle)
01:000D478C ?intersectsWithFloat@gdiplusSupport@@SAXPAUrectF_struct@gdiplus@@0@Z  (Idle)
01:000D47B4 ?_unionInteger@gdiplusSupport@@SAXPAUrectI_struct@gdiplus@@0PAPAU23@@Z  (Idle)
01:000D48AC ?_unionFloat@gdiplusSupport@@SAXPAUrectF_struct@gdiplus@@0PAPAU23@@Z  (Idle)
01:000D49E0 ?anonymous$c0$1$pointilisttoarray/3np$gdiplusSupport@1@SAXPAXPAUpointI_struct@gdiplus@@@Z 
01:000D4A1C ?pointIListToArray@gdiplusSupport@@SAXPAU?$__packedList_struct@UpointI@@@@PAPAXAAUpositive@@@Z 
01:000D4A64 ?anonymous$c0$1$bytelisttoarray/3np$gdiplusSupport@1@SAXPAXH@Z 
01:000D4A88 ?byteListToArray@gdiplusSupport@@SAXPAU?$__packedList_struct@Uinteger@@@@PAPAXAAUpositive@@@Z 
01:000D4AD0 ?pointFListToArray@gdiplusSupport@@SAXPAU?$__packedList_struct@UpointF@@@@PAPAXAAUpositive@@@Z 
01:000D4B44 ?rectFListToArray@gdiplusSupport@@SAXPAU?$__packedList_struct@UrectF@@@@PAPAXAAUpositive@@@Z 
01:000D4BA0 ?rectIListToArray@gdiplusSupport@@SAXPAU?$__packedList_struct@UrectI@@@@PAPAXAAUpositive@@@Z 
01:000D4BFC ?anonymous$c0$1$colorlisttoarray/3np$gdiplusSupport@1@SAXPAXQAVcolor@@@@Z 
01:000D4C18 $colorListToArray$gdiplusSupport_class$predicate$(i,o,o)$b$_c34 
01:000D4C60 ?anonymous$c0$1$reallisttoarray/3np$gdiplusSupport@1@SAXPAXPAN@Z 
01:000D4C90 ?realListToArray@gdiplusSupport@@SAXPAU?$__packedList_struct@PAN@@PAPAXAAUpositive@@@Z 
01:000D4CD8 ?fillPointFArray@gdiplusSupport@@SAXPAXPAU?$__packedList_struct@UpointF@@@@@Z 
01:000D4D50 ?fillRectFArray@gdiplusSupport@@SAXPAXPAU?$__packedList_struct@UrectF@@@@@Z 
01:000D4E18 ?fillRectIArray@gdiplusSupport@@SAXPAXPAU?$__packedList_struct@UrectI@@@@@Z 
01:000D4EC0 ?_arrayToList@gdiplusSupport@@SAXQAVrTypeLibrary@TypeLibraries@RunTime@VIP@@PAXPBUpositive@@XPAPAU?$__packedList_struct@PAPAX@@@Z  (Idle)
01:000D4F58 ?_anonymous$c0$1$tocolorlist/2nf$gdiplusSupport@1@SAXPAXPAPAUtuple_struct@core@@PAPAXPAPAVcolor@@@@Z 
01:000D4FCC $toColorList$gdiplusSupport_class$predicate$(i,i,o)$b$_c40 
01:000D500C ?_anonymous$c0$1$toreallist/2nf$gdiplusSupport@1@SAXPAXPAPAUtuple_struct@core@@PAPAXPAPAN@Z 
01:000D5098 ?_toRealList@gdiplusSupport@@SAXPAXPBUpositive@@PAPAU?$__packedList_struct@PAPAN@@@Z 
01:000D50D8 ?_anonymous$c0$1$topointilist/2nf$gdiplusSupport@1@SAXPAXPAPAUtuple_struct@core@@PAPAXPAPAUpointI_struct@gdiplus@@@Z 
01:000D5184 ?_toPointIList@gdiplusSupport@@SAXPAXPBUpositive@@PAPAU?$__packedList_struct@UpointI@@@@@Z 
01:000D51C4 ?_anonymous$c0$1$topropertyitemlist/2nf$gdiplusSupport@1@SAXPAXPAPAUtuple_struct@core@@PAPAXPAPAUpropertyItem_struct@gdiplus@@@Z 
01:000D521C ?_toPropertyItemList@gdiplusSupport@@SAXPAXPBUpositive@@PAPAU?$__packedList_struct@UpropertyItem@gdiplus@@@@@Z 
01:000D525C ?_anonymous$c0$1$tounsignedlist/2nf$gdiplusSupport@1@SAXPAXPAPAUtuple_struct@core@@PAPAXPAI@Z 
01:000D52C0 ?_toUnsignedList@gdiplusSupport@@SAXPAXPBUpositive@@PAPAU?$__packedList_struct@Uunsigned@@@@@Z 
01:000D5300 ?_anonymous$c0$1$toguidlist/2nf$gdiplusSupport@1@SAXPAXPAPAUtuple_struct@core@@PAPAXPAPAUnativeGuid_struct@3@@Z 
01:000D5358 ?_toGUIDList@gdiplusSupport@@SAXPAXPBUpositive@@PAPAU?$__packedList_struct@UnativeGuid@@@@@Z 
01:000D5398 ?_anonymous$c0$1$tobytelist/2nf$gdiplusSupport@1@SAXPAXPAPAUtuple_struct@core@@PAPAXPAH@Z 
01:000D53FC ?_toByteList@gdiplusSupport@@SAXPAXPBUpositive@@PAPAU?$__packedList_struct@Uinteger@@@@@Z 
01:000D543C ?_anonymous$c0$1$torectilist/2nf$gdiplusSupport@1@SAXPAXPAPAUtuple_struct@core@@PAPAXPAPAUrectI_struct@gdiplus@@@Z 
01:000D5548 ?_toRectIList@gdiplusSupport@@SAXPAXPBUpositive@@PAPAU?$__packedList_struct@UrectI@@@@@Z 
01:000D5588 ?_anonymous$c0$1$torectflist/2nf$gdiplusSupport@1@SAXPAXPAPAUtuple_struct@core@@PAPAXPAPAUrectF_struct@gdiplus@@@Z 
01:000D5694 ?_toRectFList@gdiplusSupport@@SAXPAXPBUpositive@@PAPAU?$__packedList_struct@UrectF@@@@@Z 
01:000D56D4 ?_toPointFList@gdiplusSupport@@SAXPAXPBUpositive@@PAPAU?$__packedList_struct@UpointF@@@@@Z 
01:000D57B4 ?checkStatus_explicit@gdiplusSupport@@SAXPAUprogramPoint_struct@core@@PBUgpStatus@gdiplus_native@@@Z 
01:000D5A7C ?_tryGetStatusMessage@gdiplusSupport@@SAXPBUgpStatus@gdiplus_native@@PAPB_W@Z 
--- From 'Obj\imagelist.03D8657B.obj'
01:000D5C78 ?_startup@gdiplus@@SAXPAI@Z 
--- From 'Obj\gdiplus.A4A4230C.obj'
01:000D5CBC ?_startup@gdiplus@@SAXPAUgdiplusStartupInput_struct@gdiplus_native@@PAI@Z 
01:000D5CE4 ?_startup@gdiplus@@SAXPAUgdiplusStartupInput_struct@gdiplus_native@@PAPAUgdiplusStartupOutput_struct@3@PAI@Z  (Idle)
--- From 'Obj\gui.EF789F46.obj'
01:000D5D30 ?shutdown@gdiplus@@SAXI@Z 
--- From 'Obj\gdiplus.A4A4230C.obj'
01:000D5D40 ?anonymous$c0$1$mkrunnable/1nf$gdiplus@1@SAXPAUanonymous$c0$1$mkrunnable/1nf$gdiplusc_struct@1@@Z 
01:000D5DD0 ?_mkRunnable@gdiplus@@SAXXPAX@Z  (Idle)
01:000D5E04 ?getImageDecodersSize@gdiplus@@SAXAAUpositive@@AAUbyteCount@@@Z  (Idle)
01:000D5E64 ?_anonymous$c0$1$imagedecoders/0nf$gdiplus@1@SAXPAXPAPAUtuple_struct@core@@PAPAXPAPAUimageCodecInfo_struct@1@@Z 
01:000D5F78 ?imageDecoders@gdiplus@@SGPAU?$__packedList_struct@UimageCodecInfo@@@@XZ  (Idle)
01:000D6000 ?getImageEncodersSize@gdiplus@@SAXAAUpositive@@AAUbyteCount@@@Z  (Idle)
01:000D6060 ?_anonymous$c0$1$imageencoders/0nf$gdiplus@1@SAXPAXPAPAUtuple_struct@core@@PAPAXPAPAUimageCodecInfo_struct@1@@Z 
01:000D6174 ?imageEncoders@gdiplus@@SGPAU?$__packedList_struct@UimageCodecInfo@@@@XZ  (Idle)
01:000D61FC ?_nullToEmptyString@gdiplus@@SAXPB_WPAPB_W@Z 
01:000D6240 ?objectTypeIsValid@gdiplus@@SAXH@Z  (Idle)
01:000D6260 ?_pointR@gdiplus@@SAXPANPANPAPAUpointF_struct@1@@Z  (Idle)
01:000D62C8 ?_sizeR@gdiplus@@SAXPANPANPAPAUsizeF_struct@1@@Z  (Idle)
01:000D6330 ?_rectR@gdiplus@@SAXPANPANPANPANPAPAUrectF_struct@1@@Z 
01:000D63DC ?_rectF@gdiplus@@SAXPAUpointF_struct@1@PAUsizeF_struct@1@PAPAUrectF_struct@1@@Z  (Idle)
01:000D6430 ?newNative@fontFamily@@SAXQAV1@@PBUgpFontFamily@gdiplus_native@@@Z  (Idle)
01:000D6444 ?create@fontFamily@@SAXQAV1@@@Z  (Idle)
01:000D6454 ?createFromName@fontFamily@@SAXQAV1@@PB_W@Z  (Idle)
01:000D6488 ?createFromName@fontFamily@@SAXQAV1@@PB_WQAVfontCollection@@@@Z  (Idle)
01:000D64CC ?finalize@fontFamily@@SGXQAV1@@@Z 
01:000D652C ?_clone@fontFamily@@SAXQAV1@@PAPAV1@@@Z 
01:000D6568 ?_getFamilyName@fontFamily@@SAXQAV1@@PBUlangid@gui_native@@PAPB_W@Z 
01:000D65AC ?isAvailable@fontFamily@@SAXQAV1@@@Z 
01:000D65F8 ?isStyleAvailable@fontFamily@@SAXQAV1@@H@Z 
01:000D663C ?_getEmHeight@fontFamily@@SAXQAV1@@HPAH@Z 
01:000D6680 ?_getCellAscent@fontFamily@@SAXQAV1@@HPAH@Z 
01:000D66C4 ?_getCellDescent@fontFamily@@SAXQAV1@@HPAH@Z 
01:000D6708 ?_getLineSpacing@fontFamily@@SAXQAV1@@HPAH@Z 
01:000D674C ?genericSansSerif@fontFamily@@SGQAV1@@XZ 
01:000D67BC ?genericSerif@fontFamily@@SGQAV1@@XZ  (Idle)
01:000D682C ?genericMonospace@fontFamily@@SGQAV1@@XZ  (Idle)
01:000D689C ?_newNative@fontFamily@@SAXPBUgpFontFamily@gdiplus_native@@PAPAV1@@@Z 
01:000D68C4 ?_create@fontFamily@@SAXPAPAV1@@@Z  (Idle)
01:000D68EC ?_createFromName@fontFamily@@SAXPB_WPAPAV1@@@Z 
01:000D6914 ?_createFromName@fontFamily@@SAXPB_WQAVfontCollection@@@PAPAV1@@@Z  (Idle)
01:000D6940 ?nativeFontFamily@fontFamily@@SGPBUgpFontFamily@gdiplus_native@@QAV1@@@Z 
01:000D694C ?newNative@fontCollection@@SAXQAV1@@PBUgpFontCollection@gdiplus_native@@@Z 
01:000D6960 ?create@fontCollection@@SAXQAV1@@@Z  (Idle)
01:000D6970 ?_anonymous$o0$1$families/0nf$fontCollection@1@SAXPAXPAPAUtuple_struct@core@@PAPAXPAPAVfontFamily@@@@Z 
01:000D69D4 $families$fontCollection_implement$predicate$(i)$c$ 
01:000D6AA4 ?_newNative@fontCollection@@SAXPBUgpFontCollection@gdiplus_native@@PAPAV1@@@Z  (Idle)
01:000D6ACC ?_create@fontCollection@@SAXPAPAV1@@@Z  (Idle)
01:000D6AF4 ?nativeFontCollection@fontCollection@@SGPBUgpFontCollection@gdiplus_native@@QAV1@@@Z 
01:000D6B00 ?newNative@font@@SAXQAV1@@PBUgpFont@gdiplus_native@@@Z  (Idle)
01:000D6B14 ?createFromHDC@font@@SAXQAV1@@PBUhDC@gui_native@@@Z  (Idle)
01:000D6B48 ?createFromLogFont@font@@SAXQAV1@@PBUhDC@gui_native@@PAUlogfont_struct@4@@Z  (Idle)
01:000D6B80 ?createFromFontFamily@font@@SAXQAV1@@QAVfontFamily@@@PANHPBUgpUnit@gdiplus_native@@@Z  (Idle)
01:000D6BF0 ?finalize@font@@SGXQAV1@@@Z 
01:000D6C50 ?_clone@font@@SAXQAV1@@PAPAV1@@@Z 
01:000D6C8C ?_getLogFont@font@@SAXQAV1@@QAVgraphics@@@PAPAUlogfont_struct@gui_native@@@Z 
01:000D6CE4 ?_getHeight@font@@SAXQAV1@@QAVgraphics@@@PAPAN@Z 
01:000D6D60 ?_getHeightGivenDPI@font@@SAXQAV1@@PANPAPAN@Z 
01:000D6DF4 ?style@font@@SGHQAV1@@@Z 
01:000D6E30 ?_size@font@@SAXQAV1@@PAPAN@Z 
01:000D6E9C ?unit@font@@SGHQAV1@@@Z 
01:000D6ED8 ?fontfamily@font@@SGQAVfontFamily@@@QAV1@@@Z 
01:000D6F28 ?_newNative@font@@SAXPBUgpFont@gdiplus_native@@PAPAV1@@@Z 
01:000D6F50 ?_createFromHDC@font@@SAXPBUhDC@gui_native@@PAPAV1@@@Z 
01:000D6F78 ?_createFromLogFont@font@@SAXPBUhDC@gui_native@@PAUlogfont_struct@3@PAPAV1@@@Z  (Idle)
01:000D6FA4 ?_createFromFontFamily@font@@SAXQAVfontFamily@@@PANHPBUgpUnit@gdiplus_native@@PAPAV1@@@Z 
01:000D6FD8 ?nativeFont@font@@SGXQAV1@@PBUgpFont@gdiplus_native@@@Z 
01:000D6FE8 ?nativeFont@font@@SGPBUgpFont@gdiplus_native@@QAV1@@@Z 
01:000D6FF4 ?newNative@customLineCap@@SAXQAV1@@PBUgpCustomLineCap@gdiplus_native@@@Z 
01:000D7008 ?createFillPath@customLineCap@@SAXQAV1@@QAVgraphicsPath@@@PBUgpLineCap@gdiplus_native@@PAN@Z  (Idle)
01:000D7074 ?createStrokePath@customLineCap@@SAXQAV1@@QAVgraphicsPath@@@PBUgpLineCap@gdiplus_native@@PAN@Z  (Idle)
01:000D70E4 ?create@customLineCap@@SAXQAV1@@@Z  (Idle)
01:000D70F4 ?_clone@customLineCap@@SAXQAV1@@PAPAV1@@@Z 
01:000D7130 ?finalize@customLineCap@@SGXQAV1@@@Z 
01:000D7190 ?setStrokeCaps@customLineCap@@SAXQAV1@@PBUgpLineCap@gdiplus_native@@1@Z 
01:000D71C4 ?getStrokeCaps@customLineCap@@SAXQAV1@@AAUgpLineCap@gdiplus_native@@1@Z 
01:000D71F8 ?strokeJoin@customLineCap@@SGPBUgpLineJoin@gdiplus_native@@QAV1@@@Z 
01:000D7234 ?strokeJoin@customLineCap@@SGXQAV1@@PBUgpLineJoin@gdiplus_native@@@Z 
01:000D726C ?baseCap@customLineCap@@SGPBUgpLineCap@gdiplus_native@@QAV1@@@Z 
01:000D72A8 ?baseCap@customLineCap@@SGXQAV1@@PBUgpLineCap@gdiplus_native@@@Z 
01:000D72E0 ?_baseInset@customLineCap@@SAXQAV1@@PAPAN@Z 
01:000D734C ?baseInset@customLineCap@@SAXQAV1@@PAN@Z 
01:000D73A0 ?_widthScale@customLineCap@@SAXQAV1@@PAPAN@Z 
01:000D740C ?widthScale@customLineCap@@SAXQAV1@@PAN@Z 
01:000D7460 ?_create@customLineCap@@SAXPAPAV1@@@Z  (Idle)
01:000D7488 ?_newNative@customLineCap@@SAXPBUgpCustomLineCap@gdiplus_native@@PAPAV1@@@Z 
01:000D74B0 ?_createFillPath@customLineCap@@SAXQAVgraphicsPath@@@PBUgpLineCap@gdiplus_native@@PANPAPAV1@@@Z  (Idle)
01:000D74E0 ?_createStrokePath@customLineCap@@SAXQAVgraphicsPath@@@PBUgpLineCap@gdiplus_native@@PANPAPAV1@@@Z  (Idle)
01:000D7510 ?nativeCustomLineCap@customLineCap@@SGXQAV1@@PBUgpCustomLineCap@gdiplus_native@@@Z 
01:000D7520 ?nativeCustomLineCap@customLineCap@@SGPBUgpCustomLineCap@gdiplus_native@@QAV1@@@Z 
01:000D752C ?newNative@color@@SAXQAV1@@I@Z  (Idle)
01:000D7540 ?create@color@@SAXQAV1@@@Z  (Idle)
01:000D7554 ?create@color@@SAXQAV1@@I@Z  (Idle)
01:000D7558 ?create@color@@SAXQAV1@@PBUunsigned8@@11@Z  (Idle)
01:000D7588 ?create@color@@SAXQAV1@@PBUunsigned8@@111@Z 
01:000D75BC ?createFromVpiColor@color@@SAXQAV1@@PBU1vpiDomains@@@Z  (Idle)
01:000D768C ?alphaPart@color@@SGPBUunsigned8@@QAV1@@@Z 
01:000D76D8 ?redPart@color@@SGPBUunsigned8@@QAV1@@@Z 
01:000D7724 ?greenPart@color@@SGPBUunsigned8@@QAV1@@@Z 
01:000D7770 ?bluePart@color@@SGPBUunsigned8@@QAV1@@@Z 
01:000D77BC ?vpiColor@color@@SGPBU1vpiDomains@@QAV1@@@Z 
01:000D782C ?_makeARGB@color@@SAXPBUunsigned8@@000PAI@Z 
01:000D78BC ?_newNative@color@@SAXIPAPAV1@@@Z 
01:000D78E4 ?_create@color@@SAXPAPAV1@@@Z  (Idle)
--- From 'Obj\imagelist.03D8657B.obj'
01:000D790C ?_create@color@@SAXIPAPAV1@@@Z 
--- From 'Obj\gdiplus.A4A4230C.obj'
01:000D7934 ?_create@color@@SAXPBUunsigned8@@00PAPAV1@@@Z 
--- From 'Obj\imagelist.03D8657B.obj'
01:000D7968 ?_create@color@@SAXPBUunsigned8@@000PAPAV1@@@Z 
--- From 'Obj\gdiplus.A4A4230C.obj'
01:000D79A0 ?_createFromVpiColor@color@@SAXPBU1vpiDomains@@PAPAV1@@@Z 
01:000D79C8 ?nativeColor@color@@SGXQAV1@@I@Z 
01:000D79D8 ?nativeColor@color@@SGIQAV1@@@Z 
01:000D79E4 ?create@cachedBitmap@@SAXQAV1@@QAVbitmap@@@QAVgraphics@@@@Z  (Idle)
01:000D7A38 ?finalize@cachedBitmap@@SGXQAV1@@@Z 
01:000D7A98 ?_create@cachedBitmap@@SAXQAVbitmap@@@QAVgraphics@@@PAPAV1@@@Z  (Idle)
01:000D7AC4 ?nativeCachedBitmap@cachedBitmap@@SGXQAV1@@PBUgpCachedBitmap@gdiplus_native@@@Z 
01:000D7AD4 ?nativeCachedBitmap@cachedBitmap@@SGPBUgpCachedBitmap@gdiplus_native@@QAV1@@@Z 
01:000D7AE0 ?newNative@brush@@SAXQAV1@@PBUgpBrush@gdiplus_native@@@Z 
01:000D7AF4 ?_clone@brush@@SAXQAV1@@PAPAV1@@@Z 
01:000D7C8C ?finalize@brush@@SGXQAV1@@@Z 
01:000D7CEC ?brushType@brush@@SGPBUgpBrushType@gdiplus_native@@QAV1@@@Z 
01:000D7D28 ?_newNative@brush@@SAXPBUgpBrush@gdiplus_native@@PAPAV1@@@Z  (Idle)
01:000D7D50 ?nativeBrush@brush@@SGXQAV1@@PBUgpBrush@gdiplus_native@@@Z 
01:000D7D60 ?nativeBrush@brush@@SGPBUgpBrush@gdiplus_native@@QAV1@@@Z 
01:000D7D6C ?newNative@bitmap@@SAXQAV1@@PBUgpBitmap@gdiplus_native@@@Z  (Idle)
01:000D7D88 ?createFromFile@bitmap@@SAXQAV1@@PB_WPAUboolean_struct@_builtIn@@@Z  (Idle)
01:000D7DA4 ?createFromFile@bitmap@@SAXQAV1@@PB_W@Z 
01:000D7E4C ?createFromFileICM@bitmap@@SAXQAV1@@PB_W@Z 
01:000D7E84 ?createFromBitmapInfo@bitmap@@SAXQAV1@@PBUbitmapInfo@@PAX@Z  (Idle)
01:000D7EBC ?createFromHBitmap@bitmap@@SAXQAV1@@PBUhBitmap@gui_native@@PBUhPalette@4@@Z  (Idle)
01:000D7EF4 ?createFromHIcon@bitmap@@SAXQAV1@@PBUhIcon@gui_native@@@Z  (Idle)
01:000D8098 ?getTempBitmap@bitmap@@SAXPBUhIcon@gui_native@@PAPAV1@@PAPAUbitmapData_struct@gdiplus@@@Z 
01:000D8184 ?hasAlphaChannel@bitmap@@SAXPAUbitmapData_struct@gdiplus@@@Z 
01:000D8240 ?createFromResource@bitmap@@SAXQAV1@@PBUhModule@@PB_W@Z  (Idle)
01:000D8278 ?createFromStream@bitmap@@SAXQAV1@@QAViStream_native@@@PAUboolean_struct@_builtIn@@@Z  (Idle)
01:000D8294 ?createFromStream@bitmap@@SAXQAV1@@QAViStream_native@@@@Z 
01:000D82CC ?createFromStreamICM@bitmap@@SAXQAV1@@QAViStream_native@@@@Z 
01:000D8304 ?createFromScan@bitmap@@SAXQAV1@@HHHPBUpixelFormat@gdiplus_native@@PAX@Z  (Idle)
01:000D8348 ?create@bitmap@@SAXQAV1@@HHPBUpixelFormat@gdiplus_native@@@Z 
01:000D8364 ?createFromGraphics@bitmap@@SAXQAV1@@HHQAVgraphics@@@@Z  (Idle)
01:000D83AC ?createFromDirectDrawSurface@bitmap@@SAXQAV1@@QAViUnknown@@@@Z  (Idle)
01:000D83E4 ?createFromBinary@bitmap@@SAXQAV1@@QAE@Z  (Idle)
01:000D841C ?createFromBuffer@bitmap@@SAXQAV1@@PAXPBUbyteCount@@@Z  (Idle)
01:000D8458 ?createFromResID@bitmap@@SAXQAV1@@PBUhModule@@IPBUpositive@@3@Z  (Idle)
01:000D84A8 ?createFromHandle@bitmap@@SAXQAV1@@PBUhandle@@I@Z 
01:000D84C8 ?_loadImageHandle@bitmap@@SAXPBUhModule@@IPBUpositive@@2PAPAUtuple_struct@core@@AAUhandle@@PAI@Z 
01:000D858C ?_clone@bitmap@@SAXQAVimage@@@PAPAV2@@@Z 
01:000D85E4 ?_cloneRectI@bitmap@@SAXQAV1@@PAUrectI_struct@gdiplus@@PBUpixelFormat@gdiplus_native@@PAPAV1@@@Z 
01:000D864C ?_cloneRectF@bitmap@@SAXQAV1@@PAUrectF_struct@gdiplus@@PBUpixelFormat@gdiplus_native@@PAPAV1@@@Z 
01:000D86D0 ?_cloneI@bitmap@@SAXQAV1@@HHHHPBUpixelFormat@gdiplus_native@@PAPAV1@@@Z 
01:000D8714 ?_cloneF@bitmap@@SAXQAV1@@PANPANPANPANPBUpixelFormat@gdiplus_native@@PAPAV1@@@Z 
01:000D87D0 ?_fromBITMAPINFO@bitmap@@SAXQAV1@@PBUbitmapInfo@@PAXPAPAV1@@@Z 
01:000D87F0 ?_fromFile@bitmap@@SAXQAVimage@@@PB_WPAUboolean_struct@_builtIn@@PAPAV2@@@Z 
01:000D8824 ?_fromHBITMAP@bitmap@@SAXQAV1@@PBUhBitmap@gui_native@@PBUhPalette@4@PAPAV1@@@Z 
01:000D8844 ?_fromHICON@bitmap@@SAXQAV1@@PBUhIcon@gui_native@@PAPAV1@@@Z 
01:000D885C ?_fromResource@bitmap@@SAXQAV1@@PBUhModule@core@@PB_WPAPAV1@@@Z 
01:000D887C ?_getHBITMAP@bitmap@@SAXQAV1@@QAVcolor@@@AAUhBitmap@gui_native@@@Z 
01:000D88BC ?_getHICON@bitmap@@SAXQAV1@@AAUhIcon@gui_native@@@Z 
01:000D88EC ?_getPixel@bitmap@@SAXQAV1@@HHPAPAVcolor@@@@Z 
01:000D8934 ?setPixel@bitmap@@SAXQAV1@@HHQAVcolor@@@@Z 
01:000D8974 ?lockBits@bitmap@@SAXQAV1@@PAUrect_struct@gdiplus_native@@IPBUpixelFormat@4@PAUbitmapData_struct@gdiplus@@@Z 
01:000D89AC ?setResolution@bitmap@@SAXQAV1@@PANPAN@Z 
01:000D8A28 ?unlockBits@bitmap@@SAXQAV1@@PAUbitmapData_struct@gdiplus@@@Z 
01:000D8A58 ?_newNative@bitmap@@SAXPBUgpBitmap@gdiplus_native@@PAPAV1@@@Z 
--- From 'Obj\imagelist.03D8657B.obj'
01:000D8A80 ?_create@bitmap@@SAXHHPBUpixelFormat@gdiplus_native@@PAPAV1@@@Z 
--- From 'Obj\gdiplus.A4A4230C.obj'
01:000D8AB0 ?_createFromScan@bitmap@@SAXHHHPBUpixelFormat@gdiplus_native@@PAXPAPAV1@@@Z  (Idle)
01:000D8AE4 ?_createFromGraphics@bitmap@@SAXHHQAVgraphics@@@PAPAV1@@@Z  (Idle)
01:000D8B14 ?_createFromBitmapInfo@bitmap@@SAXPBUbitmapInfo@@PAXPAPAV1@@@Z 
--- From 'Obj\imagelist.03D8657B.obj'
01:000D8B40 ?_createFromHBitmap@bitmap@@SAXPBUhBitmap@gui_native@@PBUhPalette@3@PAPAV1@@@Z 
--- From 'Obj\gdiplus.A4A4230C.obj'
01:000D8B6C ?_createFromFile@bitmap@@SAXPB_WPAUboolean_struct@_builtIn@@PAPAV1@@@Z 
--- From 'Obj\imagelist.03D8657B.obj'
01:000D8B98 ?_createFromFile@bitmap@@SAXPB_WPAPAV1@@@Z 
--- From 'Obj\gdiplus.A4A4230C.obj'
01:000D8BC0 ?_createFromFileICM@bitmap@@SAXPB_WPAPAV1@@@Z  (Idle)
01:000D8BE8 ?_createFromResource@bitmap@@SAXPBUhModule@@PB_WPAPAV1@@@Z 
01:000D8C14 ?_createFromHIcon@bitmap@@SAXPBUhIcon@gui_native@@PAPAV1@@@Z 
01:000D8C3C ?_createFromStream@bitmap@@SAXQAViStream_native@@@PAUboolean_struct@_builtIn@@PAPAV1@@@Z  (Idle)
01:000D8C68 ?_createFromStream@bitmap@@SAXQAViStream_native@@@PAPAV1@@@Z  (Idle)
01:000D8C90 ?_createFromStreamICM@bitmap@@SAXQAViStream_native@@@PAPAV1@@@Z  (Idle)
01:000D8CB8 ?_createFromDirectDrawSurface@bitmap@@SAXQAViUnknown@@@PAPAV1@@@Z  (Idle)
01:000D8CE0 ?_createFromBinary@bitmap@@SAXQAEPAPAV1@@@Z 
01:000D8D08 ?_createFromBuffer@bitmap@@SAXPAXPBUbyteCount@@PAPAV1@@@Z  (Idle)
--- From 'Obj\imagelist.03D8657B.obj'
01:000D8D34 ?_createFromResID@bitmap@@SAXPBUhModule@@IPBUpositive@@2PAPAV1@@@Z 
--- From 'Obj\gdiplus.A4A4230C.obj'
01:000D8D68 ?_createFromHandle@bitmap@@SAXPBUhandle@@IPAPAV1@@@Z  (Idle)
01:000D8D94 ?nativeBitmap@bitmap@@SGXQAV1@@PBUgpBitmap@gdiplus_native@@@Z 
01:000D8DA4 ?nativeBitmap@bitmap@@SGPBUgpBitmap@gdiplus_native@@QAV1@@@Z 
01:000D8DB0 ?newNative@adjustableArrowCap@@SAXQAV1@@PBUgpAdjustableArrowCap@gdiplus_native@@@Z  (Idle)
01:000D8DD4 ?create@adjustableArrowCap@@SAXQAV1@@PANPANPAUboolean_struct@_builtIn@@@Z  (Idle)
01:000D8E68 ?_height@adjustableArrowCap@@SAXQAV1@@PAPAN@Z 
01:000D8ED4 ?height@adjustableArrowCap@@SAXQAV1@@PAN@Z 
01:000D8F28 ?_width@adjustableArrowCap@@SAXQAV1@@PAPAN@Z 
01:000D8F94 ?width@adjustableArrowCap@@SAXQAV1@@PAN@Z 
01:000D8FE8 ?_middleInset@adjustableArrowCap@@SAXQAV1@@PAPAN@Z 
01:000D9054 ?middleInset@adjustableArrowCap@@SAXQAV1@@PAN@Z 
01:000D90A8 ?fillState@adjustableArrowCap@@SGPAUboolean_struct@_builtIn@@QAV1@@@Z 
01:000D90F8 ?fillState@adjustableArrowCap@@SGXQAV1@@PAUboolean_struct@_builtIn@@@Z 
01:000D9144 ?isFilled@adjustableArrowCap@@SAXQAV1@@@Z 
01:000D9160 ?_newNative@adjustableArrowCap@@SAXPBUgpAdjustableArrowCap@gdiplus_native@@PAPAV1@@@Z  (Idle)
01:000D9188 ?_create@adjustableArrowCap@@SAXPANPANPAUboolean_struct@_builtIn@@PAPAV1@@@Z  (Idle)
01:000D9210 textureBrush?_initObject@@@QAGXQAV1@H@Z 
01:000D923C ?@create_object@textureBrush@@SGQAV1@@XZ 
01:000D9258 textureBrush?_InternalFinalizer@@@QAGXQAV1@@Z 
01:000D9270 stringFormat?_initObject@@@QAGXQAV1@H@Z 
01:000D9284 ?@create_object@stringFormat@@SGQAV1@@XZ 
01:000D92A0 stringFormat?_InternalFinalizer@@@QAGXQAV1@@Z 
01:000D9340 solidBrush?_initObject@@@QAGXQAV1@H@Z 
01:000D936C ?@create_object@solidBrush@@SGQAV1@@XZ 
01:000D9388 solidBrush?_InternalFinalizer@@@QAGXQAV1@@Z 
01:000D93A0 region?_initObject@@@QAGXQAV1@H@Z 
01:000D93B4 ?@create_object@region@@SGQAV1@@XZ 
01:000D93D0 region?_InternalFinalizer@@@QAGXQAV1@@Z 
01:000D9450 privateFontCollection?_initObject@@@QAGXQAV1@H@Z 
01:000D947C ?@create_object@privateFontCollection@@SGQAV1@@XZ 
01:000D9498 privateFontCollection?_InternalFinalizer@@@QAGXQAV1@@Z 
01:000D94B0 pen?_initObject@@@QAGXQAV1@H@Z 
01:000D94C4 ?@create_object@pen@@SGQAV1@@XZ 
01:000D94E0 pen?_InternalFinalizer@@@QAGXQAV1@@Z 
01:000D9580 pathGradientBrush?_initObject@@@QAGXQAV1@H@Z 
01:000D95AC ?@create_object@pathGradientBrush@@SGQAV1@@XZ 
01:000D95C8 pathGradientBrush?_InternalFinalizer@@@QAGXQAV1@@Z 
01:000D9880 metafile?_initObject@@@QAGXQAV1@H@Z 
01:000D98AC ?@create_object@metafile@@SGQAV1@@XZ 
01:000D98C8 metafile?_InternalFinalizer@@@QAGXQAV1@@Z 
01:000D98E0 matrix?_initObject@@@QAGXQAV1@H@Z 
01:000D98F4 ?@create_object@matrix@@SGQAV1@@XZ 
01:000D9910 matrix?_InternalFinalizer@@@QAGXQAV1@@Z 
01:000D99B0 linearGradientBrush?_initObject@@@QAGXQAV1@H@Z 
01:000D99DC ?@create_object@linearGradientBrush@@SGQAV1@@XZ 
01:000D99F8 linearGradientBrush?_InternalFinalizer@@@QAGXQAV1@@Z 
01:000D9A40 installedFontCollection?_initObject@@@QAGXQAV1@H@Z 
01:000D9A6C ?@create_object@installedFontCollection@@SGQAV1@@XZ 
01:000D9A88 installedFontCollection?_InternalFinalizer@@@QAGXQAV1@@Z 
01:000D9AA0 imageAttributes?_initObject@@@QAGXQAV1@H@Z 
01:000D9AB4 ?@create_object@imageAttributes@@SGQAV1@@XZ 
01:000D9AD0 imageAttributes?_InternalFinalizer@@@QAGXQAV1@@Z 
01:000D9B20 image?_initObject@@@QAGXQAV1@H@Z 
01:000D9B40 ?@create_object@image@@SGQAV1@@XZ 
01:000D9B5C image?_InternalFinalizer@@@QAGXQAV1@@Z 
01:000D9BAC icon?_initObject@@@QAGXQAV1@H@Z 
01:000D9BC0 ?@create_object@icon@@SGQAV1@@XZ 
01:000D9BDC icon?_InternalFinalizer@@@QAGXQAV1@@Z 
01:000D9C40 hatchBrush?_initObject@@@QAGXQAV1@H@Z 
01:000D9C6C ?@create_object@hatchBrush@@SGQAV1@@XZ 
01:000D9C88 hatchBrush?_InternalFinalizer@@@QAGXQAV1@@Z 
01:000D9CA0 graphicsPathIterator?_initObject@@@QAGXQAV1@H@Z 
01:000D9CB4 ?@create_object@graphicsPathIterator@@SGQAV1@@XZ 
01:000D9CD0 graphicsPathIterator?_InternalFinalizer@@@QAGXQAV1@@Z 
01:000D9D20 graphicsPath?_initObject@@@QAGXQAV1@H@Z 
01:000D9D34 ?@create_object@graphicsPath@@SGQAV1@@XZ 
01:000D9D50 graphicsPath?_InternalFinalizer@@@QAGXQAV1@@Z 
01:000D9DA0 graphics?_initObject@@@QAGXQAV1@H@Z 
01:000D9DB4 ?@create_object@graphics@@SGQAV1@@XZ 
01:000D9DD0 graphics?_InternalFinalizer@@@QAGXQAV1@@Z 
01:000D9E20 fontFamily?_initObject@@@QAGXQAV1@H@Z 
01:000D9E34 ?@create_object@fontFamily@@SGQAV1@@XZ 
01:000D9E50 fontFamily?_InternalFinalizer@@@QAGXQAV1@@Z 
01:000D9EA0 fontCollection?_initObject@@@QAGXQAV1@H@Z 
01:000D9EB4 ?@create_object@fontCollection@@SGQAV1@@XZ 
01:000D9ED0 fontCollection?_InternalFinalizer@@@QAGXQAV1@@Z 
01:000D9EE4 font?_initObject@@@QAGXQAV1@H@Z 
01:000D9EF8 ?@create_object@font@@SGQAV1@@XZ 
01:000D9F14 font?_InternalFinalizer@@@QAGXQAV1@@Z 
01:000D9F64 customLineCap?_initObject@@@QAGXQAV1@H@Z 
01:000D9F78 ?@create_object@customLineCap@@SGQAV1@@XZ 
01:000D9F94 customLineCap?_InternalFinalizer@@@QAGXQAV1@@Z 
01:000D9FE4 color?_initObject@@@QAGXQAV1@H@Z 
01:000D9FF8 ?@create_object@color@@SGQAV1@@XZ 
01:000DA014 color?_InternalFinalizer@@@QAGXQAV1@@Z 
01:000DA028 cachedBitmap?_initObject@@@QAGXQAV1@H@Z 
01:000DA03C ?@create_object@cachedBitmap@@SGQAV1@@XZ 
01:000DA058 cachedBitmap?_InternalFinalizer@@@QAGXQAV1@@Z 
01:000DA0A8 brush?_initObject@@@QAGXQAV1@H@Z 
01:000DA0BC ?@create_object@brush@@SGQAV1@@XZ 
01:000DA0D8 brush?_InternalFinalizer@@@QAGXQAV1@@Z 
01:000DA3A8 bitmap?_initObject@@@QAGXQAV1@H@Z 
01:000DA3D4 ?@create_object@bitmap@@SGQAV1@@XZ 
01:000DA3F0 bitmap?_InternalFinalizer@@@QAGXQAV1@@Z 
01:000DA4E8 adjustableArrowCap?_initObject@@@QAGXQAV1@H@Z 
01:000DA514 ?@create_object@adjustableArrowCap@@SGQAV1@@XZ 
01:000DA530 adjustableArrowCap?_InternalFinalizer@@@QAGXQAV1@@Z 
--- From 'Obj\gui.EF789F46.obj'
01:000DA540 ?new@window@@SAXQAV1@@@Z 
01:000DA558 ?new@window@@SAXQAV1@@0@Z 
01:000DA5A0 ?_getWindowExtension@window@@SAXQAV1@@PAPAVwindowExtension@@@@Z 
01:000DA5C4 ?setWindowExtension@window@@SAXQAV1@@QAVwindowExtension@@@@Z 
01:000DA5E4 ?show@window@@SAXQAV1@@@Z 
01:000DA5FC ?_tryGetVpiWindow@window@@SAXQAV1@@AAUwindowHandle@vpiDomains@@@Z 
01:000DA620 ?isShown@window@@SAXQAV1@@@Z 
01:000DA638 ?_getVpiWindow@window@@SAXQAV1@@AAUwindowHandle@vpiDomains@@@Z 
01:000DA670 ?destroy@window@@SAXQAV1@@@Z 
01:000DA6CC ?setDestroyed@window@@SAXQAV1@@@Z 
01:000DA704 ?isDestroying@window@@SAXQAV1@@@Z 
01:000DA730 ?isDestroyed@window@@SAXQAV1@@@Z 
01:000DA748 ?close@window@@SAXQAV1@@@Z 
01:000DA780 ?whenCreated@window@@SAXQAV1@@X@Z 
01:000DA7F4 ?initialize@window@@SAXQAV1@@@Z 
01:000DA81C ?localInitialize@window@@SAXQAV1@@@Z  (Idle)
01:000DA98C ?isInitializing@window@@SAXQAV1@@@Z 
01:000DA9A8 ?setSetting@window@@SAXQAV1@@PAUsetting_struct@1@X@Z  (Idle)
01:000DAA14 ?_getParent@window@@SAXQAV1@@PAPAV1@@@Z 
01:000DAA98 ?_tryGetParent@window@@SAXQAV1@@PAPAV1@@@Z  (Idle)
01:000DAB1C $getParentPath$window_implement$predicate$(i,o)$c$_m15 
01:000DABAC ?setParent@window@@SAXQAV1@@0@Z 
01:000DAC4C ?_getDialogParent@window@@SAXQAV1@@PAPAVdialog@@@@Z 
01:000DACB4 ?_getText@window@@SAXQAV1@@PAPB_W@Z 
01:000DAD60 ?anonymous$o0$1$settext/1np$window@1@SAXPAUanonymous$o0$1$settext/1np$windowc_struct@1@@Z 
01:000DAD94 ?setText@window@@SAXQAV1@@PB_W@Z 
01:000DAEA4 ?_getData@window@@SAXQAV1@@AAUlParam@gui_native@@@Z 
01:000DAF4C ?anonymous$o0$1$setdata/1np$window@1@SAXPAUanonymous$o0$1$setdata/1np$windowc_struct@1@@Z 
01:000DAF80 ?setData@window@@SAXQAV1@@PBUlParam@gui_native@@@Z 
01:000DB090 ?_getOuterRect@window@@SAXQAV1@@PAPAUrct_struct@vpiDomains@@@Z 
01:000DB0BC ?getOuterSize@window@@SAXQAV1@@PAHPAH@Z 
01:000DB134 ?setOuterRect@window@@SAXQAV1@@PAUrct_struct@vpiDomains@@@Z 
01:000DB1A0 ?anonymous$o0$1$setclientrect/1np$window@1@SAXPAUanonymous$o0$1$setclientrect/1np$windowc_struct@1@@Z 
01:000DB1E0 ?setClientRect@window@@SAXQAV1@@PAUrct_struct@vpiDomains@@@Z 
01:000DB2F0 ?_getClientRect@window@@SAXQAV1@@PAPAUrct_struct@vpiDomains@@@Z 
01:000DB4A8 ?getClientSize@window@@SAXQAV1@@PAHPAH@Z 
01:000DB50C ?setClientSize@window@@SAXQAV1@@HH@Z 
01:000DB574 ?_adjustRectEx@window@@SAXQAV1@@PAUrct_struct@vpiDomains@@PAPAU34@@Z 
01:000DB764 ?center@window@@SAXQAV1@@@Z 
01:000DB78C ?center@window@@SAXQAV1@@PAUrct_struct@vpiDomains@@@Z 
01:000DB7B4 ?centerTo@window@@SAXQAV1@@0@Z 
01:000DB950 ?_mapPointsTo@window@@SAXQAV1@@0PAU?$__packedList_struct@Upnt@vpiDomains@@@@PAPAU?$__packedList_struct@U45@@@@Z 
01:000DB99C ?_mapPointTo@window@@SAXQAV1@@0PAUpnt_struct@vpiDomains@@PAPAU45@@Z 
01:000DB9E8 ?_mapRectangleTo@window@@SAXQAV1@@0PAUrct_struct@vpidomains@@PAPAU4vpiDomains@@@Z 
01:000DBB7C ?_mapPointToScreen@window@@SAXQAV1@@PAUpnt_struct@vpiDomains@@PAPAU34@@Z 
01:000DBBA4 ?_mapPointFromScreen@window@@SAXQAV1@@PAUpnt_struct@vpiDomains@@PAPAU34@@Z 
01:000DBBCC ?anonymous$o0$1$seticon/1np$window@1@SAXPAUanonymous$o0$1$seticon/1np$windowc_struct@1@@Z 
01:000DBC00 ?setIcon@window@@SAXQAV1@@PBUresid@vpiDomains@@@Z 
01:000DBD10 ?anonymous$o0$1$setfocus/0np$window@1@SAXPAUanonymous$o0$1$setfocus/0np$windowc_struct@1@@Z 
01:000DBD68 ?setFocus@window@@SAXQAV1@@@Z 
01:000DBDA0 ?anonymous$o0$1$bringtotop/0np$window@1@SAXPAUanonymous$o0$1$bringtotop/0np$windowc_struct@1@@Z 
01:000DBDD0 ?bringToTop@window@@SAXQAV1@@@Z 
01:000DBE08 ?anonymous$o0$1$setactive/0np$window@1@SAXPAUanonymous$o0$1$setactive/0np$windowc_struct@1@@Z 
01:000DBE40 ?setActive@window@@SAXQAV1@@@Z 
01:000DBE78 ?anonymous$o0$1$forcetotop/0np$window@1@SAXPAUanonymous$o0$1$forcetotop/0np$windowc_struct@1@@Z 
01:000DBF50 ?forceToTop@window@@SAXQAV1@@@Z 
01:000DBF88 ?anonymous$o0$1$setfont/1np$window@1@SAXPAUanonymous$o0$1$setfont/1np$windowc_struct@1@@Z 
01:000DBFBC ?setFont@window@@SAXQAV1@@PBUfont@vpiDomains@@@Z 
01:000DC0CC ?_getFont@window@@SAXQAV1@@AAUfont@vpiDomains@@@Z 
01:000DC18C ?getFontMetrics@window@@SAXQAV1@@AAUpositive@@111@Z 
01:000DC3FC ?getFontMetrics@window@@SAXQAV1@@AAUpositive@@11@Z 
01:000DC444 ?invalidate@window@@SAXQAV1@@@Z 
01:000DC484 ?invalidate@window@@SAXQAV1@@PAUrct_struct@vpiDomains@@@Z 
01:000DC4C8 ?addHandler@window@@SAXQAV1@@X@Z 
01:000DC4F0 ?removeHandler@window@@SAXQAV1@@X@Z 
01:000DC5B4 ?setSubClassHandler@window@@SAXQAV1@@XPAUboolean_struct@_builtIn@@@Z 
01:000DC65C ?attachSpecialHandler@window@@SAXQAV1@@PBUwindowHandle@vpiDomains@@@Z 
01:000DC7E8 ?_getOwnPaint@window@@SAXQAV1@@AAUbooleanInt@core@@@Z 
01:000DC814 ?_subclassEH@window@@SAXQAV1@@PBUwindowHandle@@PAUevent_struct@vpiDomains@@AAUlResult@@@Z 
01:000DC884 ?_sendEvent@window@@SAXQAV1@@PAUevent_struct@vpiDomains@@AAUlResult@gui_native@@@Z 
01:000DC8AC ?_sendEvent@window@@SAXQAV1@@PAUevent_struct@vpiDomains@@PAUboolean_struct@_builtIn@@AAUlResult@gui_native@@@Z 
01:000DC8F4 ?anonymous$o0$1$postevent/1np$window@1@SAXPAUanonymous$o0$1$postevent/1np$windowc_struct@1@@Z 
01:000DC928 ?postEvent@window@@SAXQAV1@@PAUevent_struct@vpiDomains@@@Z 
01:000DC964 ?postUserEvent@window@@SAXQAV1@@PBUunsignedNative@@H@Z 
01:000DC994 ?_getClassName@window@@SAXQAV1@@PAPB_W@Z 
01:000DC9C0 ?_getAttrVal@window@@SAXQAV1@@HPAH@Z 
01:000DC9E8 $getDialogs$window_implement$predicate$(i,o)$c$_m17 
01:000DCA44 $getChildWindows$window_implement$predicate$(i,o)$c$_m18 
01:000DCAA0 ?isChild@window@@SAXQAV1@@0@Z 
01:000DCAE8 ?isChildHWnd@window@@SAXQAV1@@PBUhwnd@@@Z 
01:000DCB14 ?isChild@window@@SAXPBUhwnd@@0@Z 
01:000DCB50 ?addCommand@window@@SAXQAV1@@QAVcommand@@@@Z 
01:000DCBC0 ?removeCommand@window@@SAXQAV1@@QAVcommand@@@@Z 
01:000DCC64 ?_lookupCommand@window@@SAXQAV1@@PB_WPAPAVcommand@@@@Z 
01:000DCCE0 ?_tryLookupCommand@window@@SAXQAV1@@PB_WPAPAVcommand@@@@Z 
01:000DCD20 ?_getEffectiveCommand_nd@window@@SAXQAV1@@PAPAVcommand@@@@Z 
01:000DCD5C ?_getCommand_nd@window@@SAXQAV1@@PAPAVcommand@@@@Z 
01:000DCDA8 ?_getNestedCommand_nd@window@@SAXQAV1@@PAPAVcommand@@@@Z 
01:000DCE54 ?_getParentCommand_nd@window@@SAXQAV1@@PAPAVcommand@@@@Z 
01:000DCED8 ?menuPopUp@window@@SAXQAV1@@PAUmenu_struct@vpiDomains@@PAUpnt_struct@4@PBUmenuAlign@4@@Z 
01:000DCF04 ?anonymous$o0$1$cursorset/1np$window@1@SAXPAUanonymous$o0$1$cursorset/1np$windowc_struct@1@@Z 
01:000DCF44 ?cursorSet@window@@SAXQAV1@@PBUcursor@vpiDomains@@@Z 
01:000DCF80 ?cursorSet@window@@SAXQAV1@@PBUcursor@vpiDomains@@PAUboolean_struct@_builtIn@@@Z 
01:000DCFC0 ?cursorSet@window@@SAXQAV1@@PBUhModule@@PBUcursor@vpiDomains@@PAUboolean_struct@_builtIn@@@Z 
01:000DD000 ?_cursorGetPos@window@@SAXQAV1@@PAPAUpnt_struct@vpiDomains@@@Z 
01:000DD02C ?_cursorGet@window@@SAXQAV1@@AAUcursor@vpiDomains@@@Z 
01:000DD058 ?_checkState@window@@SAXQAV1@@PBUwsflag@vpiDomains@@PAPAUboolean_struct@_builtIn@@@Z  (Idle)
01:000DD0B4 ?isFlagSet@window@@SAXQAV1@@PBUwsflag@vpiDomains@@@Z 
01:000DD0DC ?_getState@window@@SAXQAV1@@PAPAU?$__packedList_struct@Uwsflag@@@@@Z 
01:000DD19C ?setState@window@@SAXQAV1@@PAU?$__packedList_struct@Uwsflag@@@@@Z 
01:000DD474 ?setEnabled@window@@SAXQAV1@@@Z 
01:000DD488 ?setEnabled@window@@SAXQAV1@@PAUboolean_struct@_builtIn@@@Z 
01:000DD4B4 ?_getEnabled@window@@SAXQAV1@@PAPAUboolean_struct@_builtIn@@@Z 
01:000DD4D0 ?setVisible@window@@SAXQAV1@@@Z 
01:000DD4E4 ?setVisible@window@@SAXQAV1@@PAUboolean_struct@_builtIn@@@Z 
01:000DD510 ?_getVisible@window@@SAXQAV1@@PAPAUboolean_struct@_builtIn@@@Z 
01:000DD52C ?clearState@window@@SAXQAV1@@PAU?$__packedList_struct@Uwsflag@@@@@Z 
01:000DD564 ?addState@window@@SAXQAV1@@PAU?$__packedList_struct@Uwsflag@vpiDomains@@@@@Z 
01:000DD700 ?clearStateList@window@@SAXQAV1@@PAU?$__packedList_struct@Uwsflag@vpiDomains@@@@@Z 
01:000DD7DC ?_isDynStateFlagTrigger@window@@SAXPBUwsflag@vpiDomains@@PAPAU?$__packedList_struct@U23@@@@Z 
01:000DD8C4 ?addShowListener@window@@SAXQAV1@@X@Z 
01:000DD8EC ?removeShowListener@window@@SAXQAV1@@X@Z 
01:000DD9B4 ?handleShow@window@@SAXQAVwindowExtension@@@QAV1@@PBUlParam@gui_native@@@Z 
01:000DDA80 ?addDestroyListener@window@@SAXQAV1@@X@Z 
01:000DDAA8 ?removeDestroyListener@window@@SAXQAV1@@X@Z 
01:000DDB70 ?handleDestroy@window@@SAXQAV1@@0@Z  (Idle)
01:000DDC58 ?addGetFocusListener@window@@SAXQAV1@@X@Z 
01:000DDC80 ?removeGetFocusListener@window@@SAXQAV1@@X@Z 
01:000DDD48 ?handleFocus@window@@SAXQAVwindowExtension@@@QAV1@@@Z 
01:000DDDC8 ?addLoseFocusListener@window@@SAXQAV1@@X@Z 
01:000DDDF0 ?removeLoseFocusListener@window@@SAXQAV1@@X@Z 
01:000DDEB8 ?handleLoseFocus@window@@SAXQAVwindowExtension@@@QAV1@@@Z 
01:000DDF38 ?addSizeListener@window@@SAXQAV1@@X@Z 
01:000DDF60 ?removeSizeListener@window@@SAXQAV1@@X@Z 
01:000DE02C ?handleSize@window@@SAXQAVwindowExtension@@@QAV1@@HH@Z 
01:000DE0AC ?addMoveListener@window@@SAXQAV1@@X@Z 
01:000DE0D4 ?removeMoveListener@window@@SAXQAV1@@X@Z 
01:000DE1A0 ?handleMove@window@@SAXQAVwindowExtension@@@QAV1@@HH@Z 
01:000DE224 ?_tickAction@window@@SAXQAV1@@PBUpositive@@XAAUtimerHandle@@@Z 
01:000DE2A0 ?timerProc_tick@window@@SGXPBUhwnd@@IPBUunsignedNative@@I@Z 
01:000DE33C ?timerKill@window@@SAXQAV1@@PBUtimerHandle@@@Z 
01:000DE37C ?_timerKill_robust@window@@SAXQAV1@@PBUtimerHandle@@AAUhResult@@@Z 
01:000DE458 ?anonymous$o0$1$delaycall2/3np$window@1@SAXPAUanonymous$o0$1$delaycall2/3np$windowc_struct@1@@Z 
01:000DE568 ?delayCall2@window@@SAXQAV1@@QAVrTypeLibrary@TypeLibraries@RunTime@VIP@@PBUpositive@@XPAX@Z  (Idle)
01:000DE730 ?delayCall@window@@SAXQAV1@@PBUpositive@@X@Z 
01:000DE768 ?anonymous$o0$1$delaycall/3np$window@1@SAXPAUanonymous$o0$1$delaycall/3np$windowc_struct@1@@Z 
01:000DE7B8 ?delayCall@window@@SAXQAV1@@QAVrTypeLibrary@TypeLibraries@RunTime@VIP@@PBUpositive@@XPAX@Z 
01:000DE808 ?anonymous$o0$1$timerset/1nf$window@1@SAXPAUanonymous$o0$1$timerset/1nf$windowc_struct@1@@Z 
01:000DE8B0 ?_timerSet@window@@SAXQAV1@@PBUpositive@@AAUtimerHandle@@@Z 
01:000DE93C ?addTimerListener@window@@SAXQAV1@@X@Z 
01:000DE964 ?removeTimerListener@window@@SAXQAV1@@X@Z 
01:000DEA30 ?addMenuItemListener@window@@SAXQAV1@@X@Z 
01:000DEA58 ?removeMenuItemListener@window@@SAXQAV1@@X@Z 
01:000DECB8 ?addMenuItemListener@window@@SAXQAV1@@PBUmenuTag@vpiDomains@@X@Z 
01:000DECFC ?handleMenuCommand@window@@SAXQAVwindowExtension@@@QAV1@@PBUmenuTag@vpiDomains@@@Z 
01:000DED58 ?_retrieveMenuListener@window@@SAXQAV1@@PBUmenuTag@vpiDomains@@PAX@Z 
01:000DEE04 ?_getContextMenuResponder@window@@SAXQAV1@@PAX@Z 
01:000DEE1C ?setContextMenuResponder@window@@SAXQAV1@@X@Z 
01:000DEE98 ?resetContextMenuResponder@window@@SAXQAV1@@@Z 
01:000DEEB0 ?_defaultContextMenuResponder@window@@SAXQAV1@@PAUcontextMenuInput_struct@1@PAPAUcontextMenuResponse_struct@1@@Z 
01:000DEEC4 ?_contextMenuHandler@window@@SAXQAV1@@PBUwindowHandle@@PAUevent_struct@vpiDomains@@AAUlResult@@@Z 
01:000DEF4C ?_parse_wm_contextmenu_lparam@window@@SAXPBUwindowHandle@vpiDomains@@PBUlParam@gui_native@@PAPAUcontextMenuInput_struct@1@@Z 
01:000DF000 ?setGetNavigationPointsResponder@window@@SAXQAV1@@X@Z 
01:000DF014 ?_getGetNavigationPointsResponder@window@@SAXQAV1@@PAX@Z 
01:000DF02C ?_getNavigationPoints@window@@SAXQAV1@@PAPAU?$__packedList_struct@UnavigationPoint@@@@@Z 
01:000DF058 ?addNativeMessageHandler@window@@SAXQAV1@@X@Z 
01:000DF090 ?removeNativeMessageHandler@window@@SAXQAV1@@X@Z 
01:000DF15C ?anonymous$o0$1$enablehook/0np$window@1@SAXPAUanonymous$o0$1$enablehook/0np$windowc_struct@1@@Z 
01:000DF18C ?enableHook@window@@SAXQAV1@@@Z 
01:000DF1C4 ?_handleNative@window@@SAXQAVwindowExtension@@@QAV1@@IPBUwParam@gui_native@@PBUlParam@5@PAPAUnativeResponse_struct@1@@Z 
01:000DF50C ?clearMinimizeSize@window@@SAXQAV1@@@Z 
01:000DF520 ?setMinimizeSize@window@@SAXQAV1@@HH@Z 
01:000DF550 ?tryHandleMinimumSize@window@@SAXQAV1@@PBUlParam@gui_native@@@Z 
01:000DF5D4 ?fixMinimumSize@window@@SAXPAXH@Z 
01:000DF604 ?handleMouseMove@window@@SAXQAV1@@PBUwparam@gui_native@@PBUlparam@4@@Z 
01:000DF6F8 ?_handleMouseHover@window@@SAXQAV1@@PBUwparam@gui_native@@PBUlparam@4@PAPAUnativeResponse_struct@1@@Z 
01:000DF834 ?_handleMouseLeave@window@@SAXQAV1@@PAPAUnativeResponse_struct@1@@Z 
01:000DF8CC ?_tryGetTrackMouseFlag@window@@SAXQAV1@@PAPAUtuple_struct@core@@PAIPAI@Z  (Idle)
01:000DFAE4 ?setTrackMouse@window@@SAXQAV1@@@Z  (Idle)
01:000DFB78 ?setMouseHoverListener@window@@SAXQAV1@@X@Z 
01:000DFB8C ?setMouseHoverListener@window@@SAXQAV1@@XH@Z 
01:000DFBF0 ?clearMouseHoverListener@window@@SAXQAV1@@@Z 
01:000DFC34 ?addMouseLeaveListener@window@@SAXQAV1@@X@Z 
01:000DFC70 ?removeMouseLeaveListener@window@@SAXQAV1@@X@Z 
01:000DFD14 ?addMouseEnterListener@window@@SAXQAV1@@X@Z 
01:000DFD4C ?removeMouseEnterListener@window@@SAXQAV1@@X@Z 
01:000DFDF0 ?captureMouse@window@@SAXQAV1@@@Z 
01:000DFE14 ?releaseMouse@window@@SAXQAV1@@@Z 
01:000DFE24 ?_getMapMode@window@@SAXQAV1@@AAUmapmode@vpiDomains@@@Z 
01:000DFEB0 ?anonymous$o0$1$setmapmode/1np$window@1@SAXPAUanonymous$o0$1$setmapmode/1np$windowc_struct@1@@Z 
01:000DFEDC ?setMapMode@window@@SAXQAV1@@PBUmapmode@vpiDomains@@@Z 
01:000E0028 ?getMapScale@window@@SAXQAV1@@PAPAUpnt_struct@vpiDomains@@111@Z 
01:000E00D8 ?anonymous$o0$1$setmapscale/4np$window@1@SAXPAUanonymous$o0$1$setmapscale/4np$windowc_struct@1@@Z 
01:000E0128 ?setMapScale@window@@SAXQAV1@@PAUpnt_struct@vpiDomains@@111@Z 
01:000E029C ?_convertLPtoDP@window@@SAXQAV1@@PAU?$__packedList_struct@Upnt@vpiDomains@@@@PAPAU?$__packedList_struct@U34@@@@Z 
01:000E02CC ?_convertDPtoLP@window@@SAXQAV1@@PAU?$__packedList_struct@Upnt@vpiDomains@@@@PAPAU?$__packedList_struct@U34@@@@Z 
01:000E02FC ?_getClip@window@@SAXQAV1@@PAPAUrct_struct@vpiDomains@@@Z 
01:000E0388 ?anonymous$o0$1$setclip/1np$window@1@SAXPAUanonymous$o0$1$setclip/1np$windowc_struct@1@@Z 
01:000E03B4 ?setClip@window@@SAXQAV1@@PAUrct_struct@vpiDomains@@@Z 
01:000E0500 ?getScrollRange@window@@SAXQAV1@@PBUscrollType@vpiDomains@@PAHPAH@Z 
01:000E0528 ?setScrollRange@window@@SAXQAV1@@PBUscrollType@vpiDomains@@HH@Z 
01:000E05E4 ?_getScrollPos@window@@SAXQAV1@@PBUscrollType@vpiDomains@@PAH@Z 
01:000E0610 ?setScrollPos@window@@SAXQAV1@@PBUscrollType@vpiDomains@@H@Z 
01:000E06AC ?_getScrollProportion@window@@SAXQAV1@@PBUscrollType@vpiDomains@@AAUpositive@@@Z 
01:000E06EC ?setScrollProportion@window@@SAXQAV1@@PBUscrollType@vpiDomains@@PBUpositive@@@Z 
01:000E07B8 ?scroll@window@@SAXQAV1@@PAUrct_struct@vpiDomains@@HH@Z 
01:000E084C ?scroll@window@@SAXQAV1@@PAUrct_struct@vpiDomains@@HHI@Z 
01:000E08AC ?_getScrollBarInfo@window@@SAXQAV1@@PBUscrollType@vpiDomains@@PAPAUscrollBarInfo_struct@1@@Z 
01:000E09DC ?_getScrollBarObjCode@window@@SAXHPAI@Z 
01:000E0A34 ?_getScrollInfo@window@@SAXQAV1@@PBUscrollType@vpiDomains@@PAPAUscrollInfo_struct@gui_api@@@Z 
01:000E0B24 ?addVScrollListener@window@@SAXQAV1@@X@Z 
01:000E0B4C ?removeVScrollListener@window@@SAXQAV1@@X@Z 
01:000E0C18 ?handleVScroll@window@@SAXQAVwindowExtension@@@QAV1@@PBUscrollCode@vpiDomains@@H@Z 
01:000E0CA0 ?addHScrollListener@window@@SAXQAV1@@X@Z 
01:000E0CC8 ?removeHScrollListener@window@@SAXQAV1@@X@Z 
01:000E0D94 ?handleHScroll@window@@SAXQAVwindowExtension@@@QAV1@@PBUscrollCode@vpiDomains@@H@Z 
01:000E0E1C ?anonymous$o0$1$setcaretsize/2np$window@1@SAXPAUanonymous$o0$1$setcaretsize/2np$windowc_struct@1@@Z 
01:000E0E54 ?setCaretSize@window@@SAXQAV1@@PBUpositive@@1@Z 
01:000E0F88 ?setCaret@window@@SAXQAV1@@PAUpnt_struct@vpiDomains@@PBUpositive@@2@Z 
01:000E0FB4 ?anonymous$o0$1$setcaret/1np$window@1@SAXPAUanonymous$o0$1$setcaret/1np$windowc_struct@1@@Z 
01:000E0FE0 ?setCaret@window@@SAXQAV1@@PAUpnt_struct@vpiDomains@@@Z 
01:000E114C ?hideCaret@window@@SAXQAV1@@@Z 
01:000E1188 ?addMouseDownListener@window@@SAXQAV1@@X@Z 
01:000E11B0 ?removeMouseDownListener@window@@SAXQAV1@@X@Z 
01:000E127C ?handleMouseDown@window@@SAXQAVwindowExtension@@@QAV1@@PAUpnt_struct@vpiDomains@@PBUkeyModifier@5@H@Z 
01:000E1308 ?addMouseUpListener@window@@SAXQAV1@@X@Z 
01:000E1330 ?removeMouseUpListener@window@@SAXQAV1@@X@Z 
01:000E13FC ?handleMouseUp@window@@SAXQAVwindowExtension@@@QAV1@@PAUpnt_struct@vpiDomains@@PBUkeyModifier@5@H@Z 
01:000E1488 ?addMouseDblListener@window@@SAXQAV1@@X@Z 
01:000E14B0 ?removeMouseDblListener@window@@SAXQAV1@@X@Z 
01:000E157C ?handleMouseDbl@window@@SAXQAVwindowExtension@@@QAV1@@PAUpnt_struct@vpiDomains@@PBUkeyModifier@5@H@Z 
01:000E1608 ?addMouseMoveListener@window@@SAXQAV1@@X@Z 
01:000E1630 ?removeMouseMoveListener@window@@SAXQAV1@@X@Z 
01:000E16FC ?handleMouseMove@window@@SAXQAVwindowExtension@@@QAV1@@PAUpnt_struct@vpiDomains@@PBUkeyModifier@5@PAU?$__packedList_struct@Uinteger@@@@@Z 
01:000E1788 ?_getPaintResponder@window@@SAXQAV1@@PAX@Z 
01:000E17B4 ?setPaintResponder@window@@SAXQAV1@@X@Z 
01:000E17C8 ?resetPaintResponder@window@@SAXQAV1@@@Z 
01:000E17E0 ?handlePaint@window@@SAXQAVwindowExtension@@@QAV1@@PAUrct_struct@vpiDomains@@QAVwindowGDI@@@@Z 
01:000E1848 ?_getEraseBackgroundResponder@window@@SAXQAV1@@PAX@Z 
01:000E1860 ?setEraseBackgroundResponder@window@@SAXQAV1@@X@Z 
01:000E1874 ?resetEraseBackgroundResponder@window@@SAXQAV1@@@Z 
01:000E188C ?_handleEraseBackground@window@@SAXQAV1@@0PAPAUeraseBackgroundResponse_struct@1@@Z  (Idle)
01:000E18CC ?_defaultEraseBackgroundResponder@window@@SAXQAV1@@QAVwindowGDI@@@PAPAUeraseBackgroundResponse_struct@1@@Z 
01:000E18E0 ?update@window@@SAXQAV1@@@Z 
01:000E191C ?validateRect@window@@SAXQAV1@@PAUrct_struct@vpiDomains@@@Z 
01:000E1944 ?needsUpdate@window@@SAXQAV1@@PAUrct_struct@vpiDomains@@@Z 
01:000E196C ?_getInvalidRect@window@@SAXQAV1@@PAPAUrct_struct@vpiDomains@@@Z 
01:000E1998 ?_getWindowGDI@window@@SAXQAV1@@PAPAVwindowGDI@@@@Z 
01:000E19C0 ?addUserListener@window@@SAXQAV1@@X@Z 
01:000E19E8 ?removeUserListener@window@@SAXQAV1@@X@Z 
01:000E1AB4 ?handleUser@window@@SAXQAVwindowExtension@@@QAV1@@PBUunsignedNative@@PBUintegerNative@@@Z 
01:000E1B54 ?_getUnusedId@window@@SAXQAV1@@PAH@Z 
01:000E1BC8 ?postAction@window@@SAXQAV1@@X@Z 
01:000E1C30 ?onActionEvent@window@@SAXQAV1@@@Z 
01:000E1C9C ?postActionQueue@window@@SGQAVmonitorQueue@@@XQAV1@@@Z 
01:000E1DC4 ?addStateListener@window@@SAXQAV1@@X@Z 
01:000E1DEC ?removeStateListener@window@@SAXQAV1@@X@Z 
01:000E1EB8 ?handleStateChange@window@@SAXQAVwindowExtension@@@QAV1@@PAUstateInfo_struct@vpiDomains@@@Z 
01:000E1F3C ?_getCharResponder@window@@SAXQAV1@@PAX@Z 
01:000E1F54 ?setCharResponder@window@@SAXQAV1@@X@Z 
01:000E1F68 ?resetCharResponder@window@@SAXQAV1@@@Z 
